---
triple:          'arm64-apple-darwin'
binary-path:     '/Users/rafa32gr/Desarrollos/OSS/PLATON/target/debug/deps/libplaton.dylib'
relocations:
  - { offset: 0x1E, size: 0x8, addend: 0x0, symName: __ZN4core5slice3raw14from_raw_parts17h5250698cdb4827b5E, symObjAddr: 0x0, symBinAddr: 0x880, symSize: 0x58 }
  - { offset: 0x7B2, size: 0x8, addend: 0x0, symName: __ZN4core5slice3raw14from_raw_parts17h5250698cdb4827b5E, symObjAddr: 0x0, symBinAddr: 0x880, symSize: 0x58 }
  - { offset: 0x7F5, size: 0x8, addend: 0x0, symName: __ZN4core5slice3raw14from_raw_parts17h531d8439168873efE, symObjAddr: 0x58, symBinAddr: 0x8D8, symSize: 0x58 }
  - { offset: 0x1682, size: 0x8, addend: 0x0, symName: __ZN4core4hash11BuildHasher8hash_one17hf9f2a8295d429307E, symObjAddr: 0x0, symBinAddr: 0x930, symSize: 0x84 }
  - { offset: 0x169E, size: 0x8, addend: 0x0, symName: __ZN4core4hash11BuildHasher8hash_one17hf9f2a8295d429307E, symObjAddr: 0x0, symBinAddr: 0x930, symSize: 0x84 }
  - { offset: 0x1709, size: 0x8, addend: 0x0, symName: __ZN4core4hash6Hasher9write_u3217hd9eaa7e2c02d0a00E, symObjAddr: 0x84, symBinAddr: 0x9B4, symSize: 0x3C }
  - { offset: 0x192D, size: 0x8, addend: 0x0, symName: __ZN3std9panicking12catch_unwind7do_call17h26d33d968b1fb7a4E, symObjAddr: 0x0, symBinAddr: 0x9F0, symSize: 0x8C }
  - { offset: 0x3E63, size: 0x8, addend: 0x0, symName: __ZN3std9panicking12catch_unwind7do_call17h26d33d968b1fb7a4E, symObjAddr: 0x0, symBinAddr: 0x9F0, symSize: 0x8C }
  - { offset: 0x3F5E, size: 0x8, addend: 0x0, symName: __ZN3std9panicking12catch_unwind7do_call17h2f227fb1addf7740E, symObjAddr: 0x8C, symBinAddr: 0xA7C, symSize: 0x8C }
  - { offset: 0x4059, size: 0x8, addend: 0x0, symName: __ZN3std9panicking12catch_unwind7do_call17h3ca6bbe108000b09E, symObjAddr: 0x118, symBinAddr: 0xB08, symSize: 0x80 }
  - { offset: 0x4154, size: 0x8, addend: 0x0, symName: __ZN3std9panicking12catch_unwind7do_call17h519871e33d28d0baE, symObjAddr: 0x198, symBinAddr: 0xB88, symSize: 0x8C }
  - { offset: 0x424F, size: 0x8, addend: 0x0, symName: __ZN3std9panicking12catch_unwind7do_call17h8ea3064a5377c893E, symObjAddr: 0x224, symBinAddr: 0xC14, symSize: 0x88 }
  - { offset: 0x434A, size: 0x8, addend: 0x0, symName: __ZN3std9panicking12catch_unwind7do_call17h9f1518bebf84e421E, symObjAddr: 0x2AC, symBinAddr: 0xC9C, symSize: 0x90 }
  - { offset: 0x4445, size: 0x8, addend: 0x0, symName: __ZN3std9panicking12catch_unwind7do_call17hbae787e182172072E, symObjAddr: 0x33C, symBinAddr: 0xD2C, symSize: 0x90 }
  - { offset: 0x4540, size: 0x8, addend: 0x0, symName: __ZN3std9panicking12catch_unwind7do_call17hc4d63ab86beb90f8E, symObjAddr: 0x3CC, symBinAddr: 0xDBC, symSize: 0x90 }
  - { offset: 0x463B, size: 0x8, addend: 0x0, symName: __ZN3std9panicking12catch_unwind8do_catch17h284f0f78ee223509E, symObjAddr: 0x45C, symBinAddr: 0xE4C, symSize: 0x70 }
  - { offset: 0x46D0, size: 0x8, addend: 0x0, symName: __ZN3std9panicking12catch_unwind8do_catch17h6d2bd0acd068c74fE, symObjAddr: 0x4CC, symBinAddr: 0xEBC, symSize: 0x70 }
  - { offset: 0x4765, size: 0x8, addend: 0x0, symName: __ZN3std9panicking12catch_unwind8do_catch17h76439da5c40e77daE, symObjAddr: 0x53C, symBinAddr: 0xF2C, symSize: 0x70 }
  - { offset: 0x47FA, size: 0x8, addend: 0x0, symName: __ZN3std9panicking12catch_unwind8do_catch17h7fa1ed7f743c6f7aE, symObjAddr: 0x5AC, symBinAddr: 0xF9C, symSize: 0x70 }
  - { offset: 0x488F, size: 0x8, addend: 0x0, symName: __ZN3std9panicking12catch_unwind8do_catch17h8c2141a3d8c7a5ddE, symObjAddr: 0x61C, symBinAddr: 0x100C, symSize: 0x70 }
  - { offset: 0x4924, size: 0x8, addend: 0x0, symName: __ZN3std9panicking12catch_unwind8do_catch17hb4b5fe12f6ef3b88E, symObjAddr: 0x68C, symBinAddr: 0x107C, symSize: 0x70 }
  - { offset: 0x49B9, size: 0x8, addend: 0x0, symName: __ZN3std9panicking12catch_unwind8do_catch17hd06ccb2a143d474eE, symObjAddr: 0x6FC, symBinAddr: 0x10EC, symSize: 0x70 }
  - { offset: 0x4A4E, size: 0x8, addend: 0x0, symName: __ZN3std9panicking12catch_unwind8do_catch17hf1a8345ea73b56ddE, symObjAddr: 0x76C, symBinAddr: 0x115C, symSize: 0x70 }
  - { offset: 0x510D, size: 0x8, addend: 0x0, symName: '__ZN3std4sync6poison5mutex14Mutex$LT$T$GT$3new17h14bf7351bb6f4ebcE', symObjAddr: 0x0, symBinAddr: 0x11CC, symSize: 0x7C }
  - { offset: 0x694A, size: 0x8, addend: 0x0, symName: '__ZN3std4sync6poison5mutex19MutexGuard$LT$T$GT$3new28_$u7b$$u7b$closure$u7d$$u7d$17h338e565f96288046E', symObjAddr: 0x24C, symBinAddr: 0x1418, symSize: 0x18 }
  - { offset: 0x6992, size: 0x8, addend: 0x0, symName: '__ZN3std4sync6poison5mutex19MutexGuard$LT$T$GT$3new28_$u7b$$u7b$closure$u7d$$u7d$17h3cb40cecdfd34979E', symObjAddr: 0x264, symBinAddr: 0x1430, symSize: 0x18 }
  - { offset: 0x69DA, size: 0x8, addend: 0x0, symName: '__ZN3std4sync6poison5mutex19MutexGuard$LT$T$GT$3new28_$u7b$$u7b$closure$u7d$$u7d$17hadbdc44d13073799E', symObjAddr: 0x27C, symBinAddr: 0x1448, symSize: 0x18 }
  - { offset: 0x6A29, size: 0x8, addend: 0x0, symName: '__ZN89_$LT$std..sync..poison..mutex..MutexGuard$LT$T$GT$$u20$as$u20$core..ops..deref..Deref$GT$5deref17h26b3d8aa21d15050E', symObjAddr: 0x294, symBinAddr: 0x1460, symSize: 0x1C }
  - { offset: 0x6A75, size: 0x8, addend: 0x0, symName: '__ZN89_$LT$std..sync..poison..mutex..MutexGuard$LT$T$GT$$u20$as$u20$core..ops..deref..Deref$GT$5deref17h54896a252132fe9cE', symObjAddr: 0x2B0, symBinAddr: 0x147C, symSize: 0x1C }
  - { offset: 0x6AC1, size: 0x8, addend: 0x0, symName: '__ZN89_$LT$std..sync..poison..mutex..MutexGuard$LT$T$GT$$u20$as$u20$core..ops..deref..Deref$GT$5deref17hc5562b728e863a17E', symObjAddr: 0x2CC, symBinAddr: 0x1498, symSize: 0x1C }
  - { offset: 0x6B13, size: 0x8, addend: 0x0, symName: '__ZN92_$LT$std..sync..poison..mutex..MutexGuard$LT$T$GT$$u20$as$u20$core..ops..deref..DerefMut$GT$9deref_mut17h963ef7038011eff4E', symObjAddr: 0x2E8, symBinAddr: 0x14B4, symSize: 0x1C }
  - { offset: 0x6B5F, size: 0x8, addend: 0x0, symName: '__ZN92_$LT$std..sync..poison..mutex..MutexGuard$LT$T$GT$$u20$as$u20$core..ops..deref..DerefMut$GT$9deref_mut17hd92ad33d96aaf052E', symObjAddr: 0x304, symBinAddr: 0x14D0, symSize: 0x1C }
  - { offset: 0x6BAB, size: 0x8, addend: 0x0, symName: '__ZN92_$LT$std..sync..poison..mutex..MutexGuard$LT$T$GT$$u20$as$u20$core..ops..deref..DerefMut$GT$9deref_mut17hf1cf86161f270e9aE', symObjAddr: 0x320, symBinAddr: 0x14EC, symSize: 0x1C }
  - { offset: 0x70FF, size: 0x8, addend: 0x0, symName: '__ZN3std4sync6poison5mutex14Mutex$LT$T$GT$3new17h14bf7351bb6f4ebcE', symObjAddr: 0x0, symBinAddr: 0x11CC, symSize: 0x7C }
  - { offset: 0x769D, size: 0x8, addend: 0x0, symName: '__ZN3std4sync6poison5mutex14Mutex$LT$T$GT$3new17hc85bc151003b92b9E', symObjAddr: 0x7C, symBinAddr: 0x1248, symSize: 0x7C }
  - { offset: 0x77A8, size: 0x8, addend: 0x0, symName: '__ZN3std4sync6poison5mutex14Mutex$LT$T$GT$3new17hd4f387f1080dcf60E', symObjAddr: 0xF8, symBinAddr: 0x12C4, symSize: 0x7C }
  - { offset: 0x78BA, size: 0x8, addend: 0x0, symName: '__ZN3std4sync6poison5mutex14Mutex$LT$T$GT$4lock17h58b0d92dae21b411E', symObjAddr: 0x174, symBinAddr: 0x1340, symSize: 0x48 }
  - { offset: 0x798C, size: 0x8, addend: 0x0, symName: '__ZN3std4sync6poison5mutex14Mutex$LT$T$GT$4lock17h92ded94e91cb5b9bE', symObjAddr: 0x1BC, symBinAddr: 0x1388, symSize: 0x48 }
  - { offset: 0x7A5E, size: 0x8, addend: 0x0, symName: '__ZN3std4sync6poison5mutex14Mutex$LT$T$GT$4lock17hf0f805e2c0a3b913E', symObjAddr: 0x204, symBinAddr: 0x13D0, symSize: 0x48 }
  - { offset: 0x7C4B, size: 0x8, addend: 0x0, symName: __ZN4core5slice3raw14from_raw_parts18precondition_check17ha85d444f5eb4277fE, symObjAddr: 0x0, symBinAddr: 0x1508, symSize: 0x10C }
  - { offset: 0x7D31, size: 0x8, addend: 0x0, symName: __ZN4core5slice3raw14from_raw_parts18precondition_check17ha85d444f5eb4277fE, symObjAddr: 0x0, symBinAddr: 0x1508, symSize: 0x10C }
  - { offset: 0x7EC6, size: 0x8, addend: 0x0, symName: __ZN4core4time8Duration11as_secs_f6417h7cfb01ae255f35c7E, symObjAddr: 0x0, symBinAddr: 0x1614, symSize: 0x3C }
  - { offset: 0x7F59, size: 0x8, addend: 0x0, symName: __ZN4core4time8Duration11as_secs_f6417h7cfb01ae255f35c7E, symObjAddr: 0x0, symBinAddr: 0x1614, symSize: 0x3C }
  - { offset: 0x7F9A, size: 0x8, addend: 0x0, symName: __ZN4core4hint16assert_unchecked18precondition_check17hc1627bfd5ee5fb56E, symObjAddr: 0x0, symBinAddr: 0x1650, symSize: 0x58 }
  - { offset: 0x7FB6, size: 0x8, addend: 0x0, symName: __ZN4core4hint16assert_unchecked18precondition_check17hc1627bfd5ee5fb56E, symObjAddr: 0x0, symBinAddr: 0x1650, symSize: 0x58 }
  - { offset: 0x8001, size: 0x8, addend: 0x0, symName: __ZN4core4hint21unreachable_unchecked18precondition_check17h81ecd956a7343b2fE, symObjAddr: 0x58, symBinAddr: 0x16A8, symSize: 0x3C }
  - { offset: 0x8095, size: 0x8, addend: 0x0, symName: '__ZN3std3sys4sync5mutex7pthread5Mutex3get28_$u7b$$u7b$closure$u7d$$u7d$17h4982ed8c4bd1af45E', symObjAddr: 0x0, symBinAddr: 0x16E4, symSize: 0xF4 }
  - { offset: 0x8283, size: 0x8, addend: 0x0, symName: '__ZN3std3sys4sync5mutex7pthread5Mutex3get28_$u7b$$u7b$closure$u7d$$u7d$17h4982ed8c4bd1af45E', symObjAddr: 0x0, symBinAddr: 0x16E4, symSize: 0xF4 }
  - { offset: 0x854E, size: 0x8, addend: 0x0, symName: '__ZN104_$LT$T$u20$as$u20$pyo3..callback..IntoPyCallbackOutput$LT$$BP$mut$u20$pyo3_ffi..object..PyObject$GT$$GT$7convert17h1d223c94ba800d9fE', symObjAddr: 0x0, symBinAddr: 0x17D8, symSize: 0x34 }
  - { offset: 0x9D56, size: 0x8, addend: 0x0, symName: '__ZN104_$LT$T$u20$as$u20$pyo3..callback..IntoPyCallbackOutput$LT$$BP$mut$u20$pyo3_ffi..object..PyObject$GT$$GT$7convert17h1d223c94ba800d9fE', symObjAddr: 0x0, symBinAddr: 0x17D8, symSize: 0x34 }
  - { offset: 0x9DA4, size: 0x8, addend: 0x0, symName: '__ZN104_$LT$T$u20$as$u20$pyo3..callback..IntoPyCallbackOutput$LT$$BP$mut$u20$pyo3_ffi..object..PyObject$GT$$GT$7convert17h2431f089196706bbE', symObjAddr: 0x34, symBinAddr: 0x180C, symSize: 0x3C }
  - { offset: 0x9DF3, size: 0x8, addend: 0x0, symName: __ZN4pyo38callback7convert17h246148f2841c166bE, symObjAddr: 0x70, symBinAddr: 0x1848, symSize: 0x40 }
  - { offset: 0x9E4B, size: 0x8, addend: 0x0, symName: __ZN4pyo38callback7convert17h2e6ab4735b09fd0bE, symObjAddr: 0xB0, symBinAddr: 0x1888, symSize: 0x34 }
  - { offset: 0x9EA3, size: 0x8, addend: 0x0, symName: __ZN4pyo38callback7convert17h472eec76543eb537E, symObjAddr: 0xE4, symBinAddr: 0x18BC, symSize: 0x34 }
  - { offset: 0x9EFB, size: 0x8, addend: 0x0, symName: __ZN4pyo38callback7convert17h5cb419d432aa71caE, symObjAddr: 0x118, symBinAddr: 0x18F0, symSize: 0x24 }
  - { offset: 0x9F52, size: 0x8, addend: 0x0, symName: __ZN4pyo38callback7convert17h9fbb05361fbd23e3E, symObjAddr: 0x13C, symBinAddr: 0x1914, symSize: 0x40 }
  - { offset: 0x9FAA, size: 0x8, addend: 0x0, symName: __ZN4pyo38callback7convert17hab11243bb7023f0bE, symObjAddr: 0x17C, symBinAddr: 0x1954, symSize: 0x40 }
  - { offset: 0xA002, size: 0x8, addend: 0x0, symName: __ZN4pyo38callback7convert17hb6327017e1770100E, symObjAddr: 0x1BC, symBinAddr: 0x1994, symSize: 0x1C }
  - { offset: 0xA059, size: 0x8, addend: 0x0, symName: __ZN4pyo38callback7convert17he279900a6219debbE, symObjAddr: 0x1D8, symBinAddr: 0x19B0, symSize: 0x20 }
  - { offset: 0xA0B0, size: 0x8, addend: 0x0, symName: __ZN4pyo38callback7convert17he990c298823b1f7cE, symObjAddr: 0x1F8, symBinAddr: 0x19D0, symSize: 0x34 }
  - { offset: 0xA108, size: 0x8, addend: 0x0, symName: __ZN4pyo38callback7convert17hf2ae18f5a8a3f2aaE, symObjAddr: 0x22C, symBinAddr: 0x1A04, symSize: 0x28 }
  - { offset: 0xB085, size: 0x8, addend: 0x0, symName: '__ZN110_$LT$core..iter..adapters..enumerate..Enumerate$LT$I$GT$$u20$as$u20$core..iter..traits..iterator..Iterator$GT$4next17h3434512ee0990f61E', symObjAddr: 0x0, symBinAddr: 0x1A2C, symSize: 0xE0 }
  - { offset: 0xC313, size: 0x8, addend: 0x0, symName: '__ZN110_$LT$core..iter..adapters..enumerate..Enumerate$LT$I$GT$$u20$as$u20$core..iter..traits..iterator..Iterator$GT$4next17h3434512ee0990f61E', symObjAddr: 0x0, symBinAddr: 0x1A2C, symSize: 0xE0 }
  - { offset: 0xC465, size: 0x8, addend: 0x0, symName: '__ZN63_$LT$I$u20$as$u20$core..iter..traits..collect..IntoIterator$GT$9into_iter17hae4a516c7b66cfcaE', symObjAddr: 0xE0, symBinAddr: 0x1B0C, symSize: 0x30 }
  - { offset: 0xC9BF, size: 0x8, addend: 0x0, symName: '__ZN4pyo35types4dict138_$LT$impl$u20$core..convert..From$LT$$RF$pyo3..types..dict..PyDict$GT$$u20$for$u20$pyo3..instance..Py$LT$pyo3..types..dict..PyDict$GT$$GT$4from17hb99c2c28a1a48509E', symObjAddr: 0x0, symBinAddr: 0x1B3C, symSize: 0x38 }
  - { offset: 0xDA88, size: 0x8, addend: 0x0, symName: '__ZN4pyo35types4dict138_$LT$impl$u20$core..convert..From$LT$$RF$pyo3..types..dict..PyDict$GT$$u20$for$u20$pyo3..instance..Py$LT$pyo3..types..dict..PyDict$GT$$GT$4from17hb99c2c28a1a48509E', symObjAddr: 0x0, symBinAddr: 0x1B3C, symSize: 0x38 }
  - { offset: 0xDF94, size: 0x8, addend: 0x0, symName: __ZN4core9core_arch7aarch644neon9generated7vld1_u817h507cd5cd6835cd8eE, symObjAddr: 0x0, symBinAddr: 0x1B74, symSize: 0x34 }
  - { offset: 0xDFBA, size: 0x8, addend: 0x0, symName: __ZN4core9core_arch7aarch644neon9generated7vld1_u817h507cd5cd6835cd8eE, symObjAddr: 0x0, symBinAddr: 0x1B74, symSize: 0x34 }
  - { offset: 0xDFE8, size: 0x8, addend: 0x0, symName: __ZN4core9core_arch7aarch644neon9generated7vst1_u817h3f2c536d62d77045E, symObjAddr: 0x34, symBinAddr: 0x1BA8, symSize: 0x40 }
  - { offset: 0xE022, size: 0x8, addend: 0x0, symName: __ZN4core9core_arch7aarch644neon9generated8vcgez_s817h190e6a01691ab3a4E, symObjAddr: 0x74, symBinAddr: 0x1BE8, symSize: 0x68 }
  - { offset: 0xE0C4, size: 0x8, addend: 0x0, symName: __ZN4core9core_arch7aarch644neon9generated8vcltz_s817hc03450522f44169eE, symObjAddr: 0xDC, symBinAddr: 0x1C50, symSize: 0x68 }
  - { offset: 0xE2BA, size: 0x8, addend: 0x0, symName: '__ZN4core3cmp5impls69_$LT$impl$u20$core..cmp..PartialEq$LT$$RF$B$GT$$u20$for$u20$$RF$A$GT$2ne17hc5d9e7d88fd2e55bE', symObjAddr: 0x0, symBinAddr: 0x1CB8, symSize: 0x40 }
  - { offset: 0xE2DB, size: 0x8, addend: 0x0, symName: '__ZN4core3cmp5impls69_$LT$impl$u20$core..cmp..PartialEq$LT$$RF$B$GT$$u20$for$u20$$RF$A$GT$2ne17hc5d9e7d88fd2e55bE', symObjAddr: 0x0, symBinAddr: 0x1CB8, symSize: 0x40 }
  - { offset: 0xE3C3, size: 0x8, addend: 0x0, symName: __ZN4pyo33err5PyErr3new17h128ff79af108402dE, symObjAddr: 0x0, symBinAddr: 0x1CF8, symSize: 0x9C }
  - { offset: 0xE451, size: 0x8, addend: 0x0, symName: '__ZN4pyo33err5PyErr3new28_$u7b$$u7b$closure$u7d$$u7d$17h2cb4ae41c1897a8eE', symObjAddr: 0x310, symBinAddr: 0x2008, symSize: 0xD4 }
  - { offset: 0xE4AA, size: 0x8, addend: 0x0, symName: '__ZN4pyo33err5PyErr3new28_$u7b$$u7b$closure$u7d$$u7d$17h96f98c33febb4ba3E', symObjAddr: 0x3E4, symBinAddr: 0x20DC, symSize: 0xC0 }
  - { offset: 0xE502, size: 0x8, addend: 0x0, symName: '__ZN4pyo33err5PyErr3new28_$u7b$$u7b$closure$u7d$$u7d$17ha55e1b34cb8e34e0E', symObjAddr: 0x4A4, symBinAddr: 0x219C, symSize: 0xC0 }
  - { offset: 0xE55A, size: 0x8, addend: 0x0, symName: '__ZN4pyo33err5PyErr3new28_$u7b$$u7b$closure$u7d$$u7d$17hf10602515def62efE', symObjAddr: 0x564, symBinAddr: 0x225C, symSize: 0xC0 }
  - { offset: 0xE5B2, size: 0x8, addend: 0x0, symName: '__ZN4pyo33err5PyErr3new28_$u7b$$u7b$closure$u7d$$u7d$17hfe7f01d52ddbe111E', symObjAddr: 0x624, symBinAddr: 0x231C, symSize: 0xC0 }
  - { offset: 0xF76E, size: 0x8, addend: 0x0, symName: '__ZN50_$LT$T$u20$as$u20$core..convert..Into$LT$U$GT$$GT$4into17h6f38545cf9472a92E', symObjAddr: 0x6E4, symBinAddr: 0x23DC, symSize: 0x14 }
  - { offset: 0xF79F, size: 0x8, addend: 0x0, symName: '__ZN50_$LT$T$u20$as$u20$core..convert..Into$LT$U$GT$$GT$4into17h6f38545cf9472a92E', symObjAddr: 0x6E4, symBinAddr: 0x23DC, symSize: 0x14 }
  - { offset: 0x10478, size: 0x8, addend: 0x0, symName: __ZN4pyo33err5PyErr3new17h128ff79af108402dE, symObjAddr: 0x0, symBinAddr: 0x1CF8, symSize: 0x9C }
  - { offset: 0x104D6, size: 0x8, addend: 0x0, symName: __ZN4pyo33err5PyErr3new17h45330d62a6d2d8caE, symObjAddr: 0x9C, symBinAddr: 0x1D94, symSize: 0x9C }
  - { offset: 0x10534, size: 0x8, addend: 0x0, symName: __ZN4pyo33err5PyErr3new17h4f5ca4031303e87eE, symObjAddr: 0x138, symBinAddr: 0x1E30, symSize: 0x9C }
  - { offset: 0x10592, size: 0x8, addend: 0x0, symName: __ZN4pyo33err5PyErr3new17h6dd50f0390f060e3E, symObjAddr: 0x1D4, symBinAddr: 0x1ECC, symSize: 0xA0 }
  - { offset: 0x105F1, size: 0x8, addend: 0x0, symName: __ZN4pyo33err5PyErr3new17ha9342d234b06845fE, symObjAddr: 0x274, symBinAddr: 0x1F6C, symSize: 0x9C }
  - { offset: 0x10698, size: 0x8, addend: 0x0, symName: __ZN4core9ub_checks23maybe_is_nonoverlapping7runtime17h770f53f5140132aaE, symObjAddr: 0x0, symBinAddr: 0x23F0, symSize: 0xD8 }
  - { offset: 0x1081D, size: 0x8, addend: 0x0, symName: __ZN4core9ub_checks23maybe_is_nonoverlapping7runtime17h770f53f5140132aaE, symObjAddr: 0x0, symBinAddr: 0x23F0, symSize: 0xD8 }
  - { offset: 0x10A30, size: 0x8, addend: 0x0, symName: __ZN4core5slice20copy_from_slice_impl17hc1d60f62e2579ef4E, symObjAddr: 0x0, symBinAddr: 0x24C8, symSize: 0xAC }
  - { offset: 0x11213, size: 0x8, addend: 0x0, symName: __ZN4core5slice20copy_from_slice_impl17hc1d60f62e2579ef4E, symObjAddr: 0x0, symBinAddr: 0x24C8, symSize: 0xAC }
  - { offset: 0x12138, size: 0x8, addend: 0x0, symName: '__ZN104_$LT$core..iter..adapters..copied..Copied$LT$I$GT$$u20$as$u20$core..iter..traits..iterator..Iterator$GT$4next17h6294c692b55fb45cE', symObjAddr: 0x0, symBinAddr: 0x2574, symSize: 0x5C }
  - { offset: 0x13298, size: 0x8, addend: 0x0, symName: '__ZN104_$LT$core..iter..adapters..copied..Copied$LT$I$GT$$u20$as$u20$core..iter..traits..iterator..Iterator$GT$4next17h6294c692b55fb45cE', symObjAddr: 0x0, symBinAddr: 0x2574, symSize: 0x5C }
  - { offset: 0x1333D, size: 0x8, addend: 0x0, symName: '__ZN63_$LT$I$u20$as$u20$core..iter..traits..collect..IntoIterator$GT$9into_iter17he922176b743c882bE', symObjAddr: 0x5C, symBinAddr: 0x25D0, symSize: 0x1C }
  - { offset: 0x138EC, size: 0x8, addend: 0x0, symName: '__ZN157_$LT$$LT$alloc..vec..into_iter..IntoIter$LT$T$C$A$GT$$u20$as$u20$core..ops..drop..Drop$GT$..drop..DropGuard$LT$T$C$A$GT$$u20$as$u20$core..ops..drop..Drop$GT$4drop17h9660c16f61128534E', symObjAddr: 0x0, symBinAddr: 0x25EC, symSize: 0x6C }
  - { offset: 0x14A46, size: 0x8, addend: 0x0, symName: '__ZN4core3ptr101drop_in_place$LT$std..sys..sync..once_box..OnceBox$LT$std..sys..pal..unix..sync..mutex..Mutex$GT$$GT$17h8613f140894f4a2fE', symObjAddr: 0xC00, symBinAddr: 0x31C8, symSize: 0x24 }
  - { offset: 0x14A75, size: 0x8, addend: 0x0, symName: '__ZN4core3ptr102drop_in_place$LT$$LP$alloc..string..String$C$pyo3..instance..Py$LT$pyo3..types..any..PyAny$GT$$RP$$GT$17h2e819a8e7d14e2bdE', symObjAddr: 0xC24, symBinAddr: 0x31EC, symSize: 0x60 }
  - { offset: 0x14AA4, size: 0x8, addend: 0x0, symName: '__ZN4core3ptr105drop_in_place$LT$alloc..sync..Weak$LT$dyn$u20$platon_core..ISAProvider$C$$RF$alloc..alloc..Global$GT$$GT$17h35fec21b7414de26E', symObjAddr: 0xCA8, symBinAddr: 0x324C, symSize: 0x24 }
  - { offset: 0x14AD3, size: 0x8, addend: 0x0, symName: '__ZN4core3ptr105drop_in_place$LT$core..option..Option$LT$alloc..sync..Arc$LT$dyn$u20$platon_core..ISAProvider$GT$$GT$$GT$17h301c441acc7e6cc7E', symObjAddr: 0xCCC, symBinAddr: 0x3270, symSize: 0x44 }
  - { offset: 0x14B02, size: 0x8, addend: 0x0, symName: '__ZN4core3ptr107drop_in_place$LT$core..pin..Pin$LT$alloc..boxed..Box$LT$std..sys..pal..unix..sync..mutex..Mutex$GT$$GT$$GT$17h06bea8d032d0eed8E', symObjAddr: 0xD34, symBinAddr: 0x32B4, symSize: 0x24 }
  - { offset: 0x14B31, size: 0x8, addend: 0x0, symName: '__ZN4core3ptr107drop_in_place$LT$core..result..Result$LT$$RF$pyo3..types..dict..PyDict$C$pyo3..err..PyDowncastError$GT$$GT$17h4ca9d623a989223dE', symObjAddr: 0xD58, symBinAddr: 0x32D8, symSize: 0x48 }
  - { offset: 0x14B60, size: 0x8, addend: 0x0, symName: '__ZN4core3ptr108drop_in_place$LT$core..result..Result$LT$$LP$$RP$$C$alloc..borrow..Cow$LT$core..ffi..c_str..CStr$GT$$GT$$GT$17h08886c491ce60eedE', symObjAddr: 0xDC4, symBinAddr: 0x3320, symSize: 0x44 }
  - { offset: 0x14B8F, size: 0x8, addend: 0x0, symName: '__ZN4core3ptr112drop_in_place$LT$hashbrown..map..HashMap$LT$alloc..string..String$C$u32$C$std..hash..random..RandomState$GT$$GT$17h19bcdc2244ffe9c4E', symObjAddr: 0xE08, symBinAddr: 0x3364, symSize: 0x24 }
  - { offset: 0x14BBE, size: 0x8, addend: 0x0, symName: '__ZN4core3ptr116drop_in_place$LT$hashbrown..raw..RawTable$LT$$LP$u32$C$pyo3..instance..Py$LT$pyo3..types..any..PyAny$GT$$RP$$GT$$GT$17h0fc5d385d42bd008E', symObjAddr: 0xE2C, symBinAddr: 0x3388, symSize: 0x24 }
  - { offset: 0x14BED, size: 0x8, addend: 0x0, symName: '__ZN4core3ptr118drop_in_place$LT$core..result..Result$LT$alloc..vec..Vec$LT$$RF$pyo3..types..any..PyAny$GT$$C$pyo3..err..PyErr$GT$$GT$17h6f95f1205ef39067E', symObjAddr: 0xE50, symBinAddr: 0x33AC, symSize: 0x50 }
  - { offset: 0x14C1C, size: 0x8, addend: 0x0, symName: '__ZN4core3ptr118drop_in_place$LT$pyo3..err..PyErr..new$LT$platon..VMError$C$alloc..string..String$GT$..$u7b$$u7b$closure$u7d$$u7d$$GT$17h53d4e0d1b63ca1cdE', symObjAddr: 0xEA0, symBinAddr: 0x33FC, symSize: 0x24 }
  - { offset: 0x14C4B, size: 0x8, addend: 0x0, symName: '__ZN4core3ptr120drop_in_place$LT$std..collections..hash..map..HashMap$LT$u32$C$pyo3..instance..Py$LT$pyo3..types..any..PyAny$GT$$GT$$GT$17hb3442047773d4baaE', symObjAddr: 0xEC4, symBinAddr: 0x3420, symSize: 0x24 }
  - { offset: 0x14C7A, size: 0x8, addend: 0x0, symName: '__ZN4core3ptr122drop_in_place$LT$core..cell..UnsafeCell$LT$std..collections..hash..map..HashMap$LT$alloc..string..String$C$u32$GT$$GT$$GT$17hb39294c0e6d83144E', symObjAddr: 0xEE8, symBinAddr: 0x3444, symSize: 0x24 }
  - { offset: 0x14CA9, size: 0x8, addend: 0x0, symName: '__ZN4core3ptr131drop_in_place$LT$std..sync..poison..mutex..Mutex$LT$std..collections..hash..map..HashMap$LT$alloc..string..String$C$u32$GT$$GT$$GT$17he550fb635079f8ffE', symObjAddr: 0xF78, symBinAddr: 0x3468, symSize: 0x60 }
  - { offset: 0x14CD8, size: 0x8, addend: 0x0, symName: '__ZN4core3ptr134drop_in_place$LT$hashbrown..raw..RawTable$LT$$LP$alloc..string..String$C$pyo3..instance..Py$LT$pyo3..types..any..PyAny$GT$$RP$$GT$$GT$17h659a8b1ae72e363dE', symObjAddr: 0xFFC, symBinAddr: 0x34C8, symSize: 0x24 }
  - { offset: 0x14D07, size: 0x8, addend: 0x0, symName: '__ZN4core3ptr135drop_in_place$LT$core..option..Option$LT$core..pin..Pin$LT$alloc..boxed..Box$LT$std..sys..pal..unix..sync..mutex..Mutex$GT$$GT$$GT$$GT$17h87e5c477eaf6f88cE', symObjAddr: 0x1020, symBinAddr: 0x34EC, symSize: 0x44 }
  - { offset: 0x14D36, size: 0x8, addend: 0x0, symName: '__ZN4core3ptr136drop_in_place$LT$std..sync..poison..mutex..MutexGuard$LT$std..collections..hash..map..HashMap$LT$alloc..string..String$C$u32$GT$$GT$$GT$17h8e504f7d9997d862E', symObjAddr: 0x1064, symBinAddr: 0x3530, symSize: 0x24 }
  - { offset: 0x14D65, size: 0x8, addend: 0x0, symName: '__ZN4core3ptr138drop_in_place$LT$std..collections..hash..map..HashMap$LT$alloc..string..String$C$pyo3..instance..Py$LT$pyo3..types..any..PyAny$GT$$GT$$GT$17h66cd34a6bfda81f4E', symObjAddr: 0x1088, symBinAddr: 0x3554, symSize: 0x24 }
  - { offset: 0x14D94, size: 0x8, addend: 0x0, symName: '__ZN4core3ptr140drop_in_place$LT$hashbrown..map..HashMap$LT$u32$C$pyo3..instance..Py$LT$pyo3..types..any..PyAny$GT$$C$std..hash..random..RandomState$GT$$GT$17h4a76ca92291d0715E', symObjAddr: 0x10AC, symBinAddr: 0x3578, symSize: 0x24 }
  - { offset: 0x14DC3, size: 0x8, addend: 0x0, symName: '__ZN4core3ptr150drop_in_place$LT$core..cell..UnsafeCell$LT$std..collections..hash..map..HashMap$LT$u32$C$pyo3..instance..Py$LT$pyo3..types..any..PyAny$GT$$GT$$GT$$GT$17hcfaf45c532270a5eE', symObjAddr: 0x10D0, symBinAddr: 0x359C, symSize: 0x24 }
  - { offset: 0x14DF2, size: 0x8, addend: 0x0, symName: '__ZN4core3ptr155drop_in_place$LT$alloc..sync..Arc$LT$std..sync..poison..mutex..Mutex$LT$std..collections..hash..map..HashMap$LT$alloc..string..String$C$u32$GT$$GT$$GT$$GT$17he5e3dc5398df2a8bE', symObjAddr: 0x10F4, symBinAddr: 0x35C0, symSize: 0x24 }
  - { offset: 0x14E21, size: 0x8, addend: 0x0, symName: '__ZN4core3ptr158drop_in_place$LT$hashbrown..map..HashMap$LT$alloc..string..String$C$pyo3..instance..Py$LT$pyo3..types..any..PyAny$GT$$C$std..hash..random..RandomState$GT$$GT$17h7a95f66d58f5ab9aE', symObjAddr: 0x1118, symBinAddr: 0x35E4, symSize: 0x24 }
  - { offset: 0x14E50, size: 0x8, addend: 0x0, symName: '__ZN4core3ptr159drop_in_place$LT$std..sync..poison..mutex..Mutex$LT$std..collections..hash..map..HashMap$LT$u32$C$pyo3..instance..Py$LT$pyo3..types..any..PyAny$GT$$GT$$GT$$GT$17hfe60938b6e13772fE', symObjAddr: 0x113C, symBinAddr: 0x3608, symSize: 0x60 }
  - { offset: 0x14E7F, size: 0x8, addend: 0x0, symName: '__ZN4core3ptr160drop_in_place$LT$alloc..sync..ArcInner$LT$std..sync..poison..mutex..Mutex$LT$std..collections..hash..map..HashMap$LT$alloc..string..String$C$u32$GT$$GT$$GT$$GT$17heba5d91b2252b55fE', symObjAddr: 0x119C, symBinAddr: 0x3668, symSize: 0x24 }
  - { offset: 0x14EAE, size: 0x8, addend: 0x0, symName: '__ZN4core3ptr164drop_in_place$LT$std..sync..poison..mutex..MutexGuard$LT$std..collections..hash..map..HashMap$LT$u32$C$pyo3..instance..Py$LT$pyo3..types..any..PyAny$GT$$GT$$GT$$GT$17hd05edad4a6b796edE', symObjAddr: 0x11C0, symBinAddr: 0x368C, symSize: 0x24 }
  - { offset: 0x14EDD, size: 0x8, addend: 0x0, symName: '__ZN4core3ptr168drop_in_place$LT$core..cell..UnsafeCell$LT$std..collections..hash..map..HashMap$LT$alloc..string..String$C$pyo3..instance..Py$LT$pyo3..types..any..PyAny$GT$$GT$$GT$$GT$17hc74d1fddc7476deeE', symObjAddr: 0x11E4, symBinAddr: 0x36B0, symSize: 0x24 }
  - { offset: 0x14F0C, size: 0x8, addend: 0x0, symName: '__ZN4core3ptr174drop_in_place$LT$std..sync..poison..PoisonError$LT$std..sync..poison..mutex..MutexGuard$LT$std..collections..hash..map..HashMap$LT$alloc..string..String$C$u32$GT$$GT$$GT$$GT$17hd013c6baf2bb73e9E', symObjAddr: 0x1208, symBinAddr: 0x36D4, symSize: 0x24 }
  - { offset: 0x14F3B, size: 0x8, addend: 0x0, symName: '__ZN4core3ptr177drop_in_place$LT$std..sync..poison..mutex..Mutex$LT$std..collections..hash..map..HashMap$LT$alloc..string..String$C$pyo3..instance..Py$LT$pyo3..types..any..PyAny$GT$$GT$$GT$$GT$17h8fd71efe9703b682E', symObjAddr: 0x122C, symBinAddr: 0x36F8, symSize: 0x60 }
  - { offset: 0x14F6A, size: 0x8, addend: 0x0, symName: '__ZN4core3ptr181drop_in_place$LT$$LT$alloc..vec..into_iter..IntoIter$LT$T$C$A$GT$$u20$as$u20$core..ops..drop..Drop$GT$..drop..DropGuard$LT$$RF$pyo3..types..any..PyAny$C$alloc..alloc..Global$GT$$GT$17h37ea33964f14943dE', symObjAddr: 0x128C, symBinAddr: 0x3758, symSize: 0x24 }
  - { offset: 0x14F99, size: 0x8, addend: 0x0, symName: '__ZN4core3ptr182drop_in_place$LT$std..sync..poison..mutex..MutexGuard$LT$std..collections..hash..map..HashMap$LT$alloc..string..String$C$pyo3..instance..Py$LT$pyo3..types..any..PyAny$GT$$GT$$GT$$GT$17h1cfd6cf6f3742a6bE', symObjAddr: 0x12B0, symBinAddr: 0x377C, symSize: 0x24 }
  - { offset: 0x14FC8, size: 0x8, addend: 0x0, symName: '__ZN4core3ptr183drop_in_place$LT$alloc..sync..Arc$LT$std..sync..poison..mutex..Mutex$LT$std..collections..hash..map..HashMap$LT$u32$C$pyo3..instance..Py$LT$pyo3..types..any..PyAny$GT$$GT$$GT$$GT$$GT$17h75589bcf05db52f2E', symObjAddr: 0x12D4, symBinAddr: 0x37A0, symSize: 0x24 }
  - { offset: 0x14FF7, size: 0x8, addend: 0x0, symName: '__ZN4core3ptr183drop_in_place$LT$alloc..sync..Weak$LT$std..sync..poison..mutex..Mutex$LT$std..collections..hash..map..HashMap$LT$alloc..string..String$C$u32$GT$$GT$$C$$RF$alloc..alloc..Global$GT$$GT$17h57fea8d522e007c1E', symObjAddr: 0x12F8, symBinAddr: 0x37C4, symSize: 0x24 }
  - { offset: 0x15026, size: 0x8, addend: 0x0, symName: '__ZN4core3ptr188drop_in_place$LT$alloc..sync..ArcInner$LT$std..sync..poison..mutex..Mutex$LT$std..collections..hash..map..HashMap$LT$u32$C$pyo3..instance..Py$LT$pyo3..types..any..PyAny$GT$$GT$$GT$$GT$$GT$17h42721ff390a098b2E', symObjAddr: 0x131C, symBinAddr: 0x37E8, symSize: 0x24 }
  - { offset: 0x15055, size: 0x8, addend: 0x0, symName: '__ZN4core3ptr201drop_in_place$LT$alloc..sync..Arc$LT$std..sync..poison..mutex..Mutex$LT$std..collections..hash..map..HashMap$LT$alloc..string..String$C$pyo3..instance..Py$LT$pyo3..types..any..PyAny$GT$$GT$$GT$$GT$$GT$17h89c73ac161b45425E', symObjAddr: 0x1340, symBinAddr: 0x380C, symSize: 0x24 }
  - { offset: 0x15084, size: 0x8, addend: 0x0, symName: '__ZN4core3ptr202drop_in_place$LT$std..sync..poison..PoisonError$LT$std..sync..poison..mutex..MutexGuard$LT$std..collections..hash..map..HashMap$LT$u32$C$pyo3..instance..Py$LT$pyo3..types..any..PyAny$GT$$GT$$GT$$GT$$GT$17hfce350d0a1e83d00E', symObjAddr: 0x1364, symBinAddr: 0x3830, symSize: 0x24 }
  - { offset: 0x150B3, size: 0x8, addend: 0x0, symName: '__ZN4core3ptr206drop_in_place$LT$alloc..sync..ArcInner$LT$std..sync..poison..mutex..Mutex$LT$std..collections..hash..map..HashMap$LT$alloc..string..String$C$pyo3..instance..Py$LT$pyo3..types..any..PyAny$GT$$GT$$GT$$GT$$GT$17h4234cf8aaa53349eE', symObjAddr: 0x1388, symBinAddr: 0x3854, symSize: 0x24 }
  - { offset: 0x150E2, size: 0x8, addend: 0x0, symName: '__ZN4core3ptr211drop_in_place$LT$alloc..sync..Weak$LT$std..sync..poison..mutex..Mutex$LT$std..collections..hash..map..HashMap$LT$u32$C$pyo3..instance..Py$LT$pyo3..types..any..PyAny$GT$$GT$$GT$$C$$RF$alloc..alloc..Global$GT$$GT$17h8b9707ddd78a5b97E', symObjAddr: 0x13AC, symBinAddr: 0x3878, symSize: 0x24 }
  - { offset: 0x15111, size: 0x8, addend: 0x0, symName: '__ZN4core3ptr220drop_in_place$LT$std..sync..poison..PoisonError$LT$std..sync..poison..mutex..MutexGuard$LT$std..collections..hash..map..HashMap$LT$alloc..string..String$C$pyo3..instance..Py$LT$pyo3..types..any..PyAny$GT$$GT$$GT$$GT$$GT$17h20e5767f595aecc4E', symObjAddr: 0x13D0, symBinAddr: 0x389C, symSize: 0x24 }
  - { offset: 0x15140, size: 0x8, addend: 0x0, symName: '__ZN4core3ptr229drop_in_place$LT$alloc..sync..Weak$LT$std..sync..poison..mutex..Mutex$LT$std..collections..hash..map..HashMap$LT$alloc..string..String$C$pyo3..instance..Py$LT$pyo3..types..any..PyAny$GT$$GT$$GT$$C$$RF$alloc..alloc..Global$GT$$GT$17h5a15df669a2b41a5E', symObjAddr: 0x13F4, symBinAddr: 0x38C0, symSize: 0x24 }
  - { offset: 0x1516F, size: 0x8, addend: 0x0, symName: '__ZN4core3ptr261drop_in_place$LT$alloc..vec..Vec$LT$$RF$pyo3..types..any..PyAny$GT$..extend_trusted$LT$core..iter..adapters..map..Map$LT$core..slice..iter..Iter$LT$platon_core..Value$GT$$C$platon..core_to_py..$u7b$$u7b$closure$u7d$$u7d$$GT$$GT$..$u7b$$u7b$closure$u7d$$u7d$$GT$17h1085c696e39d5177E', symObjAddr: 0x1418, symBinAddr: 0x38E4, symSize: 0x24 }
  - { offset: 0x1519E, size: 0x8, addend: 0x0, symName: '__ZN4core3ptr261drop_in_place$LT$alloc..vec..Vec$LT$$RF$pyo3..types..any..PyAny$GT$..extend_trusted$LT$core..iter..adapters..map..Map$LT$core..slice..iter..Iter$LT$platon_core..Value$GT$$C$platon..core_to_py..$u7b$$u7b$closure$u7d$$u7d$$GT$$GT$..$u7b$$u7b$closure$u7d$$u7d$$GT$17h60b290c245bad636E', symObjAddr: 0x143C, symBinAddr: 0x3908, symSize: 0x24 }
  - { offset: 0x151CD, size: 0x8, addend: 0x0, symName: '__ZN4core3ptr277drop_in_place$LT$hashbrown..scopeguard..ScopeGuard$LT$$RF$mut$u20$hashbrown..raw..RawTable$LT$$LP$alloc..string..String$C$platon_core..Value$RP$$GT$$C$hashbrown..raw..RawTable$LT$$LP$alloc..string..String$C$platon_core..Value$RP$$GT$..clear..$u7b$$u7b$closure$u7d$$u7d$$GT$$GT$17h25280ec4a3d2fb1bE', symObjAddr: 0x1460, symBinAddr: 0x392C, symSize: 0x24 }
  - { offset: 0x151FC, size: 0x8, addend: 0x0, symName: '__ZN4core3ptr31drop_in_place$LT$platon..VM$GT$17h730fe9a125239002E', symObjAddr: 0x1484, symBinAddr: 0x3950, symSize: 0xF0 }
  - { offset: 0x1522B, size: 0x8, addend: 0x0, symName: '__ZN4core3ptr344drop_in_place$LT$core..iter..adapters..map..Map$LT$alloc..vec..into_iter..IntoIter$LT$$RF$pyo3..types..any..PyAny$GT$$C$pyo3..types..list..PyList..new$LT$$RF$pyo3..types..any..PyAny$C$alloc..vec..into_iter..IntoIter$LT$$RF$pyo3..types..any..PyAny$GT$$C$alloc..vec..Vec$LT$$RF$pyo3..types..any..PyAny$GT$$GT$..$u7b$$u7b$closure$u7d$$u7d$$GT$$GT$17h6350c2e958796d55E', symObjAddr: 0x1574, symBinAddr: 0x3A40, symSize: 0x24 }
  - { offset: 0x1525A, size: 0x8, addend: 0x0, symName: '__ZN4core3ptr36drop_in_place$LT$platon..PyValue$GT$17hf75fde73151b779dE', symObjAddr: 0x1598, symBinAddr: 0x3A64, symSize: 0x24 }
  - { offset: 0x15289, size: 0x8, addend: 0x0, symName: '__ZN4core3ptr36drop_in_place$LT$platon..VmProxy$GT$17h088f74474e6aa710E', symObjAddr: 0x15BC, symBinAddr: 0x3A88, symSize: 0x60 }
  - { offset: 0x152B8, size: 0x8, addend: 0x0, symName: '__ZN4core3ptr382drop_in_place$LT$core..iter..traits..iterator..Iterator..for_each..call$LT$$RF$pyo3..types..any..PyAny$C$alloc..vec..Vec$LT$$RF$pyo3..types..any..PyAny$GT$..extend_trusted$LT$core..iter..adapters..map..Map$LT$core..slice..iter..Iter$LT$platon_core..Value$GT$$C$platon..core_to_py..$u7b$$u7b$closure$u7d$$u7d$$GT$$GT$..$u7b$$u7b$closure$u7d$$u7d$$GT$..$u7b$$u7b$closure$u7d$$u7d$$GT$17h7784467517578615E', symObjAddr: 0x161C, symBinAddr: 0x3AE8, symSize: 0x24 }
  - { offset: 0x152E7, size: 0x8, addend: 0x0, symName: '__ZN4core3ptr382drop_in_place$LT$core..iter..traits..iterator..Iterator..for_each..call$LT$$RF$pyo3..types..any..PyAny$C$alloc..vec..Vec$LT$$RF$pyo3..types..any..PyAny$GT$..extend_trusted$LT$core..iter..adapters..map..Map$LT$core..slice..iter..Iter$LT$platon_core..Value$GT$$C$platon..core_to_py..$u7b$$u7b$closure$u7d$$u7d$$GT$$GT$..$u7b$$u7b$closure$u7d$$u7d$$GT$..$u7b$$u7b$closure$u7d$$u7d$$GT$17h9bfbc107b4dfe943E', symObjAddr: 0x1640, symBinAddr: 0x3B0C, symSize: 0x24 }
  - { offset: 0x15316, size: 0x8, addend: 0x0, symName: '__ZN4core3ptr41drop_in_place$LT$platon_core..VMState$GT$17h63d8983a802de1b6E', symObjAddr: 0x1664, symBinAddr: 0x3B30, symSize: 0x120 }
  - { offset: 0x15345, size: 0x8, addend: 0x0, symName: '__ZN4core3ptr43drop_in_place$LT$platon..NativeRegistry$GT$17h1097a4bddb12edddE', symObjAddr: 0x1784, symBinAddr: 0x3C50, symSize: 0x90 }
  - { offset: 0x15374, size: 0x8, addend: 0x0, symName: '__ZN4core3ptr53drop_in_place$LT$dyn$u20$platon_core..ISAProvider$GT$17h251d73994ec2b27cE', symObjAddr: 0x1814, symBinAddr: 0x3CE0, symSize: 0x48 }
  - { offset: 0x153A3, size: 0x8, addend: 0x0, symName: '__ZN4core3ptr56drop_in_place$LT$$LP$alloc..string..String$C$u32$RP$$GT$17h82d47005a5243f44E', symObjAddr: 0x1880, symBinAddr: 0x3D28, symSize: 0x24 }
  - { offset: 0x153D2, size: 0x8, addend: 0x0, symName: '__ZN4core3ptr570drop_in_place$LT$core..iter..adapters..map..map_fold$LT$$RF$platon_core..Value$C$$RF$pyo3..types..any..PyAny$C$$LP$$RP$$C$platon..core_to_py..$u7b$$u7b$closure$u7d$$u7d$$C$core..iter..traits..iterator..Iterator..for_each..call$LT$$RF$pyo3..types..any..PyAny$C$alloc..vec..Vec$LT$$RF$pyo3..types..any..PyAny$GT$..extend_trusted$LT$core..iter..adapters..map..Map$LT$core..slice..iter..Iter$LT$platon_core..Value$GT$$C$platon..core_to_py..$u7b$$u7b$closure$u7d$$u7d$$GT$$GT$..$u7b$$u7b$closure$u7d$$u7d$$GT$..$u7b$$u7b$closure$u7d$$u7d$$GT$..$u7b$$u7b$closure$u7d$$u7d$$GT$17h256e4c96649cc5a3E', symObjAddr: 0x18A4, symBinAddr: 0x3D4C, symSize: 0x24 }
  - { offset: 0x15401, size: 0x8, addend: 0x0, symName: '__ZN4core3ptr570drop_in_place$LT$core..iter..adapters..map..map_fold$LT$$RF$platon_core..Value$C$$RF$pyo3..types..any..PyAny$C$$LP$$RP$$C$platon..core_to_py..$u7b$$u7b$closure$u7d$$u7d$$C$core..iter..traits..iterator..Iterator..for_each..call$LT$$RF$pyo3..types..any..PyAny$C$alloc..vec..Vec$LT$$RF$pyo3..types..any..PyAny$GT$..extend_trusted$LT$core..iter..adapters..map..Map$LT$core..slice..iter..Iter$LT$platon_core..Value$GT$$C$platon..core_to_py..$u7b$$u7b$closure$u7d$$u7d$$GT$$GT$..$u7b$$u7b$closure$u7d$$u7d$$GT$..$u7b$$u7b$closure$u7d$$u7d$$GT$..$u7b$$u7b$closure$u7d$$u7d$$GT$17h4fbf2f2859cf56cdE', symObjAddr: 0x18C8, symBinAddr: 0x3D70, symSize: 0x24 }
  - { offset: 0x15430, size: 0x8, addend: 0x0, symName: '__ZN4core3ptr57drop_in_place$LT$pyo3..instance..Py$LT$platon..VM$GT$$GT$17h90974e43a25fd3a3E', symObjAddr: 0x18EC, symBinAddr: 0x3D94, symSize: 0x24 }
  - { offset: 0x1545F, size: 0x8, addend: 0x0, symName: '__ZN4core3ptr58drop_in_place$LT$pyo3..pycell..PyRef$LT$platon..VM$GT$$GT$17h834c5d80be88784fE', symObjAddr: 0x1910, symBinAddr: 0x3DB8, symSize: 0x24 }
  - { offset: 0x1548E, size: 0x8, addend: 0x0, symName: '__ZN4core3ptr58drop_in_place$LT$std..sys..sync..mutex..pthread..Mutex$GT$17h02119c5c157bb89bE', symObjAddr: 0x1934, symBinAddr: 0x3DDC, symSize: 0x5C }
  - { offset: 0x154BD, size: 0x8, addend: 0x0, symName: '__ZN4core3ptr60drop_in_place$LT$std..sys..pal..unix..sync..mutex..Mutex$GT$17h84c355f9a3617fc1E', symObjAddr: 0x1990, symBinAddr: 0x3E38, symSize: 0x24 }
  - { offset: 0x154EC, size: 0x8, addend: 0x0, symName: '__ZN4core3ptr61drop_in_place$LT$core..cell..UnsafeCell$LT$platon..VM$GT$$GT$17h9f958de8284bd6eeE', symObjAddr: 0x19B4, symBinAddr: 0x3E5C, symSize: 0x24 }
  - { offset: 0x1551B, size: 0x8, addend: 0x0, symName: '__ZN4core3ptr61drop_in_place$LT$pyo3..pycell..PyRefMut$LT$platon..VM$GT$$GT$17hda48077de7ffb18cE', symObjAddr: 0x19D8, symBinAddr: 0x3E80, symSize: 0x24 }
  - { offset: 0x1554A, size: 0x8, addend: 0x0, symName: '__ZN4core3ptr62drop_in_place$LT$pyo3..instance..Py$LT$platon..PyValue$GT$$GT$17h5d52cd01c02c94beE', symObjAddr: 0x19FC, symBinAddr: 0x3EA4, symSize: 0x24 }
  - { offset: 0x15579, size: 0x8, addend: 0x0, symName: '__ZN4core3ptr62drop_in_place$LT$pyo3..instance..Py$LT$platon..VmProxy$GT$$GT$17ha0495c50a5584136E', symObjAddr: 0x1A20, symBinAddr: 0x3EC8, symSize: 0x24 }
  - { offset: 0x155A8, size: 0x8, addend: 0x0, symName: '__ZN4core3ptr63drop_in_place$LT$pyo3..pycell..PyRef$LT$platon..PyValue$GT$$GT$17h8829f23aa127d384E', symObjAddr: 0x1A44, symBinAddr: 0x3EEC, symSize: 0x24 }
  - { offset: 0x155D7, size: 0x8, addend: 0x0, symName: '__ZN4core3ptr63drop_in_place$LT$pyo3..pycell..PyRef$LT$platon..VmProxy$GT$$GT$17h979c075b4911db79E', symObjAddr: 0x1A68, symBinAddr: 0x3F10, symSize: 0x24 }
  - { offset: 0x15606, size: 0x8, addend: 0x0, symName: '__ZN4core3ptr66drop_in_place$LT$core..cell..UnsafeCell$LT$platon..PyValue$GT$$GT$17h558f710584c0778fE', symObjAddr: 0x1A8C, symBinAddr: 0x3F34, symSize: 0x24 }
  - { offset: 0x15635, size: 0x8, addend: 0x0, symName: '__ZN4core3ptr66drop_in_place$LT$core..cell..UnsafeCell$LT$platon..VmProxy$GT$$GT$17hb1adb8914a3e3dd7E', symObjAddr: 0x1AB0, symBinAddr: 0x3F58, symSize: 0x24 }
  - { offset: 0x15664, size: 0x8, addend: 0x0, symName: '__ZN4core3ptr66drop_in_place$LT$pyo3..pycell..PyRefMut$LT$platon..VmProxy$GT$$GT$17h90b627d0f03ad696E', symObjAddr: 0x1AD4, symBinAddr: 0x3F7C, symSize: 0x24 }
  - { offset: 0x15693, size: 0x8, addend: 0x0, symName: '__ZN4core3ptr69drop_in_place$LT$pyo3..instance..Py$LT$platon..NativeRegistry$GT$$GT$17h322530b481290f38E', symObjAddr: 0x1AF8, symBinAddr: 0x3FA0, symSize: 0x24 }
  - { offset: 0x156C2, size: 0x8, addend: 0x0, symName: '__ZN4core3ptr70drop_in_place$LT$core..option..Option$LT$alloc..string..String$GT$$GT$17ha9ec2abe968487cdE', symObjAddr: 0x1B1C, symBinAddr: 0x3FC4, symSize: 0x48 }
  - { offset: 0x156F1, size: 0x8, addend: 0x0, symName: '__ZN4core3ptr70drop_in_place$LT$pyo3..pycell..PyRef$LT$platon..NativeRegistry$GT$$GT$17h803c0fea5dc5a46bE', symObjAddr: 0x1B64, symBinAddr: 0x400C, symSize: 0x24 }
  - { offset: 0x15720, size: 0x8, addend: 0x0, symName: '__ZN4core3ptr71drop_in_place$LT$alloc..vec..Vec$LT$$RF$pyo3..types..any..PyAny$GT$$GT$17hb3d941d55ac49696E', symObjAddr: 0x1B88, symBinAddr: 0x4030, symSize: 0x5C }
  - { offset: 0x1574F, size: 0x8, addend: 0x0, symName: '__ZN4core3ptr71drop_in_place$LT$core..option..Option$LT$platon..NativeRegistry$GT$$GT$17h165cb2a103a41c72E', symObjAddr: 0x1BE4, symBinAddr: 0x408C, symSize: 0x44 }
  - { offset: 0x1577E, size: 0x8, addend: 0x0, symName: '__ZN4core3ptr71drop_in_place$LT$core..result..Result$LT$f64$C$pyo3..err..PyErr$GT$$GT$17h6fa2be7d8c4c0120E', symObjAddr: 0x1C28, symBinAddr: 0x40D0, symSize: 0x40 }
  - { offset: 0x157AD, size: 0x8, addend: 0x0, symName: '__ZN4core3ptr72drop_in_place$LT$pyo3..instance..Py$LT$pyo3..types..dict..PyDict$GT$$GT$17h09e916b2b8e94be8E', symObjAddr: 0x1C68, symBinAddr: 0x4110, symSize: 0x24 }
  - { offset: 0x157DC, size: 0x8, addend: 0x0, symName: '__ZN4core3ptr72drop_in_place$LT$pyo3..instance..Py$LT$pyo3..types..list..PyList$GT$$GT$17h98fee619ace30fb5E', symObjAddr: 0x1C8C, symBinAddr: 0x4134, symSize: 0x24 }
  - { offset: 0x1580B, size: 0x8, addend: 0x0, symName: '__ZN4core3ptr73drop_in_place$LT$core..cell..UnsafeCell$LT$platon..NativeRegistry$GT$$GT$17h62911a30faac4098E', symObjAddr: 0x1CB0, symBinAddr: 0x4158, symSize: 0x24 }
  - { offset: 0x1583A, size: 0x8, addend: 0x0, symName: '__ZN4core3ptr73drop_in_place$LT$core..result..Result$LT$usize$C$pyo3..err..PyErr$GT$$GT$17h89163379c8906645E', symObjAddr: 0x1CD4, symBinAddr: 0x417C, symSize: 0x40 }
  - { offset: 0x15869, size: 0x8, addend: 0x0, symName: '__ZN4core3ptr77drop_in_place$LT$alloc..sync..Arc$LT$dyn$u20$platon_core..ISAProvider$GT$$GT$17h9d5f8eadb8151c4bE', symObjAddr: 0x1D14, symBinAddr: 0x41BC, symSize: 0x24 }
  - { offset: 0x15898, size: 0x8, addend: 0x0, symName: '__ZN4core3ptr77drop_in_place$LT$pyo3..pyclass_init..PyClassInitializer$LT$platon..VM$GT$$GT$17hcecaf500b84eaf60E', symObjAddr: 0x1D38, symBinAddr: 0x41E0, symSize: 0x24 }
  - { offset: 0x158C7, size: 0x8, addend: 0x0, symName: '__ZN4core3ptr78drop_in_place$LT$alloc..raw_vec..RawVec$LT$$RF$pyo3..types..any..PyAny$GT$$GT$17h0326c38b57e5b97dE', symObjAddr: 0x1D5C, symBinAddr: 0x4204, symSize: 0x24 }
  - { offset: 0x158F6, size: 0x8, addend: 0x0, symName: '__ZN4core3ptr81drop_in_place$LT$pyo3..pyclass_init..PyClassInitializerImpl$LT$platon..VM$GT$$GT$17h5b4ed86b746a84daE', symObjAddr: 0x1DE0, symBinAddr: 0x4228, symSize: 0x58 }
  - { offset: 0x15925, size: 0x8, addend: 0x0, symName: '__ZN4core3ptr82drop_in_place$LT$pyo3..pyclass_init..PyClassInitializer$LT$platon..PyValue$GT$$GT$17h02f42763d4bd8002E', symObjAddr: 0x1E38, symBinAddr: 0x4280, symSize: 0x24 }
  - { offset: 0x15954, size: 0x8, addend: 0x0, symName: '__ZN4core3ptr82drop_in_place$LT$pyo3..pyclass_init..PyClassInitializer$LT$platon..VmProxy$GT$$GT$17h63719ea17d2ed72fE', symObjAddr: 0x1E5C, symBinAddr: 0x42A4, symSize: 0x24 }
  - { offset: 0x15983, size: 0x8, addend: 0x0, symName: '__ZN4core3ptr83drop_in_place$LT$core..ops..control_flow..ControlFlow$LT$platon_core..Value$GT$$GT$17h94ea64cc51a84080E', symObjAddr: 0x1E80, symBinAddr: 0x42C8, symSize: 0x48 }
  - { offset: 0x159B2, size: 0x8, addend: 0x0, symName: '__ZN4core3ptr83drop_in_place$LT$core..result..Result$LT$platon..PyValue$C$pyo3..err..PyErr$GT$$GT$17hc168232e3e58e07cE', symObjAddr: 0x1EC8, symBinAddr: 0x4310, symSize: 0x50 }
  - { offset: 0x159E1, size: 0x8, addend: 0x0, symName: '__ZN4core3ptr84drop_in_place$LT$$LP$u32$C$pyo3..instance..Py$LT$pyo3..types..any..PyAny$GT$$RP$$GT$17hf7794cb5ec308251E', symObjAddr: 0x1F18, symBinAddr: 0x4360, symSize: 0x24 }
  - { offset: 0x15A10, size: 0x8, addend: 0x0, symName: '__ZN4core3ptr85drop_in_place$LT$alloc..boxed..Box$LT$std..sys..pal..unix..sync..mutex..Mutex$GT$$GT$17hba474404360326ccE', symObjAddr: 0x1F3C, symBinAddr: 0x4384, symSize: 0x60 }
  - { offset: 0x15A3F, size: 0x8, addend: 0x0, symName: '__ZN4core3ptr86drop_in_place$LT$core..option..Option$LT$pyo3..pycell..PyRef$LT$platon..VM$GT$$GT$$GT$17h7de741a4812a94a2E', symObjAddr: 0x1F9C, symBinAddr: 0x43E4, symSize: 0x44 }
  - { offset: 0x15A6E, size: 0x8, addend: 0x0, symName: '__ZN4core3ptr86drop_in_place$LT$pyo3..pyclass_init..PyClassInitializerImpl$LT$platon..PyValue$GT$$GT$17h335745b8e2011817E', symObjAddr: 0x1FE0, symBinAddr: 0x4428, symSize: 0x58 }
  - { offset: 0x15A9D, size: 0x8, addend: 0x0, symName: '__ZN4core3ptr86drop_in_place$LT$pyo3..pyclass_init..PyClassInitializerImpl$LT$platon..VmProxy$GT$$GT$17hd3face6067f4089bE', symObjAddr: 0x2038, symBinAddr: 0x4480, symSize: 0x54 }
  - { offset: 0x15ACC, size: 0x8, addend: 0x0, symName: '__ZN4core3ptr87drop_in_place$LT$alloc..vec..into_iter..IntoIter$LT$$RF$pyo3..types..any..PyAny$GT$$GT$17h737309e3da5882acE', symObjAddr: 0x208C, symBinAddr: 0x44D4, symSize: 0x24 }
  - { offset: 0x15AFB, size: 0x8, addend: 0x0, symName: '__ZN4core3ptr88drop_in_place$LT$hashbrown..raw..RawTable$LT$$LP$alloc..string..String$C$u32$RP$$GT$$GT$17h0e3f2e294648a558E', symObjAddr: 0x20B0, symBinAddr: 0x44F8, symSize: 0x24 }
  - { offset: 0x15B2A, size: 0x8, addend: 0x0, symName: '__ZN4core3ptr89drop_in_place$LT$core..option..Option$LT$pyo3..pycell..PyRefMut$LT$platon..VM$GT$$GT$$GT$17hc44458584e4cc7b1E', symObjAddr: 0x20D4, symBinAddr: 0x451C, symSize: 0x44 }
  - { offset: 0x15B59, size: 0x8, addend: 0x0, symName: '__ZN4core3ptr89drop_in_place$LT$core..result..Result$LT$alloc..string..String$C$pyo3..err..PyErr$GT$$GT$17hf601961426806effE', symObjAddr: 0x2118, symBinAddr: 0x4560, symSize: 0x50 }
  - { offset: 0x15B88, size: 0x8, addend: 0x0, symName: '__ZN4core3ptr89drop_in_place$LT$pyo3..pyclass_init..PyClassInitializer$LT$platon..NativeRegistry$GT$$GT$17hc9b848917bddfcc7E', symObjAddr: 0x2168, symBinAddr: 0x45B0, symSize: 0x24 }
  - { offset: 0x15BB7, size: 0x8, addend: 0x0, symName: '__ZN4core3ptr91drop_in_place$LT$core..option..Option$LT$pyo3..pycell..PyRef$LT$platon..PyValue$GT$$GT$$GT$17h6e062ff93ec5a9feE', symObjAddr: 0x218C, symBinAddr: 0x45D4, symSize: 0x44 }
  - { offset: 0x15BE6, size: 0x8, addend: 0x0, symName: '__ZN4core3ptr91drop_in_place$LT$core..option..Option$LT$pyo3..pycell..PyRef$LT$platon..VmProxy$GT$$GT$$GT$17h0bedcb57bbea6854E', symObjAddr: 0x21D0, symBinAddr: 0x4618, symSize: 0x44 }
  - { offset: 0x15C15, size: 0x8, addend: 0x0, symName: '__ZN4core3ptr92drop_in_place$LT$std..collections..hash..map..HashMap$LT$alloc..string..String$C$u32$GT$$GT$17had5ed48f45a4d725E', symObjAddr: 0x2214, symBinAddr: 0x465C, symSize: 0x24 }
  - { offset: 0x15C44, size: 0x8, addend: 0x0, symName: '__ZN4core3ptr93drop_in_place$LT$pyo3..pyclass_init..PyClassInitializerImpl$LT$platon..NativeRegistry$GT$$GT$17hd0cedb4b0446e0c2E', symObjAddr: 0x225C, symBinAddr: 0x4680, symSize: 0x54 }
  - { offset: 0x15C73, size: 0x8, addend: 0x0, symName: '__ZN4core3ptr94drop_in_place$LT$core..option..Option$LT$pyo3..pycell..PyRefMut$LT$platon..VmProxy$GT$$GT$$GT$17h055e573ad7b51896E', symObjAddr: 0x22B0, symBinAddr: 0x46D4, symSize: 0x44 }
  - { offset: 0x15CA2, size: 0x8, addend: 0x0, symName: '__ZN4core3ptr97drop_in_place$LT$alloc..boxed..Box$LT$pyo3..instance..Py$LT$pyo3..types..dict..PyDict$GT$$GT$$GT$17h0a56fa970c86d709E', symObjAddr: 0x2318, symBinAddr: 0x4718, symSize: 0x60 }
  - { offset: 0x15CD1, size: 0x8, addend: 0x0, symName: '__ZN4core3ptr98drop_in_place$LT$core..option..Option$LT$pyo3..pycell..PyRef$LT$platon..NativeRegistry$GT$$GT$$GT$17h942ae1e4056f9e4fE', symObjAddr: 0x2378, symBinAddr: 0x4778, symSize: 0x44 }
  - { offset: 0x172BB, size: 0x8, addend: 0x0, symName: __ZN4core3ops8function5FnMut8call_mut17ha23b4dd9b1456dadE, symObjAddr: 0x6C, symBinAddr: 0x2658, symSize: 0x38 }
  - { offset: 0x17305, size: 0x8, addend: 0x0, symName: '__ZN4core3ops8function6FnOnce40call_once$u7b$$u7b$vtable.shim$u7d$$u7d$17h090ee5dae71d5b8cE', symObjAddr: 0xA4, symBinAddr: 0x2690, symSize: 0x30 }
  - { offset: 0x17349, size: 0x8, addend: 0x0, symName: '__ZN4core3ops8function6FnOnce40call_once$u7b$$u7b$vtable.shim$u7d$$u7d$17h33f980f403e3795cE', symObjAddr: 0xD4, symBinAddr: 0x26C0, symSize: 0x38 }
  - { offset: 0x1738D, size: 0x8, addend: 0x0, symName: '__ZN4core3ops8function6FnOnce40call_once$u7b$$u7b$vtable.shim$u7d$$u7d$17h419ab0fd168a5175E', symObjAddr: 0x10C, symBinAddr: 0x26F8, symSize: 0x30 }
  - { offset: 0x173D1, size: 0x8, addend: 0x0, symName: '__ZN4core3ops8function6FnOnce40call_once$u7b$$u7b$vtable.shim$u7d$$u7d$17h47102b5d22611a64E', symObjAddr: 0x13C, symBinAddr: 0x2728, symSize: 0x38 }
  - { offset: 0x17415, size: 0x8, addend: 0x0, symName: '__ZN4core3ops8function6FnOnce40call_once$u7b$$u7b$vtable.shim$u7d$$u7d$17h57ae71c38d579651E', symObjAddr: 0x174, symBinAddr: 0x2760, symSize: 0x24 }
  - { offset: 0x17459, size: 0x8, addend: 0x0, symName: '__ZN4core3ops8function6FnOnce40call_once$u7b$$u7b$vtable.shim$u7d$$u7d$17h8800a608b4939ccdE', symObjAddr: 0x198, symBinAddr: 0x2784, symSize: 0x38 }
  - { offset: 0x1749D, size: 0x8, addend: 0x0, symName: '__ZN4core3ops8function6FnOnce40call_once$u7b$$u7b$vtable.shim$u7d$$u7d$17h923bd468481555a1E', symObjAddr: 0x1D0, symBinAddr: 0x27BC, symSize: 0x38 }
  - { offset: 0x174E1, size: 0x8, addend: 0x0, symName: '__ZN4core3ops8function6FnOnce40call_once$u7b$$u7b$vtable.shim$u7d$$u7d$17h95b2623c60648b77E', symObjAddr: 0x208, symBinAddr: 0x27F4, symSize: 0x38 }
  - { offset: 0x17525, size: 0x8, addend: 0x0, symName: '__ZN4core3ops8function6FnOnce40call_once$u7b$$u7b$vtable.shim$u7d$$u7d$17h981a87fa65d3d341E', symObjAddr: 0x240, symBinAddr: 0x282C, symSize: 0x30 }
  - { offset: 0x17569, size: 0x8, addend: 0x0, symName: '__ZN4core3ops8function6FnOnce40call_once$u7b$$u7b$vtable.shim$u7d$$u7d$17hc30f1897b148d3ccE', symObjAddr: 0x270, symBinAddr: 0x285C, symSize: 0x38 }
  - { offset: 0x175AD, size: 0x8, addend: 0x0, symName: '__ZN4core3ops8function6FnOnce40call_once$u7b$$u7b$vtable.shim$u7d$$u7d$17hc45e187608d221d7E', symObjAddr: 0x2A8, symBinAddr: 0x2894, symSize: 0x38 }
  - { offset: 0x175F1, size: 0x8, addend: 0x0, symName: '__ZN4core3ops8function6FnOnce40call_once$u7b$$u7b$vtable.shim$u7d$$u7d$17hd6495afb6146ab2dE', symObjAddr: 0x2E0, symBinAddr: 0x28CC, symSize: 0x30 }
  - { offset: 0x17635, size: 0x8, addend: 0x0, symName: '__ZN4core3ops8function6FnOnce40call_once$u7b$$u7b$vtable.shim$u7d$$u7d$17hfb01d26cf7cbcbb1E', symObjAddr: 0x310, symBinAddr: 0x28FC, symSize: 0x38 }
  - { offset: 0x17679, size: 0x8, addend: 0x0, symName: __ZN4core3ops8function6FnOnce9call_once17h181b55b2b95236c6E, symObjAddr: 0x348, symBinAddr: 0x2934, symSize: 0x4C }
  - { offset: 0x176BD, size: 0x8, addend: 0x0, symName: __ZN4core3ops8function6FnOnce9call_once17h2474a27e0c070b7bE, symObjAddr: 0x394, symBinAddr: 0x2980, symSize: 0x4C }
  - { offset: 0x17701, size: 0x8, addend: 0x0, symName: __ZN4core3ops8function6FnOnce9call_once17h2b1f0ffdca7530e0E, symObjAddr: 0x3E0, symBinAddr: 0x29CC, symSize: 0x24 }
  - { offset: 0x17745, size: 0x8, addend: 0x0, symName: __ZN4core3ops8function6FnOnce9call_once17h2efd760b9284202aE, symObjAddr: 0x404, symBinAddr: 0x29F0, symSize: 0x5C }
  - { offset: 0x17789, size: 0x8, addend: 0x0, symName: __ZN4core3ops8function6FnOnce9call_once17h3670c270836ab39cE, symObjAddr: 0x460, symBinAddr: 0x2A4C, symSize: 0x4C }
  - { offset: 0x177CD, size: 0x8, addend: 0x0, symName: __ZN4core3ops8function6FnOnce9call_once17h38342b68b1b688fcE, symObjAddr: 0x4AC, symBinAddr: 0x2A98, symSize: 0x4C }
  - { offset: 0x17811, size: 0x8, addend: 0x0, symName: __ZN4core3ops8function6FnOnce9call_once17h3c038b77c3395c08E, symObjAddr: 0x4F8, symBinAddr: 0x2AE4, symSize: 0x58 }
  - { offset: 0x17855, size: 0x8, addend: 0x0, symName: __ZN4core3ops8function6FnOnce9call_once17h41b4d274b1672d98E, symObjAddr: 0x550, symBinAddr: 0x2B3C, symSize: 0x44 }
  - { offset: 0x17895, size: 0x8, addend: 0x0, symName: __ZN4core3ops8function6FnOnce9call_once17h46599b936b60596bE, symObjAddr: 0x594, symBinAddr: 0x2B80, symSize: 0x5C }
  - { offset: 0x178D9, size: 0x8, addend: 0x0, symName: __ZN4core3ops8function6FnOnce9call_once17h5459cbcd97dfa4e6E, symObjAddr: 0x5F0, symBinAddr: 0x2BDC, symSize: 0x58 }
  - { offset: 0x1791D, size: 0x8, addend: 0x0, symName: __ZN4core3ops8function6FnOnce9call_once17h5acecc5829036063E, symObjAddr: 0x648, symBinAddr: 0x2C34, symSize: 0x44 }
  - { offset: 0x17961, size: 0x8, addend: 0x0, symName: __ZN4core3ops8function6FnOnce9call_once17h5b6494359708e2d1E, symObjAddr: 0x68C, symBinAddr: 0x2C78, symSize: 0x3C }
  - { offset: 0x179A5, size: 0x8, addend: 0x0, symName: __ZN4core3ops8function6FnOnce9call_once17h5d8ee26c6909cb85E, symObjAddr: 0x6C8, symBinAddr: 0x2CB4, symSize: 0x58 }
  - { offset: 0x179E9, size: 0x8, addend: 0x0, symName: __ZN4core3ops8function6FnOnce9call_once17h5edbe8a30b4711e1E, symObjAddr: 0x720, symBinAddr: 0x2D0C, symSize: 0x3C }
  - { offset: 0x17A2D, size: 0x8, addend: 0x0, symName: __ZN4core3ops8function6FnOnce9call_once17h671137980e4b4defE, symObjAddr: 0x75C, symBinAddr: 0x2D48, symSize: 0x54 }
  - { offset: 0x17A71, size: 0x8, addend: 0x0, symName: __ZN4core3ops8function6FnOnce9call_once17h6761545ed196e6ebE, symObjAddr: 0x7B0, symBinAddr: 0x2D9C, symSize: 0x24 }
  - { offset: 0x17AB5, size: 0x8, addend: 0x0, symName: __ZN4core3ops8function6FnOnce9call_once17h6c9ad3f058f8cd30E, symObjAddr: 0x7D4, symBinAddr: 0x2DC0, symSize: 0x44 }
  - { offset: 0x17AF5, size: 0x8, addend: 0x0, symName: __ZN4core3ops8function6FnOnce9call_once17h6f208a7d22e5f5e0E, symObjAddr: 0x818, symBinAddr: 0x2E04, symSize: 0x58 }
  - { offset: 0x17B39, size: 0x8, addend: 0x0, symName: __ZN4core3ops8function6FnOnce9call_once17h77f82ad489aadf8eE, symObjAddr: 0x870, symBinAddr: 0x2E5C, symSize: 0x44 }
  - { offset: 0x17B7D, size: 0x8, addend: 0x0, symName: __ZN4core3ops8function6FnOnce9call_once17h7d87d655daac757cE, symObjAddr: 0x8B4, symBinAddr: 0x2EA0, symSize: 0x24 }
  - { offset: 0x17BC1, size: 0x8, addend: 0x0, symName: __ZN4core3ops8function6FnOnce9call_once17h9e5e44001207b3f7E, symObjAddr: 0x8D8, symBinAddr: 0x2EC4, symSize: 0x34 }
  - { offset: 0x17C05, size: 0x8, addend: 0x0, symName: __ZN4core3ops8function6FnOnce9call_once17had84953ca2c0fd6aE, symObjAddr: 0x90C, symBinAddr: 0x2EF8, symSize: 0x24 }
  - { offset: 0x17C49, size: 0x8, addend: 0x0, symName: __ZN4core3ops8function6FnOnce9call_once17hb74be88a284af8efE, symObjAddr: 0x930, symBinAddr: 0x2F1C, symSize: 0x24 }
  - { offset: 0x17C8D, size: 0x8, addend: 0x0, symName: __ZN4core3ops8function6FnOnce9call_once17hbad730cf8c900e09E, symObjAddr: 0x954, symBinAddr: 0x2F40, symSize: 0x34 }
  - { offset: 0x17CD1, size: 0x8, addend: 0x0, symName: __ZN4core3ops8function6FnOnce9call_once17hc92a5441aea781beE, symObjAddr: 0x988, symBinAddr: 0x2F74, symSize: 0x44 }
  - { offset: 0x17D15, size: 0x8, addend: 0x0, symName: __ZN4core3ops8function6FnOnce9call_once17he55e50ea381baa9cE, symObjAddr: 0x9CC, symBinAddr: 0x2FB8, symSize: 0x3C }
  - { offset: 0x17D59, size: 0x8, addend: 0x0, symName: __ZN4core3ops8function6FnOnce9call_once17he8dcdf02f56e363bE, symObjAddr: 0xA08, symBinAddr: 0x2FF4, symSize: 0x3C }
  - { offset: 0x17D9D, size: 0x8, addend: 0x0, symName: __ZN4core3ops8function6FnOnce9call_once17hece97de6de5286c0E, symObjAddr: 0xA44, symBinAddr: 0x3030, symSize: 0x54 }
  - { offset: 0x17DE1, size: 0x8, addend: 0x0, symName: __ZN4core3ops8function6FnOnce9call_once17hf431ccda830e8abcE, symObjAddr: 0xA98, symBinAddr: 0x3084, symSize: 0x5C }
  - { offset: 0x17E25, size: 0x8, addend: 0x0, symName: __ZN4core3ops8function6FnOnce9call_once17hf6ee4374e22afdfcE, symObjAddr: 0xAF4, symBinAddr: 0x30E0, symSize: 0x4C }
  - { offset: 0x17E69, size: 0x8, addend: 0x0, symName: __ZN4core3ops8function6FnOnce9call_once17hf9adda2690c37ce4E, symObjAddr: 0xB40, symBinAddr: 0x312C, symSize: 0x58 }
  - { offset: 0x17EAD, size: 0x8, addend: 0x0, symName: __ZN4core3ops8function6FnOnce9call_once17hfeb110d768b2794eE, symObjAddr: 0xB98, symBinAddr: 0x3184, symSize: 0x44 }
  - { offset: 0x18B56, size: 0x8, addend: 0x0, symName: '__ZN69_$LT$pyo3..instance..Py$LT$T$GT$$u20$as$u20$core..ops..drop..Drop$GT$4drop17h1d584fbf5d23bf48E', symObjAddr: 0x2428, symBinAddr: 0x47BC, symSize: 0x28 }
  - { offset: 0x18B89, size: 0x8, addend: 0x0, symName: '__ZN69_$LT$pyo3..instance..Py$LT$T$GT$$u20$as$u20$core..ops..drop..Drop$GT$4drop17h641ee0c8c54f4d25E', symObjAddr: 0x2450, symBinAddr: 0x47E4, symSize: 0x28 }
  - { offset: 0x18BBC, size: 0x8, addend: 0x0, symName: '__ZN69_$LT$pyo3..instance..Py$LT$T$GT$$u20$as$u20$core..ops..drop..Drop$GT$4drop17h9fcd06290067802cE', symObjAddr: 0x2478, symBinAddr: 0x480C, symSize: 0x28 }
  - { offset: 0x18BEF, size: 0x8, addend: 0x0, symName: '__ZN69_$LT$pyo3..instance..Py$LT$T$GT$$u20$as$u20$core..ops..drop..Drop$GT$4drop17hc542802ff30094bdE', symObjAddr: 0x24A0, symBinAddr: 0x4834, symSize: 0x28 }
  - { offset: 0x18C22, size: 0x8, addend: 0x0, symName: '__ZN69_$LT$pyo3..instance..Py$LT$T$GT$$u20$as$u20$core..ops..drop..Drop$GT$4drop17hd0334c75387aedc3E', symObjAddr: 0x24C8, symBinAddr: 0x485C, symSize: 0x28 }
  - { offset: 0x18C55, size: 0x8, addend: 0x0, symName: '__ZN69_$LT$pyo3..instance..Py$LT$T$GT$$u20$as$u20$core..ops..drop..Drop$GT$4drop17hf6300876c00df30bE', symObjAddr: 0x24F0, symBinAddr: 0x4884, symSize: 0x28 }
  - { offset: 0x18E62, size: 0x8, addend: 0x0, symName: '__ZN70_$LT$pyo3..pycell..PyRef$LT$T$GT$$u20$as$u20$core..ops..drop..Drop$GT$4drop17h2153e0b0d1ac3479E', symObjAddr: 0x253C, symBinAddr: 0x48D0, symSize: 0x2C }
  - { offset: 0x18E95, size: 0x8, addend: 0x0, symName: '__ZN70_$LT$pyo3..pycell..PyRef$LT$T$GT$$u20$as$u20$core..ops..drop..Drop$GT$4drop17h27ab7b2d7c824decE', symObjAddr: 0x2568, symBinAddr: 0x48FC, symSize: 0x2C }
  - { offset: 0x18EC8, size: 0x8, addend: 0x0, symName: '__ZN70_$LT$pyo3..pycell..PyRef$LT$T$GT$$u20$as$u20$core..ops..drop..Drop$GT$4drop17h3bc0d884728917d8E', symObjAddr: 0x2594, symBinAddr: 0x4928, symSize: 0x2C }
  - { offset: 0x18EFB, size: 0x8, addend: 0x0, symName: '__ZN70_$LT$pyo3..pycell..PyRef$LT$T$GT$$u20$as$u20$core..ops..drop..Drop$GT$4drop17h4d0590d01db2a2feE', symObjAddr: 0x25C0, symBinAddr: 0x4954, symSize: 0x2C }
  - { offset: 0x18F34, size: 0x8, addend: 0x0, symName: '__ZN73_$LT$pyo3..pycell..PyRefMut$LT$T$GT$$u20$as$u20$core..ops..drop..Drop$GT$4drop17h2182f96400487b34E', symObjAddr: 0x2EAC, symBinAddr: 0x5240, symSize: 0x2C }
  - { offset: 0x18F67, size: 0x8, addend: 0x0, symName: '__ZN73_$LT$pyo3..pycell..PyRefMut$LT$T$GT$$u20$as$u20$core..ops..drop..Drop$GT$4drop17h8f44913acd6c7eb4E', symObjAddr: 0x2ED8, symBinAddr: 0x526C, symSize: 0x2C }
  - { offset: 0x19E37, size: 0x8, addend: 0x0, symName: '__ZN77_$LT$alloc..raw_vec..RawVec$LT$T$C$A$GT$$u20$as$u20$core..ops..drop..Drop$GT$4drop17hf95fe24f1ae11a6bE', symObjAddr: 0x2F04, symBinAddr: 0x5298, symSize: 0x30 }
  - { offset: 0x19F68, size: 0x8, addend: 0x0, symName: '__ZN157_$LT$$LT$alloc..vec..into_iter..IntoIter$LT$T$C$A$GT$$u20$as$u20$core..ops..drop..Drop$GT$..drop..DropGuard$LT$T$C$A$GT$$u20$as$u20$core..ops..drop..Drop$GT$4drop17h9660c16f61128534E', symObjAddr: 0x0, symBinAddr: 0x25EC, symSize: 0x6C }
  - { offset: 0x1A0D4, size: 0x8, addend: 0x0, symName: '__ZN86_$LT$alloc..vec..into_iter..IntoIter$LT$T$C$A$GT$$u20$as$u20$core..ops..drop..Drop$GT$4drop17ha7a365b902a9646eE', symObjAddr: 0x305C, symBinAddr: 0x53F0, symSize: 0x64 }
  - { offset: 0x1A1EB, size: 0x8, addend: 0x0, symName: '__ZN70_$LT$alloc..vec..Vec$LT$T$C$A$GT$$u20$as$u20$core..ops..drop..Drop$GT$4drop17h88c5f83a57fe8d0eE', symObjAddr: 0x2518, symBinAddr: 0x48AC, symSize: 0x24 }
  - { offset: 0x1A4B2, size: 0x8, addend: 0x0, symName: '__ZN71_$LT$alloc..sync..Arc$LT$T$C$A$GT$$u20$as$u20$core..ops..drop..Drop$GT$4drop17h1b955008b8de9a8fE', symObjAddr: 0x25EC, symBinAddr: 0x4980, symSize: 0x7C }
  - { offset: 0x1A58B, size: 0x8, addend: 0x0, symName: '__ZN71_$LT$alloc..sync..Arc$LT$T$C$A$GT$$u20$as$u20$core..ops..drop..Drop$GT$4drop17h621e457a282c65ecE', symObjAddr: 0x2668, symBinAddr: 0x49FC, symSize: 0x7C }
  - { offset: 0x1A664, size: 0x8, addend: 0x0, symName: '__ZN71_$LT$alloc..sync..Arc$LT$T$C$A$GT$$u20$as$u20$core..ops..drop..Drop$GT$4drop17h9c7f636b021124acE', symObjAddr: 0x26E4, symBinAddr: 0x4A78, symSize: 0x7C }
  - { offset: 0x1A73D, size: 0x8, addend: 0x0, symName: '__ZN71_$LT$alloc..sync..Arc$LT$T$C$A$GT$$u20$as$u20$core..ops..drop..Drop$GT$4drop17ha1860b09b7628568E', symObjAddr: 0x2760, symBinAddr: 0x4AF4, symSize: 0x7C }
  - { offset: 0x1AA6F, size: 0x8, addend: 0x0, symName: '__ZN72_$LT$alloc..sync..Weak$LT$T$C$A$GT$$u20$as$u20$core..ops..drop..Drop$GT$4drop17h00395a4c5fe4827eE', symObjAddr: 0x2938, symBinAddr: 0x4CCC, symSize: 0x1A8 }
  - { offset: 0x1AC3F, size: 0x8, addend: 0x0, symName: '__ZN72_$LT$alloc..sync..Weak$LT$T$C$A$GT$$u20$as$u20$core..ops..drop..Drop$GT$4drop17h3aa1aae70296bcdfE', symObjAddr: 0x2AE0, symBinAddr: 0x4E74, symSize: 0x144 }
  - { offset: 0x1AE0F, size: 0x8, addend: 0x0, symName: '__ZN72_$LT$alloc..sync..Weak$LT$T$C$A$GT$$u20$as$u20$core..ops..drop..Drop$GT$4drop17h694841aaa3a03994E', symObjAddr: 0x2C24, symBinAddr: 0x4FB8, symSize: 0x144 }
  - { offset: 0x1AFDF, size: 0x8, addend: 0x0, symName: '__ZN72_$LT$alloc..sync..Weak$LT$T$C$A$GT$$u20$as$u20$core..ops..drop..Drop$GT$4drop17h8ff1dbdb84997573E', symObjAddr: 0x2D68, symBinAddr: 0x50FC, symSize: 0x144 }
  - { offset: 0x1B2E7, size: 0x8, addend: 0x0, symName: '__ZN72_$LT$alloc..boxed..Box$LT$T$C$A$GT$$u20$as$u20$core..ops..drop..Drop$GT$4drop17hb6978b4283142914E', symObjAddr: 0x27DC, symBinAddr: 0x4B70, symSize: 0xB0 }
  - { offset: 0x1B420, size: 0x8, addend: 0x0, symName: '__ZN72_$LT$alloc..boxed..Box$LT$T$C$A$GT$$u20$as$u20$core..ops..drop..Drop$GT$4drop17hbdb1bd08dc58ed76E', symObjAddr: 0x288C, symBinAddr: 0x4C20, symSize: 0xAC }
  - { offset: 0x1B92C, size: 0x8, addend: 0x0, symName: '__ZN87_$LT$std..sync..poison..mutex..MutexGuard$LT$T$GT$$u20$as$u20$core..ops..drop..Drop$GT$4drop17h4a8069318baa7891E', symObjAddr: 0x30C0, symBinAddr: 0x5454, symSize: 0x58 }
  - { offset: 0x1B9AA, size: 0x8, addend: 0x0, symName: '__ZN87_$LT$std..sync..poison..mutex..MutexGuard$LT$T$GT$$u20$as$u20$core..ops..drop..Drop$GT$4drop17h4e2b061783947f06E', symObjAddr: 0x3118, symBinAddr: 0x54AC, symSize: 0x58 }
  - { offset: 0x1BA28, size: 0x8, addend: 0x0, symName: '__ZN87_$LT$std..sync..poison..mutex..MutexGuard$LT$T$GT$$u20$as$u20$core..ops..drop..Drop$GT$4drop17hc7ce5eaa916132c7E', symObjAddr: 0x3170, symBinAddr: 0x5504, symSize: 0x58 }
  - { offset: 0x1BD8E, size: 0x8, addend: 0x0, symName: '__ZN84_$LT$std..sys..sync..once_box..OnceBox$LT$T$GT$$u20$as$u20$core..ops..drop..Drop$GT$4drop17hb531984d1072e911E', symObjAddr: 0x2FE8, symBinAddr: 0x537C, symSize: 0x74 }
  - { offset: 0x1C16C, size: 0x8, addend: 0x0, symName: '__ZN79_$LT$hashbrown..raw..RawTable$LT$T$C$A$GT$$u20$as$u20$core..ops..drop..Drop$GT$4drop17h038989371e572199E', symObjAddr: 0x2F34, symBinAddr: 0x52C8, symSize: 0x3C }
  - { offset: 0x1C1A8, size: 0x8, addend: 0x0, symName: '__ZN79_$LT$hashbrown..raw..RawTable$LT$T$C$A$GT$$u20$as$u20$core..ops..drop..Drop$GT$4drop17h97abaf9d9bac491aE', symObjAddr: 0x2F70, symBinAddr: 0x5304, symSize: 0x3C }
  - { offset: 0x1C1E4, size: 0x8, addend: 0x0, symName: '__ZN79_$LT$hashbrown..raw..RawTable$LT$T$C$A$GT$$u20$as$u20$core..ops..drop..Drop$GT$4drop17he00d4786534dec65E', symObjAddr: 0x2FAC, symBinAddr: 0x5340, symSize: 0x3C }
  - { offset: 0x1C374, size: 0x8, addend: 0x0, symName: '__ZN88_$LT$hashbrown..scopeguard..ScopeGuard$LT$T$C$F$GT$$u20$as$u20$core..ops..drop..Drop$GT$4drop17h69f0e91ab8a11364E', symObjAddr: 0x31C8, symBinAddr: 0x555C, symSize: 0x2C }
  - { offset: 0x1DF34, size: 0x8, addend: 0x0, symName: '__ZN63_$LT$I$u20$as$u20$core..iter..traits..collect..IntoIterator$GT$9into_iter17h3f1d96ec4dfdae00E', symObjAddr: 0x0, symBinAddr: 0x5588, symSize: 0x14 }
  - { offset: 0x1E6D2, size: 0x8, addend: 0x0, symName: '__ZN63_$LT$I$u20$as$u20$core..iter..traits..collect..IntoIterator$GT$9into_iter17h3f1d96ec4dfdae00E', symObjAddr: 0x0, symBinAddr: 0x5588, symSize: 0x14 }
  - { offset: 0x1F4A7, size: 0x8, addend: 0x0, symName: '__ZN136_$LT$core..result..Result$LT$V$C$E$GT$$u20$as$u20$core..iter..traits..collect..FromIterator$LT$core..result..Result$LT$A$C$E$GT$$GT$$GT$9from_iter17h354c9ba99a5be269E', symObjAddr: 0x0, symBinAddr: 0x559C, symSize: 0x38 }
  - { offset: 0x1FC74, size: 0x8, addend: 0x0, symName: '__ZN136_$LT$core..result..Result$LT$V$C$E$GT$$u20$as$u20$core..iter..traits..collect..FromIterator$LT$core..result..Result$LT$A$C$E$GT$$GT$$GT$9from_iter17h354c9ba99a5be269E', symObjAddr: 0x0, symBinAddr: 0x559C, symSize: 0x38 }
  - { offset: 0x1FCCB, size: 0x8, addend: 0x0, symName: '__ZN136_$LT$core..result..Result$LT$V$C$E$GT$$u20$as$u20$core..iter..traits..collect..FromIterator$LT$core..result..Result$LT$A$C$E$GT$$GT$$GT$9from_iter28_$u7b$$u7b$closure$u7d$$u7d$17ha80db859a0c80b6cE', symObjAddr: 0x38, symBinAddr: 0x55D4, symSize: 0x28 }
  - { offset: 0x1FE48, size: 0x8, addend: 0x0, symName: '__ZN153_$LT$core..result..Result$LT$T$C$F$GT$$u20$as$u20$core..ops..try_trait..FromResidual$LT$core..result..Result$LT$core..convert..Infallible$C$E$GT$$GT$$GT$13from_residual17h0d835397b60b5e4dE', symObjAddr: 0x60, symBinAddr: 0x55FC, symSize: 0x48 }
  - { offset: 0x1FECD, size: 0x8, addend: 0x0, symName: '__ZN153_$LT$core..result..Result$LT$T$C$F$GT$$u20$as$u20$core..ops..try_trait..FromResidual$LT$core..result..Result$LT$core..convert..Infallible$C$E$GT$$GT$$GT$13from_residual17h14b3a33a4bfbcacfE', symObjAddr: 0xA8, symBinAddr: 0x5644, symSize: 0x58 }
  - { offset: 0x1FF35, size: 0x8, addend: 0x0, symName: '__ZN153_$LT$core..result..Result$LT$T$C$F$GT$$u20$as$u20$core..ops..try_trait..FromResidual$LT$core..result..Result$LT$core..convert..Infallible$C$E$GT$$GT$$GT$13from_residual17h1b6edd220dda2c6aE', symObjAddr: 0x100, symBinAddr: 0x569C, symSize: 0x58 }
  - { offset: 0x1FF9D, size: 0x8, addend: 0x0, symName: '__ZN153_$LT$core..result..Result$LT$T$C$F$GT$$u20$as$u20$core..ops..try_trait..FromResidual$LT$core..result..Result$LT$core..convert..Infallible$C$E$GT$$GT$$GT$13from_residual17h1bbe560a899bb478E', symObjAddr: 0x158, symBinAddr: 0x56F4, symSize: 0x58 }
  - { offset: 0x20005, size: 0x8, addend: 0x0, symName: '__ZN153_$LT$core..result..Result$LT$T$C$F$GT$$u20$as$u20$core..ops..try_trait..FromResidual$LT$core..result..Result$LT$core..convert..Infallible$C$E$GT$$GT$$GT$13from_residual17h2534e7910b59dec1E', symObjAddr: 0x1B0, symBinAddr: 0x574C, symSize: 0x40 }
  - { offset: 0x2006C, size: 0x8, addend: 0x0, symName: '__ZN153_$LT$core..result..Result$LT$T$C$F$GT$$u20$as$u20$core..ops..try_trait..FromResidual$LT$core..result..Result$LT$core..convert..Infallible$C$E$GT$$GT$$GT$13from_residual17h30a8aee2e27ed6bbE', symObjAddr: 0x1F0, symBinAddr: 0x578C, symSize: 0x48 }
  - { offset: 0x200F1, size: 0x8, addend: 0x0, symName: '__ZN153_$LT$core..result..Result$LT$T$C$F$GT$$u20$as$u20$core..ops..try_trait..FromResidual$LT$core..result..Result$LT$core..convert..Infallible$C$E$GT$$GT$$GT$13from_residual17h38815da29c91a3a6E', symObjAddr: 0x238, symBinAddr: 0x57D4, symSize: 0x40 }
  - { offset: 0x20158, size: 0x8, addend: 0x0, symName: '__ZN153_$LT$core..result..Result$LT$T$C$F$GT$$u20$as$u20$core..ops..try_trait..FromResidual$LT$core..result..Result$LT$core..convert..Infallible$C$E$GT$$GT$$GT$13from_residual17h39649993c860ae1dE', symObjAddr: 0x278, symBinAddr: 0x5814, symSize: 0x58 }
  - { offset: 0x201C0, size: 0x8, addend: 0x0, symName: '__ZN153_$LT$core..result..Result$LT$T$C$F$GT$$u20$as$u20$core..ops..try_trait..FromResidual$LT$core..result..Result$LT$core..convert..Infallible$C$E$GT$$GT$$GT$13from_residual17h41630636e50be6efE', symObjAddr: 0x2D0, symBinAddr: 0x586C, symSize: 0x48 }
  - { offset: 0x20245, size: 0x8, addend: 0x0, symName: '__ZN153_$LT$core..result..Result$LT$T$C$F$GT$$u20$as$u20$core..ops..try_trait..FromResidual$LT$core..result..Result$LT$core..convert..Infallible$C$E$GT$$GT$$GT$13from_residual17h48ba79b361f22c5eE', symObjAddr: 0x318, symBinAddr: 0x58B4, symSize: 0x58 }
  - { offset: 0x202AD, size: 0x8, addend: 0x0, symName: '__ZN153_$LT$core..result..Result$LT$T$C$F$GT$$u20$as$u20$core..ops..try_trait..FromResidual$LT$core..result..Result$LT$core..convert..Infallible$C$E$GT$$GT$$GT$13from_residual17h492d41c6be5d4fd1E', symObjAddr: 0x370, symBinAddr: 0x590C, symSize: 0x48 }
  - { offset: 0x20332, size: 0x8, addend: 0x0, symName: '__ZN153_$LT$core..result..Result$LT$T$C$F$GT$$u20$as$u20$core..ops..try_trait..FromResidual$LT$core..result..Result$LT$core..convert..Infallible$C$E$GT$$GT$$GT$13from_residual17h4a501356272af8f1E', symObjAddr: 0x3B8, symBinAddr: 0x5954, symSize: 0x48 }
  - { offset: 0x203B7, size: 0x8, addend: 0x0, symName: '__ZN153_$LT$core..result..Result$LT$T$C$F$GT$$u20$as$u20$core..ops..try_trait..FromResidual$LT$core..result..Result$LT$core..convert..Infallible$C$E$GT$$GT$$GT$13from_residual17h4db4b3b22668e2a8E', symObjAddr: 0x400, symBinAddr: 0x599C, symSize: 0x58 }
  - { offset: 0x2041F, size: 0x8, addend: 0x0, symName: '__ZN153_$LT$core..result..Result$LT$T$C$F$GT$$u20$as$u20$core..ops..try_trait..FromResidual$LT$core..result..Result$LT$core..convert..Infallible$C$E$GT$$GT$$GT$13from_residual17h52e98bf42c9be691E', symObjAddr: 0x458, symBinAddr: 0x59F4, symSize: 0x48 }
  - { offset: 0x204A4, size: 0x8, addend: 0x0, symName: '__ZN153_$LT$core..result..Result$LT$T$C$F$GT$$u20$as$u20$core..ops..try_trait..FromResidual$LT$core..result..Result$LT$core..convert..Infallible$C$E$GT$$GT$$GT$13from_residual17h6328657a2793b756E', symObjAddr: 0x4A0, symBinAddr: 0x5A3C, symSize: 0x58 }
  - { offset: 0x2050C, size: 0x8, addend: 0x0, symName: '__ZN153_$LT$core..result..Result$LT$T$C$F$GT$$u20$as$u20$core..ops..try_trait..FromResidual$LT$core..result..Result$LT$core..convert..Infallible$C$E$GT$$GT$$GT$13from_residual17h697966ee8b242e6dE', symObjAddr: 0x4F8, symBinAddr: 0x5A94, symSize: 0x58 }
  - { offset: 0x20574, size: 0x8, addend: 0x0, symName: '__ZN153_$LT$core..result..Result$LT$T$C$F$GT$$u20$as$u20$core..ops..try_trait..FromResidual$LT$core..result..Result$LT$core..convert..Infallible$C$E$GT$$GT$$GT$13from_residual17h86e9ac743901f62bE', symObjAddr: 0x550, symBinAddr: 0x5AEC, symSize: 0x48 }
  - { offset: 0x205F9, size: 0x8, addend: 0x0, symName: '__ZN153_$LT$core..result..Result$LT$T$C$F$GT$$u20$as$u20$core..ops..try_trait..FromResidual$LT$core..result..Result$LT$core..convert..Infallible$C$E$GT$$GT$$GT$13from_residual17h87826ffb6b30b073E', symObjAddr: 0x598, symBinAddr: 0x5B34, symSize: 0x48 }
  - { offset: 0x2067E, size: 0x8, addend: 0x0, symName: '__ZN153_$LT$core..result..Result$LT$T$C$F$GT$$u20$as$u20$core..ops..try_trait..FromResidual$LT$core..result..Result$LT$core..convert..Infallible$C$E$GT$$GT$$GT$13from_residual17h8868a5c031ace5cfE', symObjAddr: 0x5E0, symBinAddr: 0x5B7C, symSize: 0x48 }
  - { offset: 0x20703, size: 0x8, addend: 0x0, symName: '__ZN153_$LT$core..result..Result$LT$T$C$F$GT$$u20$as$u20$core..ops..try_trait..FromResidual$LT$core..result..Result$LT$core..convert..Infallible$C$E$GT$$GT$$GT$13from_residual17h88da2ffd61c8158dE', symObjAddr: 0x628, symBinAddr: 0x5BC4, symSize: 0x48 }
  - { offset: 0x20788, size: 0x8, addend: 0x0, symName: '__ZN153_$LT$core..result..Result$LT$T$C$F$GT$$u20$as$u20$core..ops..try_trait..FromResidual$LT$core..result..Result$LT$core..convert..Infallible$C$E$GT$$GT$$GT$13from_residual17h9c92b804e1a2198bE', symObjAddr: 0x670, symBinAddr: 0x5C0C, symSize: 0x48 }
  - { offset: 0x2080D, size: 0x8, addend: 0x0, symName: '__ZN153_$LT$core..result..Result$LT$T$C$F$GT$$u20$as$u20$core..ops..try_trait..FromResidual$LT$core..result..Result$LT$core..convert..Infallible$C$E$GT$$GT$$GT$13from_residual17ha776af6d31bf2e8dE', symObjAddr: 0x6B8, symBinAddr: 0x5C54, symSize: 0x48 }
  - { offset: 0x20892, size: 0x8, addend: 0x0, symName: '__ZN153_$LT$core..result..Result$LT$T$C$F$GT$$u20$as$u20$core..ops..try_trait..FromResidual$LT$core..result..Result$LT$core..convert..Infallible$C$E$GT$$GT$$GT$13from_residual17hbff7c08b6fda029dE', symObjAddr: 0x700, symBinAddr: 0x5C9C, symSize: 0x48 }
  - { offset: 0x20917, size: 0x8, addend: 0x0, symName: '__ZN153_$LT$core..result..Result$LT$T$C$F$GT$$u20$as$u20$core..ops..try_trait..FromResidual$LT$core..result..Result$LT$core..convert..Infallible$C$E$GT$$GT$$GT$13from_residual17hc7e4ef1e16ee7a7eE', symObjAddr: 0x748, symBinAddr: 0x5CE4, symSize: 0x48 }
  - { offset: 0x2099C, size: 0x8, addend: 0x0, symName: '__ZN153_$LT$core..result..Result$LT$T$C$F$GT$$u20$as$u20$core..ops..try_trait..FromResidual$LT$core..result..Result$LT$core..convert..Infallible$C$E$GT$$GT$$GT$13from_residual17hcc690b12532f9affE', symObjAddr: 0x790, symBinAddr: 0x5D2C, symSize: 0x48 }
  - { offset: 0x20A21, size: 0x8, addend: 0x0, symName: '__ZN153_$LT$core..result..Result$LT$T$C$F$GT$$u20$as$u20$core..ops..try_trait..FromResidual$LT$core..result..Result$LT$core..convert..Infallible$C$E$GT$$GT$$GT$13from_residual17he2181e8b22cdf0c0E', symObjAddr: 0x7D8, symBinAddr: 0x5D74, symSize: 0x48 }
  - { offset: 0x20AA6, size: 0x8, addend: 0x0, symName: '__ZN153_$LT$core..result..Result$LT$T$C$F$GT$$u20$as$u20$core..ops..try_trait..FromResidual$LT$core..result..Result$LT$core..convert..Infallible$C$E$GT$$GT$$GT$13from_residual17he77ec44fe5fc487fE', symObjAddr: 0x820, symBinAddr: 0x5DBC, symSize: 0x58 }
  - { offset: 0x20B0E, size: 0x8, addend: 0x0, symName: '__ZN153_$LT$core..result..Result$LT$T$C$F$GT$$u20$as$u20$core..ops..try_trait..FromResidual$LT$core..result..Result$LT$core..convert..Infallible$C$E$GT$$GT$$GT$13from_residual17heefb216060373964E', symObjAddr: 0x878, symBinAddr: 0x5E14, symSize: 0x58 }
  - { offset: 0x2283E, size: 0x8, addend: 0x0, symName: '__ZN79_$LT$core..result..Result$LT$T$C$E$GT$$u20$as$u20$core..ops..try_trait..Try$GT$11from_output17hed9edec4e7b02b62E', symObjAddr: 0x1A54, symBinAddr: 0x6FF0, symSize: 0x18 }
  - { offset: 0x2287E, size: 0x8, addend: 0x0, symName: '__ZN79_$LT$core..result..Result$LT$T$C$E$GT$$u20$as$u20$core..ops..try_trait..Try$GT$6branch17h2798a62c0ad08054E', symObjAddr: 0x1A6C, symBinAddr: 0x7008, symSize: 0x80 }
  - { offset: 0x228FC, size: 0x8, addend: 0x0, symName: '__ZN79_$LT$core..result..Result$LT$T$C$E$GT$$u20$as$u20$core..ops..try_trait..Try$GT$6branch17h31ba03004a354773E', symObjAddr: 0x1AEC, symBinAddr: 0x7088, symSize: 0x94 }
  - { offset: 0x22979, size: 0x8, addend: 0x0, symName: '__ZN79_$LT$core..result..Result$LT$T$C$E$GT$$u20$as$u20$core..ops..try_trait..Try$GT$6branch17h3464d80f387fc1d7E', symObjAddr: 0x1B80, symBinAddr: 0x711C, symSize: 0x80 }
  - { offset: 0x229F7, size: 0x8, addend: 0x0, symName: '__ZN79_$LT$core..result..Result$LT$T$C$E$GT$$u20$as$u20$core..ops..try_trait..Try$GT$6branch17h3ec2b242bfde2a05E', symObjAddr: 0x1C00, symBinAddr: 0x719C, symSize: 0x94 }
  - { offset: 0x22A74, size: 0x8, addend: 0x0, symName: '__ZN79_$LT$core..result..Result$LT$T$C$E$GT$$u20$as$u20$core..ops..try_trait..Try$GT$6branch17h41a1dfbc6d7aab44E', symObjAddr: 0x1C94, symBinAddr: 0x7230, symSize: 0x80 }
  - { offset: 0x22AF2, size: 0x8, addend: 0x0, symName: '__ZN79_$LT$core..result..Result$LT$T$C$E$GT$$u20$as$u20$core..ops..try_trait..Try$GT$6branch17h49822059bfb26775E', symObjAddr: 0x1D14, symBinAddr: 0x72B0, symSize: 0x80 }
  - { offset: 0x22B70, size: 0x8, addend: 0x0, symName: '__ZN79_$LT$core..result..Result$LT$T$C$E$GT$$u20$as$u20$core..ops..try_trait..Try$GT$6branch17h4a5f715ac48601baE', symObjAddr: 0x1D94, symBinAddr: 0x7330, symSize: 0x94 }
  - { offset: 0x22BED, size: 0x8, addend: 0x0, symName: '__ZN79_$LT$core..result..Result$LT$T$C$E$GT$$u20$as$u20$core..ops..try_trait..Try$GT$6branch17h4a9e266ad75ea589E', symObjAddr: 0x1E28, symBinAddr: 0x73C4, symSize: 0x8C }
  - { offset: 0x22C6B, size: 0x8, addend: 0x0, symName: '__ZN79_$LT$core..result..Result$LT$T$C$E$GT$$u20$as$u20$core..ops..try_trait..Try$GT$6branch17h565fdb0ae2ca5800E', symObjAddr: 0x1EB4, symBinAddr: 0x7450, symSize: 0x88 }
  - { offset: 0x22CE9, size: 0x8, addend: 0x0, symName: '__ZN79_$LT$core..result..Result$LT$T$C$E$GT$$u20$as$u20$core..ops..try_trait..Try$GT$6branch17h67934f43f6e8b01bE', symObjAddr: 0x1F3C, symBinAddr: 0x74D8, symSize: 0x80 }
  - { offset: 0x22D67, size: 0x8, addend: 0x0, symName: '__ZN79_$LT$core..result..Result$LT$T$C$E$GT$$u20$as$u20$core..ops..try_trait..Try$GT$6branch17h6c92cf691ce519ffE', symObjAddr: 0x1FBC, symBinAddr: 0x7558, symSize: 0x80 }
  - { offset: 0x22DE5, size: 0x8, addend: 0x0, symName: '__ZN79_$LT$core..result..Result$LT$T$C$E$GT$$u20$as$u20$core..ops..try_trait..Try$GT$6branch17h703dac96d898a9f9E', symObjAddr: 0x203C, symBinAddr: 0x75D8, symSize: 0x80 }
  - { offset: 0x22E63, size: 0x8, addend: 0x0, symName: '__ZN79_$LT$core..result..Result$LT$T$C$E$GT$$u20$as$u20$core..ops..try_trait..Try$GT$6branch17h72ba4bb68f21324aE', symObjAddr: 0x20BC, symBinAddr: 0x7658, symSize: 0x80 }
  - { offset: 0x22EE1, size: 0x8, addend: 0x0, symName: '__ZN79_$LT$core..result..Result$LT$T$C$E$GT$$u20$as$u20$core..ops..try_trait..Try$GT$6branch17h734ce83ea3319cb6E', symObjAddr: 0x213C, symBinAddr: 0x76D8, symSize: 0x88 }
  - { offset: 0x22F5F, size: 0x8, addend: 0x0, symName: '__ZN79_$LT$core..result..Result$LT$T$C$E$GT$$u20$as$u20$core..ops..try_trait..Try$GT$6branch17h74ea8156d6497811E', symObjAddr: 0x21C4, symBinAddr: 0x7760, symSize: 0x80 }
  - { offset: 0x22FDD, size: 0x8, addend: 0x0, symName: '__ZN79_$LT$core..result..Result$LT$T$C$E$GT$$u20$as$u20$core..ops..try_trait..Try$GT$6branch17h79207a783dbd509fE', symObjAddr: 0x2244, symBinAddr: 0x77E0, symSize: 0x80 }
  - { offset: 0x2305B, size: 0x8, addend: 0x0, symName: '__ZN79_$LT$core..result..Result$LT$T$C$E$GT$$u20$as$u20$core..ops..try_trait..Try$GT$6branch17h7928e2ac43ed78ccE', symObjAddr: 0x22C4, symBinAddr: 0x7860, symSize: 0x80 }
  - { offset: 0x230D9, size: 0x8, addend: 0x0, symName: '__ZN79_$LT$core..result..Result$LT$T$C$E$GT$$u20$as$u20$core..ops..try_trait..Try$GT$6branch17h795ba5e2d9863ab3E', symObjAddr: 0x2344, symBinAddr: 0x78E0, symSize: 0x70 }
  - { offset: 0x23157, size: 0x8, addend: 0x0, symName: '__ZN79_$LT$core..result..Result$LT$T$C$E$GT$$u20$as$u20$core..ops..try_trait..Try$GT$6branch17h7caa12215bf26a0fE', symObjAddr: 0x23B4, symBinAddr: 0x7950, symSize: 0x94 }
  - { offset: 0x231D4, size: 0x8, addend: 0x0, symName: '__ZN79_$LT$core..result..Result$LT$T$C$E$GT$$u20$as$u20$core..ops..try_trait..Try$GT$6branch17h7e3bc6d2f39ab71cE', symObjAddr: 0x2448, symBinAddr: 0x79E4, symSize: 0x94 }
  - { offset: 0x23251, size: 0x8, addend: 0x0, symName: '__ZN79_$LT$core..result..Result$LT$T$C$E$GT$$u20$as$u20$core..ops..try_trait..Try$GT$6branch17h81fe5e246b08b277E', symObjAddr: 0x24DC, symBinAddr: 0x7A78, symSize: 0x88 }
  - { offset: 0x232CF, size: 0x8, addend: 0x0, symName: '__ZN79_$LT$core..result..Result$LT$T$C$E$GT$$u20$as$u20$core..ops..try_trait..Try$GT$6branch17h910827981ad7f7ebE', symObjAddr: 0x2564, symBinAddr: 0x7B00, symSize: 0x94 }
  - { offset: 0x2334C, size: 0x8, addend: 0x0, symName: '__ZN79_$LT$core..result..Result$LT$T$C$E$GT$$u20$as$u20$core..ops..try_trait..Try$GT$6branch17h91d658db54f7ff94E', symObjAddr: 0x25F8, symBinAddr: 0x7B94, symSize: 0x80 }
  - { offset: 0x233CA, size: 0x8, addend: 0x0, symName: '__ZN79_$LT$core..result..Result$LT$T$C$E$GT$$u20$as$u20$core..ops..try_trait..Try$GT$6branch17h9cc9a21fb96bb997E', symObjAddr: 0x2678, symBinAddr: 0x7C14, symSize: 0x44 }
  - { offset: 0x23446, size: 0x8, addend: 0x0, symName: '__ZN79_$LT$core..result..Result$LT$T$C$E$GT$$u20$as$u20$core..ops..try_trait..Try$GT$6branch17h9d4275f0a7b5dba8E', symObjAddr: 0x26BC, symBinAddr: 0x7C58, symSize: 0x94 }
  - { offset: 0x234C3, size: 0x8, addend: 0x0, symName: '__ZN79_$LT$core..result..Result$LT$T$C$E$GT$$u20$as$u20$core..ops..try_trait..Try$GT$6branch17ha2133ee914e8b705E', symObjAddr: 0x2750, symBinAddr: 0x7CEC, symSize: 0x80 }
  - { offset: 0x23541, size: 0x8, addend: 0x0, symName: '__ZN79_$LT$core..result..Result$LT$T$C$E$GT$$u20$as$u20$core..ops..try_trait..Try$GT$6branch17ha37140296523efb0E', symObjAddr: 0x27D0, symBinAddr: 0x7D6C, symSize: 0x80 }
  - { offset: 0x235BF, size: 0x8, addend: 0x0, symName: '__ZN79_$LT$core..result..Result$LT$T$C$E$GT$$u20$as$u20$core..ops..try_trait..Try$GT$6branch17hb3fa62e53e3d78dfE', symObjAddr: 0x2850, symBinAddr: 0x7DEC, symSize: 0x80 }
  - { offset: 0x2363D, size: 0x8, addend: 0x0, symName: '__ZN79_$LT$core..result..Result$LT$T$C$E$GT$$u20$as$u20$core..ops..try_trait..Try$GT$6branch17hba67d62ef97d07a7E', symObjAddr: 0x28D0, symBinAddr: 0x7E6C, symSize: 0xC4 }
  - { offset: 0x236BB, size: 0x8, addend: 0x0, symName: '__ZN79_$LT$core..result..Result$LT$T$C$E$GT$$u20$as$u20$core..ops..try_trait..Try$GT$6branch17hc0b9dc7af519f943E', symObjAddr: 0x2994, symBinAddr: 0x7F30, symSize: 0x80 }
  - { offset: 0x23739, size: 0x8, addend: 0x0, symName: '__ZN79_$LT$core..result..Result$LT$T$C$E$GT$$u20$as$u20$core..ops..try_trait..Try$GT$6branch17hc2d0ea1fc6054d52E', symObjAddr: 0x2A14, symBinAddr: 0x7FB0, symSize: 0x94 }
  - { offset: 0x237B6, size: 0x8, addend: 0x0, symName: '__ZN79_$LT$core..result..Result$LT$T$C$E$GT$$u20$as$u20$core..ops..try_trait..Try$GT$6branch17hc73fe7cd7624d463E', symObjAddr: 0x2AA8, symBinAddr: 0x8044, symSize: 0x88 }
  - { offset: 0x23834, size: 0x8, addend: 0x0, symName: '__ZN79_$LT$core..result..Result$LT$T$C$E$GT$$u20$as$u20$core..ops..try_trait..Try$GT$6branch17hca64664052cf53ffE', symObjAddr: 0x2B30, symBinAddr: 0x80CC, symSize: 0x80 }
  - { offset: 0x238B2, size: 0x8, addend: 0x0, symName: '__ZN79_$LT$core..result..Result$LT$T$C$E$GT$$u20$as$u20$core..ops..try_trait..Try$GT$6branch17hd5cec97d2cdc815fE', symObjAddr: 0x2BB0, symBinAddr: 0x814C, symSize: 0x80 }
  - { offset: 0x23930, size: 0x8, addend: 0x0, symName: '__ZN79_$LT$core..result..Result$LT$T$C$E$GT$$u20$as$u20$core..ops..try_trait..Try$GT$6branch17hdc320dcffd5190a6E', symObjAddr: 0x2C30, symBinAddr: 0x81CC, symSize: 0x80 }
  - { offset: 0x239AE, size: 0x8, addend: 0x0, symName: '__ZN79_$LT$core..result..Result$LT$T$C$E$GT$$u20$as$u20$core..ops..try_trait..Try$GT$6branch17he1d7158666616899E', symObjAddr: 0x2CB0, symBinAddr: 0x824C, symSize: 0x44 }
  - { offset: 0x23A2A, size: 0x8, addend: 0x0, symName: '__ZN79_$LT$core..result..Result$LT$T$C$E$GT$$u20$as$u20$core..ops..try_trait..Try$GT$6branch17he8a6835f162eee1bE', symObjAddr: 0x2CF4, symBinAddr: 0x8290, symSize: 0x80 }
  - { offset: 0x23AA8, size: 0x8, addend: 0x0, symName: '__ZN79_$LT$core..result..Result$LT$T$C$E$GT$$u20$as$u20$core..ops..try_trait..Try$GT$6branch17hea4f78fa307e1449E', symObjAddr: 0x2D74, symBinAddr: 0x8310, symSize: 0x80 }
  - { offset: 0x23B26, size: 0x8, addend: 0x0, symName: '__ZN79_$LT$core..result..Result$LT$T$C$E$GT$$u20$as$u20$core..ops..try_trait..Try$GT$6branch17hec87796e96bab3a1E', symObjAddr: 0x2DF4, symBinAddr: 0x8390, symSize: 0x88 }
  - { offset: 0x23BA4, size: 0x8, addend: 0x0, symName: '__ZN79_$LT$core..result..Result$LT$T$C$E$GT$$u20$as$u20$core..ops..try_trait..Try$GT$6branch17hef501f7fe3a66397E', symObjAddr: 0x2E7C, symBinAddr: 0x8418, symSize: 0x80 }
  - { offset: 0x23C22, size: 0x8, addend: 0x0, symName: '__ZN79_$LT$core..result..Result$LT$T$C$E$GT$$u20$as$u20$core..ops..try_trait..Try$GT$6branch17hfaea1050699170f7E', symObjAddr: 0x2EFC, symBinAddr: 0x8498, symSize: 0x80 }
  - { offset: 0x23CA0, size: 0x8, addend: 0x0, symName: '__ZN79_$LT$core..result..Result$LT$T$C$E$GT$$u20$as$u20$core..ops..try_trait..Try$GT$6branch17hfee83e481e8da554E', symObjAddr: 0x2F7C, symBinAddr: 0x8518, symSize: 0x80 }
  - { offset: 0x23D1E, size: 0x8, addend: 0x0, symName: '__ZN79_$LT$core..result..Result$LT$T$C$E$GT$$u20$as$u20$core..ops..try_trait..Try$GT$6branch17hfef50613fd6a8f28E', symObjAddr: 0x2FFC, symBinAddr: 0x8598, symSize: 0x94 }
  - { offset: 0x27D0E, size: 0x8, addend: 0x0, symName: '__ZN88_$LT$core..result..Result$LT$T$C$E$GT$$u20$as$u20$pyo3..impl_..wrap..OkWrap$LT$T$GT$$GT$4wrap17h0bc55db825dac93eE', symObjAddr: 0x3090, symBinAddr: 0x862C, symSize: 0x44 }
  - { offset: 0x27D66, size: 0x8, addend: 0x0, symName: '__ZN88_$LT$core..result..Result$LT$T$C$E$GT$$u20$as$u20$pyo3..impl_..wrap..OkWrap$LT$T$GT$$GT$4wrap17h36cb3ad7e474e556E', symObjAddr: 0x30D4, symBinAddr: 0x8670, symSize: 0x44 }
  - { offset: 0x284B1, size: 0x8, addend: 0x0, symName: '__ZN99_$LT$core..result..Result$LT$T$C$E$GT$$u20$as$u20$pyo3..callback..IntoPyCallbackOutput$LT$U$GT$$GT$7convert17h0d3d4093364d0a19E', symObjAddr: 0x3118, symBinAddr: 0x86B4, symSize: 0xB8 }
  - { offset: 0x2854E, size: 0x8, addend: 0x0, symName: '__ZN99_$LT$core..result..Result$LT$T$C$E$GT$$u20$as$u20$pyo3..callback..IntoPyCallbackOutput$LT$U$GT$$GT$7convert17h426ea648b87358eaE', symObjAddr: 0x31D0, symBinAddr: 0x876C, symSize: 0x90 }
  - { offset: 0x285E9, size: 0x8, addend: 0x0, symName: '__ZN99_$LT$core..result..Result$LT$T$C$E$GT$$u20$as$u20$pyo3..callback..IntoPyCallbackOutput$LT$U$GT$$GT$7convert17ha99b9a3da3e90b16E', symObjAddr: 0x3260, symBinAddr: 0x87FC, symSize: 0x9C }
  - { offset: 0x28684, size: 0x8, addend: 0x0, symName: '__ZN99_$LT$core..result..Result$LT$T$C$E$GT$$u20$as$u20$pyo3..callback..IntoPyCallbackOutput$LT$U$GT$$GT$7convert17hb6d01d84e4b3ddcaE', symObjAddr: 0x32FC, symBinAddr: 0x8898, symSize: 0x90 }
  - { offset: 0x2962A, size: 0x8, addend: 0x0, symName: '__ZN4core6result19Result$LT$T$C$E$GT$14unwrap_or_else17h10221fb0648cf773E', symObjAddr: 0x8D0, symBinAddr: 0x5E6C, symSize: 0x7C }
  - { offset: 0x29696, size: 0x8, addend: 0x0, symName: '__ZN4core6result19Result$LT$T$C$E$GT$14unwrap_or_else17h22319d695753ff76E', symObjAddr: 0x94C, symBinAddr: 0x5EE8, symSize: 0x7C }
  - { offset: 0x29730, size: 0x8, addend: 0x0, symName: '__ZN4core6result19Result$LT$T$C$E$GT$14unwrap_or_else17h3f6e9d587eeaeca2E', symObjAddr: 0x9C8, symBinAddr: 0x5F64, symSize: 0x70 }
  - { offset: 0x2979C, size: 0x8, addend: 0x0, symName: '__ZN4core6result19Result$LT$T$C$E$GT$14unwrap_or_else17h604e3e03a42804fdE', symObjAddr: 0xA38, symBinAddr: 0x5FD4, symSize: 0x7C }
  - { offset: 0x29808, size: 0x8, addend: 0x0, symName: '__ZN4core6result19Result$LT$T$C$E$GT$14unwrap_or_else17h9a85087550b1a7deE', symObjAddr: 0xAB4, symBinAddr: 0x6050, symSize: 0x7C }
  - { offset: 0x29E32, size: 0x8, addend: 0x0, symName: '__ZN4core6result19Result$LT$T$C$E$GT$3map17h0042e386f243ed5bE', symObjAddr: 0xB30, symBinAddr: 0x60CC, symSize: 0x80 }
  - { offset: 0x29EDF, size: 0x8, addend: 0x0, symName: '__ZN4core6result19Result$LT$T$C$E$GT$3map17h04753fa7fcfa2f08E', symObjAddr: 0xBB0, symBinAddr: 0x614C, symSize: 0x4C }
  - { offset: 0x29F7E, size: 0x8, addend: 0x0, symName: '__ZN4core6result19Result$LT$T$C$E$GT$3map17h0dbcae3b594d4b0fE', symObjAddr: 0xBFC, symBinAddr: 0x6198, symSize: 0x4C }
  - { offset: 0x2A01D, size: 0x8, addend: 0x0, symName: '__ZN4core6result19Result$LT$T$C$E$GT$3map17h125c84696afa6b79E', symObjAddr: 0xC48, symBinAddr: 0x61E4, symSize: 0x80 }
  - { offset: 0x2A0B0, size: 0x8, addend: 0x0, symName: '__ZN4core6result19Result$LT$T$C$E$GT$3map17h2ab624cf0ef16d41E', symObjAddr: 0xCC8, symBinAddr: 0x6264, symSize: 0x8C }
  - { offset: 0x2A143, size: 0x8, addend: 0x0, symName: '__ZN4core6result19Result$LT$T$C$E$GT$3map17h3747bbc115e59decE', symObjAddr: 0xD54, symBinAddr: 0x62F0, symSize: 0x4C }
  - { offset: 0x2A21D, size: 0x8, addend: 0x0, symName: '__ZN4core6result19Result$LT$T$C$E$GT$3map17h69c725e3728650cdE', symObjAddr: 0xDA0, symBinAddr: 0x633C, symSize: 0x80 }
  - { offset: 0x2A2B0, size: 0x8, addend: 0x0, symName: '__ZN4core6result19Result$LT$T$C$E$GT$3map17h6f1a4861df6e7eddE', symObjAddr: 0xE20, symBinAddr: 0x63BC, symSize: 0xA8 }
  - { offset: 0x2A35B, size: 0x8, addend: 0x0, symName: '__ZN4core6result19Result$LT$T$C$E$GT$3map17h6f2370650d85465cE', symObjAddr: 0xEC8, symBinAddr: 0x6464, symSize: 0x80 }
  - { offset: 0x2A3FB, size: 0x8, addend: 0x0, symName: '__ZN4core6result19Result$LT$T$C$E$GT$3map17h758ea377ac8d4929E', symObjAddr: 0xF48, symBinAddr: 0x64E4, symSize: 0x4C }
  - { offset: 0x2A48D, size: 0x8, addend: 0x0, symName: '__ZN4core6result19Result$LT$T$C$E$GT$3map17h775b2d345609df16E', symObjAddr: 0xF94, symBinAddr: 0x6530, symSize: 0x80 }
  - { offset: 0x2A538, size: 0x8, addend: 0x0, symName: '__ZN4core6result19Result$LT$T$C$E$GT$3map17h8bb080c3278e6823E', symObjAddr: 0x1014, symBinAddr: 0x65B0, symSize: 0x80 }
  - { offset: 0x2A5D8, size: 0x8, addend: 0x0, symName: '__ZN4core6result19Result$LT$T$C$E$GT$3map17h9488443d196f0c4aE', symObjAddr: 0x1094, symBinAddr: 0x6630, symSize: 0x4C }
  - { offset: 0x2A677, size: 0x8, addend: 0x0, symName: '__ZN4core6result19Result$LT$T$C$E$GT$3map17h97af73c5a04e1f3cE', symObjAddr: 0x10E0, symBinAddr: 0x667C, symSize: 0x4C }
  - { offset: 0x2A721, size: 0x8, addend: 0x0, symName: '__ZN4core6result19Result$LT$T$C$E$GT$3map17hb2f6d7fde586c832E', symObjAddr: 0x112C, symBinAddr: 0x66C8, symSize: 0xAC }
  - { offset: 0x2A7B4, size: 0x8, addend: 0x0, symName: '__ZN4core6result19Result$LT$T$C$E$GT$3map17hb3b9fea55debef7dE', symObjAddr: 0x11D8, symBinAddr: 0x6774, symSize: 0x4C }
  - { offset: 0x2A8B0, size: 0x8, addend: 0x0, symName: '__ZN4core6result19Result$LT$T$C$E$GT$3map17hb8c9c504f72aec73E', symObjAddr: 0x1224, symBinAddr: 0x67C0, symSize: 0x84 }
  - { offset: 0x2A950, size: 0x8, addend: 0x0, symName: '__ZN4core6result19Result$LT$T$C$E$GT$3map17hbf85e48387521419E', symObjAddr: 0x12A8, symBinAddr: 0x6844, symSize: 0x80 }
  - { offset: 0x2A9FB, size: 0x8, addend: 0x0, symName: '__ZN4core6result19Result$LT$T$C$E$GT$3map17hc9e31cace9babe0eE', symObjAddr: 0x1328, symBinAddr: 0x68C4, symSize: 0xAC }
  - { offset: 0x2AA8E, size: 0x8, addend: 0x0, symName: '__ZN4core6result19Result$LT$T$C$E$GT$3map17hdf7d3d2187343fe1E', symObjAddr: 0x13D4, symBinAddr: 0x6970, symSize: 0x4C }
  - { offset: 0x2AB20, size: 0x8, addend: 0x0, symName: '__ZN4core6result19Result$LT$T$C$E$GT$3map17hfaf26689208f5124E', symObjAddr: 0x1420, symBinAddr: 0x69BC, symSize: 0x80 }
  - { offset: 0x2ABE5, size: 0x8, addend: 0x0, symName: '__ZN4core6result19Result$LT$T$C$E$GT$6is_err17h4c8a40e23c43b831E', symObjAddr: 0x14A0, symBinAddr: 0x6A3C, symSize: 0x20 }
  - { offset: 0x2AC50, size: 0x8, addend: 0x0, symName: '__ZN4core6result19Result$LT$T$C$E$GT$7map_err17h41ed826c528b2108E', symObjAddr: 0x14C0, symBinAddr: 0x6A5C, symSize: 0x78 }
  - { offset: 0x2ACE2, size: 0x8, addend: 0x0, symName: '__ZN4core6result19Result$LT$T$C$E$GT$7map_err17h42e8ec44e8af01fbE', symObjAddr: 0x1538, symBinAddr: 0x6AD4, symSize: 0x94 }
  - { offset: 0x2AD75, size: 0x8, addend: 0x0, symName: '__ZN4core6result19Result$LT$T$C$E$GT$7map_err17h63b8a414fb10ba3dE', symObjAddr: 0x15CC, symBinAddr: 0x6B68, symSize: 0x78 }
  - { offset: 0x2AE1F, size: 0x8, addend: 0x0, symName: '__ZN4core6result19Result$LT$T$C$E$GT$7map_err17h77c59833aa8d6222E', symObjAddr: 0x1644, symBinAddr: 0x6BE0, symSize: 0x78 }
  - { offset: 0x2AEB1, size: 0x8, addend: 0x0, symName: '__ZN4core6result19Result$LT$T$C$E$GT$7map_err17h786d54a4e62e9481E', symObjAddr: 0x16BC, symBinAddr: 0x6C58, symSize: 0x94 }
  - { offset: 0x2AF44, size: 0x8, addend: 0x0, symName: '__ZN4core6result19Result$LT$T$C$E$GT$7map_err17h85f6cf76b6d569b7E', symObjAddr: 0x1750, symBinAddr: 0x6CEC, symSize: 0x78 }
  - { offset: 0x2AFEE, size: 0x8, addend: 0x0, symName: '__ZN4core6result19Result$LT$T$C$E$GT$7map_err17h8660ce585ff9750eE', symObjAddr: 0x17C8, symBinAddr: 0x6D64, symSize: 0x98 }
  - { offset: 0x2B081, size: 0x8, addend: 0x0, symName: '__ZN4core6result19Result$LT$T$C$E$GT$7map_err17ha1873f0cc04fb333E', symObjAddr: 0x1860, symBinAddr: 0x6DFC, symSize: 0x98 }
  - { offset: 0x2B114, size: 0x8, addend: 0x0, symName: '__ZN4core6result19Result$LT$T$C$E$GT$7map_err17hd147da4744dbbd16E', symObjAddr: 0x18F8, symBinAddr: 0x6E94, symSize: 0x78 }
  - { offset: 0x2B1A6, size: 0x8, addend: 0x0, symName: '__ZN4core6result19Result$LT$T$C$E$GT$7map_err17he009cdffb0aa34e2E', symObjAddr: 0x1970, symBinAddr: 0x6F0C, symSize: 0x78 }
  - { offset: 0x2B238, size: 0x8, addend: 0x0, symName: '__ZN4core6result19Result$LT$T$C$E$GT$9unwrap_or17h7334f686b6ba777bE', symObjAddr: 0x19E8, symBinAddr: 0x6F84, symSize: 0x6C }
  - { offset: 0x2B3C5, size: 0x8, addend: 0x0, symName: '__ZN54_$LT$platon..PyValue$u20$as$u20$core..clone..Clone$GT$5clone17h0ecc3a793214c511E', symObjAddr: 0x0, symBinAddr: 0x8928, symSize: 0x40 }
  - { offset: 0x30398, size: 0x8, addend: 0x0, symName: __ZN6platon12TimeoutError15type_object_raw11TYPE_OBJECT17hed6de1c6acd12d19E, symObjAddr: 0x30B98, symBinAddr: 0xFD2E8, symSize: 0x0 }
  - { offset: 0x303C3, size: 0x8, addend: 0x0, symName: '__ZN6platon1_140_$LT$impl$u20$pyo3..impl_..pyclass..PyMethods$LT$platon..VM$GT$$u20$for$u20$pyo3..impl_..pyclass..PyClassImplCollector$LT$platon..VM$GT$$GT$10py_methods5ITEMS17h1f97d3eb8b402b2eE', symObjAddr: 0xAA80, symBinAddr: 0xF4708, symSize: 0x0 }
  - { offset: 0x303DD, size: 0x8, addend: 0x0, symName: '__ZN6platon1_150_$LT$impl$u20$pyo3..impl_..pyclass..PyMethods$LT$platon..PyValue$GT$$u20$for$u20$pyo3..impl_..pyclass..PyClassImplCollector$LT$platon..PyValue$GT$$GT$10py_methods5ITEMS17h40daa1fe0d721a69E', symObjAddr: 0xABC0, symBinAddr: 0xF4848, symSize: 0x0 }
  - { offset: 0x303EF, size: 0x8, addend: 0x0, symName: '__ZN6platon1_140_$LT$impl$u20$pyo3..impl_..pyclass..PyMethods$LT$platon..VM$GT$$u20$for$u20$pyo3..impl_..pyclass..PyClassImplCollector$LT$platon..VM$GT$$GT$10py_methods5ITEMS10trampoline17h10c714bcd2d97e6aE', symObjAddr: 0x1A10, symBinAddr: 0xA338, symSize: 0x50 }
  - { offset: 0x30445, size: 0x8, addend: 0x0, symName: '__ZN6platon1_140_$LT$impl$u20$pyo3..impl_..pyclass..PyMethods$LT$platon..VM$GT$$u20$for$u20$pyo3..impl_..pyclass..PyClassImplCollector$LT$platon..VM$GT$$GT$10py_methods5ITEMS10trampoline17h8976e535b91433d1E', symObjAddr: 0x1A60, symBinAddr: 0xA388, symSize: 0x50 }
  - { offset: 0x3049B, size: 0x8, addend: 0x0, symName: '__ZN6platon1_140_$LT$impl$u20$pyo3..impl_..pyclass..PyMethods$LT$platon..VM$GT$$u20$for$u20$pyo3..impl_..pyclass..PyClassImplCollector$LT$platon..VM$GT$$GT$10py_methods5ITEMS10trampoline17hacf9be7a19b6128bE', symObjAddr: 0x1AB0, symBinAddr: 0xA3D8, symSize: 0x4C }
  - { offset: 0x304E3, size: 0x8, addend: 0x0, symName: '__ZN6platon1_140_$LT$impl$u20$pyo3..impl_..pyclass..PyMethods$LT$platon..VM$GT$$u20$for$u20$pyo3..impl_..pyclass..PyClassImplCollector$LT$platon..VM$GT$$GT$10py_methods5ITEMS10trampoline17hd1d978c8f1ebe60fE', symObjAddr: 0x1AFC, symBinAddr: 0xA424, symSize: 0x50 }
  - { offset: 0x30539, size: 0x8, addend: 0x0, symName: '__ZN6platon1_150_$LT$impl$u20$pyo3..impl_..pyclass..PyMethods$LT$platon..PyValue$GT$$u20$for$u20$pyo3..impl_..pyclass..PyClassImplCollector$LT$platon..PyValue$GT$$GT$10py_methods5ITEMS10trampoline17h16976f010de82815E', symObjAddr: 0x1B4C, symBinAddr: 0xA474, symSize: 0x4C }
  - { offset: 0x30581, size: 0x8, addend: 0x0, symName: '__ZN6platon1_150_$LT$impl$u20$pyo3..impl_..pyclass..PyMethods$LT$platon..PyValue$GT$$u20$for$u20$pyo3..impl_..pyclass..PyClassImplCollector$LT$platon..PyValue$GT$$GT$10py_methods5ITEMS10trampoline17h9ce358a13b49e2caE', symObjAddr: 0x1B98, symBinAddr: 0xA4C0, symSize: 0x44 }
  - { offset: 0x305BB, size: 0x8, addend: 0x0, symName: '__ZN6platon1_150_$LT$impl$u20$pyo3..impl_..pyclass..PyMethods$LT$platon..PyValue$GT$$u20$for$u20$pyo3..impl_..pyclass..PyClassImplCollector$LT$platon..PyValue$GT$$GT$10py_methods5ITEMS10trampoline17hd253ac6527db4bcfE', symObjAddr: 0x1BDC, symBinAddr: 0xA504, symSize: 0x50 }
  - { offset: 0x30611, size: 0x8, addend: 0x0, symName: '__ZN6platon1_150_$LT$impl$u20$pyo3..impl_..pyclass..PyMethods$LT$platon..PyValue$GT$$u20$for$u20$pyo3..impl_..pyclass..PyClassImplCollector$LT$platon..PyValue$GT$$GT$10py_methods5ITEMS10trampoline17hf6f1e1f9772c2bccE', symObjAddr: 0x1C2C, symBinAddr: 0xA554, symSize: 0x3C }
  - { offset: 0x3063F, size: 0x8, addend: 0x0, symName: '__ZN6platon1_70_$LT$impl$u20$pyo3..type_object..PyTypeInfo$u20$for$u20$platon..VM$GT$15type_object_raw17hbe1eec0e9b4a81dcE', symObjAddr: 0x5E50, symBinAddr: 0xE778, symSize: 0x24 }
  - { offset: 0x30676, size: 0x8, addend: 0x0, symName: '__ZN6platon1_75_$LT$impl$u20$pyo3..type_object..PyTypeInfo$u20$for$u20$platon..PyValue$GT$15type_object_raw17hac9311039a0a6c5dE', symObjAddr: 0x5EF4, symBinAddr: 0xE81C, symSize: 0x24 }
  - { offset: 0x306AD, size: 0x8, addend: 0x0, symName: '__ZN6platon1_75_$LT$impl$u20$pyo3..type_object..PyTypeInfo$u20$for$u20$platon..VmProxy$GT$15type_object_raw17h11cd9bfdaa02251fE', symObjAddr: 0x5F18, symBinAddr: 0xE840, symSize: 0x24 }
  - { offset: 0x306E4, size: 0x8, addend: 0x0, symName: '__ZN6platon1_82_$LT$impl$u20$pyo3..type_object..PyTypeInfo$u20$for$u20$platon..NativeRegistry$GT$15type_object_raw17h6315b4f18e6e5d13E', symObjAddr: 0x603C, symBinAddr: 0xE964, symSize: 0x24 }
  - { offset: 0x30733, size: 0x8, addend: 0x0, symName: '__ZN6platon1_150_$LT$impl$u20$pyo3..impl_..pyclass..PyMethods$LT$platon..VmProxy$GT$$u20$for$u20$pyo3..impl_..pyclass..PyClassImplCollector$LT$platon..VmProxy$GT$$GT$10py_methods5ITEMS17hc2ad4616f4c02fabE', symObjAddr: 0xAC50, symBinAddr: 0xF48D8, symSize: 0x0 }
  - { offset: 0x3074D, size: 0x8, addend: 0x0, symName: '__ZN6platon1_164_$LT$impl$u20$pyo3..impl_..pyclass..PyMethods$LT$platon..NativeRegistry$GT$$u20$for$u20$pyo3..impl_..pyclass..PyClassImplCollector$LT$platon..NativeRegistry$GT$$GT$10py_methods5ITEMS17h1e6e3ace3e0b0d3cE', symObjAddr: 0xAD60, symBinAddr: 0xF49E8, symSize: 0x0 }
  - { offset: 0x3075F, size: 0x8, addend: 0x0, symName: '__ZN6platon1_150_$LT$impl$u20$pyo3..impl_..pyclass..PyMethods$LT$platon..VmProxy$GT$$u20$for$u20$pyo3..impl_..pyclass..PyClassImplCollector$LT$platon..VmProxy$GT$$GT$10py_methods5ITEMS10trampoline17he8a41878cda44cd1E', symObjAddr: 0x1C68, symBinAddr: 0xA590, symSize: 0x4C }
  - { offset: 0x307A7, size: 0x8, addend: 0x0, symName: '__ZN6platon1_150_$LT$impl$u20$pyo3..impl_..pyclass..PyMethods$LT$platon..VmProxy$GT$$u20$for$u20$pyo3..impl_..pyclass..PyClassImplCollector$LT$platon..VmProxy$GT$$GT$10py_methods5ITEMS6__wrap17he07c15e5d2bd7609E', symObjAddr: 0x1CB4, symBinAddr: 0xA5DC, symSize: 0x4C }
  - { offset: 0x307F3, size: 0x8, addend: 0x0, symName: '__ZN6platon1_150_$LT$impl$u20$pyo3..impl_..pyclass..PyMethods$LT$platon..VmProxy$GT$$u20$for$u20$pyo3..impl_..pyclass..PyClassImplCollector$LT$platon..VmProxy$GT$$GT$10py_methods5ITEMS6__wrap17heff5acf69ba4864eE', symObjAddr: 0x1D00, symBinAddr: 0xA628, symSize: 0x44 }
  - { offset: 0x30830, size: 0x8, addend: 0x0, symName: '__ZN6platon1_164_$LT$impl$u20$pyo3..impl_..pyclass..PyMethods$LT$platon..NativeRegistry$GT$$u20$for$u20$pyo3..impl_..pyclass..PyClassImplCollector$LT$platon..NativeRegistry$GT$$GT$10py_methods5ITEMS10trampoline17h33df9b08b9d8dfc5E', symObjAddr: 0x1D44, symBinAddr: 0xA66C, symSize: 0x50 }
  - { offset: 0x30886, size: 0x8, addend: 0x0, symName: '__ZN6platon1_164_$LT$impl$u20$pyo3..impl_..pyclass..PyMethods$LT$platon..NativeRegistry$GT$$u20$for$u20$pyo3..impl_..pyclass..PyClassImplCollector$LT$platon..NativeRegistry$GT$$GT$10py_methods5ITEMS10trampoline17h47b3ad5766f08e89E', symObjAddr: 0x1D94, symBinAddr: 0xA6BC, symSize: 0x50 }
  - { offset: 0x308DC, size: 0x8, addend: 0x0, symName: '__ZN6platon1_164_$LT$impl$u20$pyo3..impl_..pyclass..PyMethods$LT$platon..NativeRegistry$GT$$u20$for$u20$pyo3..impl_..pyclass..PyClassImplCollector$LT$platon..NativeRegistry$GT$$GT$10py_methods5ITEMS10trampoline17h7648214f9ebd9f7bE', symObjAddr: 0x1DE4, symBinAddr: 0xA70C, symSize: 0x4C }
  - { offset: 0x30924, size: 0x8, addend: 0x0, symName: '__ZN6platon1_164_$LT$impl$u20$pyo3..impl_..pyclass..PyMethods$LT$platon..NativeRegistry$GT$$u20$for$u20$pyo3..impl_..pyclass..PyClassImplCollector$LT$platon..NativeRegistry$GT$$GT$10py_methods5ITEMS6__wrap17h03b77a57e41fec86E', symObjAddr: 0x1E30, symBinAddr: 0xA758, symSize: 0x44 }
  - { offset: 0x30961, size: 0x8, addend: 0x0, symName: '__ZN6platon1_164_$LT$impl$u20$pyo3..impl_..pyclass..PyMethods$LT$platon..NativeRegistry$GT$$u20$for$u20$pyo3..impl_..pyclass..PyClassImplCollector$LT$platon..NativeRegistry$GT$$GT$10py_methods5ITEMS6__wrap17hb1f139534a92ca28E', symObjAddr: 0x1E74, symBinAddr: 0xA79C, symSize: 0x4C }
  - { offset: 0x309C7, size: 0x8, addend: 0x0, symName: '__ZN6platon1_74_$LT$impl$u20$pyo3..impl_..pyclass..PyClassImpl$u20$for$u20$platon..VM$GT$10items_iter15INTRINSIC_ITEMS17hd83365eb1f36bdf0E', symObjAddr: 0xB9F8, symBinAddr: 0xB1C68, symSize: 0x0 }
  - { offset: 0x309E1, size: 0x8, addend: 0x0, symName: '__ZN6platon1_79_$LT$impl$u20$pyo3..impl_..pyclass..PyClassImpl$u20$for$u20$platon..PyValue$GT$10items_iter15INTRINSIC_ITEMS17h720b5765f857d918E', symObjAddr: 0xBA18, symBinAddr: 0xB1C88, symSize: 0x0 }
  - { offset: 0x309FB, size: 0x8, addend: 0x0, symName: '__ZN6platon1_79_$LT$impl$u20$pyo3..impl_..pyclass..PyClassImpl$u20$for$u20$platon..VmProxy$GT$10items_iter15INTRINSIC_ITEMS17hd886fcca0230cf29E', symObjAddr: 0xB408, symBinAddr: 0xF5090, symSize: 0x0 }
  - { offset: 0x30A15, size: 0x8, addend: 0x0, symName: '__ZN6platon1_86_$LT$impl$u20$pyo3..impl_..pyclass..PyClassImpl$u20$for$u20$platon..NativeRegistry$GT$10items_iter15INTRINSIC_ITEMS17h148b96726584ef1fE', symObjAddr: 0xBA38, symBinAddr: 0xB1CA8, symSize: 0x0 }
  - { offset: 0x30A35, size: 0x8, addend: 0x0, symName: '__ZN6platon1_74_$LT$impl$u20$pyo3..impl_..pyclass..PyClassImpl$u20$for$u20$platon..VM$GT$16lazy_type_object11TYPE_OBJECT17h1bc0c4e784712335E', symObjAddr: 0xBED0, symBinAddr: 0xFC3E0, symSize: 0x0 }
  - { offset: 0x30A4F, size: 0x8, addend: 0x0, symName: '__ZN6platon1_79_$LT$impl$u20$pyo3..impl_..pyclass..PyClassImpl$u20$for$u20$platon..PyValue$GT$16lazy_type_object11TYPE_OBJECT17h2056fea847058ecfE', symObjAddr: 0xBF30, symBinAddr: 0xFC440, symSize: 0x0 }
  - { offset: 0x30A69, size: 0x8, addend: 0x0, symName: '__ZN6platon1_79_$LT$impl$u20$pyo3..impl_..pyclass..PyClassImpl$u20$for$u20$platon..VmProxy$GT$16lazy_type_object11TYPE_OBJECT17hfe340f5e82fcbf01E', symObjAddr: 0xBF90, symBinAddr: 0xFC4A0, symSize: 0x0 }
  - { offset: 0x30A83, size: 0x8, addend: 0x0, symName: '__ZN6platon1_86_$LT$impl$u20$pyo3..impl_..pyclass..PyClassImpl$u20$for$u20$platon..NativeRegistry$GT$16lazy_type_object11TYPE_OBJECT17h8e6f735d05f21f4fE', symObjAddr: 0xBFF0, symBinAddr: 0xFC500, symSize: 0x0 }
  - { offset: 0x30AA3, size: 0x8, addend: 0x0, symName: '__ZN6platon1_74_$LT$impl$u20$pyo3..impl_..pyclass..PyClassImpl$u20$for$u20$platon..VM$GT$3doc3DOC17hfc31461e738b52b3E', symObjAddr: 0xBF18, symBinAddr: 0xFC428, symSize: 0x0 }
  - { offset: 0x30ABD, size: 0x8, addend: 0x0, symName: '__ZN6platon1_79_$LT$impl$u20$pyo3..impl_..pyclass..PyClassImpl$u20$for$u20$platon..PyValue$GT$3doc3DOC17hadc6d0165f48d423E', symObjAddr: 0xBF78, symBinAddr: 0xFC488, symSize: 0x0 }
  - { offset: 0x30AD7, size: 0x8, addend: 0x0, symName: '__ZN6platon1_79_$LT$impl$u20$pyo3..impl_..pyclass..PyClassImpl$u20$for$u20$platon..VmProxy$GT$3doc3DOC17hb0bc595fc7070a66E', symObjAddr: 0xBFD8, symBinAddr: 0xFC4E8, symSize: 0x0 }
  - { offset: 0x30AF1, size: 0x8, addend: 0x0, symName: '__ZN6platon1_86_$LT$impl$u20$pyo3..impl_..pyclass..PyClassImpl$u20$for$u20$platon..NativeRegistry$GT$3doc3DOC17h045711e34ef85233E', symObjAddr: 0xC038, symBinAddr: 0xFC548, symSize: 0x0 }
  - { offset: 0x30AFF, size: 0x8, addend: 0x0, symName: '__ZN6platon1_74_$LT$impl$u20$pyo3..impl_..pyclass..PyClassImpl$u20$for$u20$platon..VM$GT$10items_iter17hf01b288f01974eb7E', symObjAddr: 0x5E74, symBinAddr: 0xE79C, symSize: 0x38 }
  - { offset: 0x30B3A, size: 0x8, addend: 0x0, symName: '__ZN6platon1_74_$LT$impl$u20$pyo3..impl_..pyclass..PyClassImpl$u20$for$u20$platon..VM$GT$16lazy_type_object17h0fe51068e7c27520E', symObjAddr: 0x5EAC, symBinAddr: 0xE7D4, symSize: 0xC }
  - { offset: 0x30B57, size: 0x8, addend: 0x0, symName: '__ZN6platon1_74_$LT$impl$u20$pyo3..impl_..pyclass..PyClassImpl$u20$for$u20$platon..VM$GT$3doc17ha1a703e7c9932f7cE', symObjAddr: 0x5EB8, symBinAddr: 0xE7E0, symSize: 0x3C }
  - { offset: 0x30B8E, size: 0x8, addend: 0x0, symName: '__ZN6platon1_79_$LT$impl$u20$pyo3..impl_..pyclass..PyClassImpl$u20$for$u20$platon..PyValue$GT$10items_iter17he4e75f4c7d2e34ceE', symObjAddr: 0x5F3C, symBinAddr: 0xE864, symSize: 0x38 }
  - { offset: 0x30BC9, size: 0x8, addend: 0x0, symName: '__ZN6platon1_79_$LT$impl$u20$pyo3..impl_..pyclass..PyClassImpl$u20$for$u20$platon..PyValue$GT$16lazy_type_object17hb540b57dc09ed22eE', symObjAddr: 0x5F74, symBinAddr: 0xE89C, symSize: 0xC }
  - { offset: 0x30BE6, size: 0x8, addend: 0x0, symName: '__ZN6platon1_79_$LT$impl$u20$pyo3..impl_..pyclass..PyClassImpl$u20$for$u20$platon..PyValue$GT$3doc17h9d982ea4035a897aE', symObjAddr: 0x5F80, symBinAddr: 0xE8A8, symSize: 0x3C }
  - { offset: 0x30C1D, size: 0x8, addend: 0x0, symName: '__ZN6platon1_79_$LT$impl$u20$pyo3..impl_..pyclass..PyClassImpl$u20$for$u20$platon..VmProxy$GT$10items_iter17h321e2d1aab20b56dE', symObjAddr: 0x5FBC, symBinAddr: 0xE8E4, symSize: 0x38 }
  - { offset: 0x30C58, size: 0x8, addend: 0x0, symName: '__ZN6platon1_79_$LT$impl$u20$pyo3..impl_..pyclass..PyClassImpl$u20$for$u20$platon..VmProxy$GT$16lazy_type_object17h772357ff26e4157aE', symObjAddr: 0x5FF4, symBinAddr: 0xE91C, symSize: 0xC }
  - { offset: 0x30C75, size: 0x8, addend: 0x0, symName: '__ZN6platon1_79_$LT$impl$u20$pyo3..impl_..pyclass..PyClassImpl$u20$for$u20$platon..VmProxy$GT$3doc17h3f0f021e92e7ce64E', symObjAddr: 0x6000, symBinAddr: 0xE928, symSize: 0x3C }
  - { offset: 0x30CAC, size: 0x8, addend: 0x0, symName: '__ZN6platon1_86_$LT$impl$u20$pyo3..impl_..pyclass..PyClassImpl$u20$for$u20$platon..NativeRegistry$GT$10items_iter17h2df73e1c9f0ba5b9E', symObjAddr: 0x6060, symBinAddr: 0xE988, symSize: 0x38 }
  - { offset: 0x30CE7, size: 0x8, addend: 0x0, symName: '__ZN6platon1_86_$LT$impl$u20$pyo3..impl_..pyclass..PyClassImpl$u20$for$u20$platon..NativeRegistry$GT$16lazy_type_object17h78aa5dd86cd575b9E', symObjAddr: 0x6098, symBinAddr: 0xE9C0, symSize: 0xC }
  - { offset: 0x30D04, size: 0x8, addend: 0x0, symName: '__ZN6platon1_86_$LT$impl$u20$pyo3..impl_..pyclass..PyClassImpl$u20$for$u20$platon..NativeRegistry$GT$3doc17h74f9d58bc7fa1fbeE', symObjAddr: 0x60A4, symBinAddr: 0xE9CC, symSize: 0x3C }
  - { offset: 0x30D41, size: 0x8, addend: 0x0, symName: '__ZN6platon1_127_$LT$impl$u20$pyo3..conversion..IntoPy$LT$pyo3..instance..Py$LT$pyo3..types..any..PyAny$GT$$GT$$u20$for$u20$platon..PyValue$GT$7into_py17h3d612eca1f035adaE', symObjAddr: 0x18A0, symBinAddr: 0xA1C8, symSize: 0xB8 }
  - { offset: 0x30DBE, size: 0x8, addend: 0x0, symName: '__ZN6platon1_134_$LT$impl$u20$pyo3..conversion..IntoPy$LT$pyo3..instance..Py$LT$pyo3..types..any..PyAny$GT$$GT$$u20$for$u20$platon..NativeRegistry$GT$7into_py17h3ecf20f111d646aeE', symObjAddr: 0x1958, symBinAddr: 0xA280, symSize: 0xB8 }
  - { offset: 0x315C4, size: 0x8, addend: 0x0, symName: __ZN6platon7VMError15type_object_raw11TYPE_OBJECT17h9ff005a431c1e4d9E, symObjAddr: 0x30BA0, symBinAddr: 0xFD2F0, symSize: 0x0 }
  - { offset: 0x315D8, size: 0x8, addend: 0x0, symName: '__ZN54_$LT$platon..PyValue$u20$as$u20$core..clone..Clone$GT$5clone17h0ecc3a793214c511E', symObjAddr: 0x0, symBinAddr: 0x8928, symSize: 0x40 }
  - { offset: 0x3160A, size: 0x8, addend: 0x0, symName: '__ZN61_$LT$platon..NativeRegistry$u20$as$u20$core..clone..Clone$GT$5clone17h827785e9592eef27E', symObjAddr: 0x40, symBinAddr: 0x8968, symSize: 0xC0 }
  - { offset: 0x3163C, size: 0x8, addend: 0x0, symName: '__ZN65_$LT$platon..VMError$u20$as$u20$pyo3..type_object..PyTypeInfo$GT$15type_object_raw17h28188f9f75e86f47E', symObjAddr: 0x100, symBinAddr: 0x8A28, symSize: 0x1C }
  - { offset: 0x31674, size: 0x8, addend: 0x0, symName: __ZN6platon10core_to_py17hbe7c6cae8c7166a3E, symObjAddr: 0x11C, symBinAddr: 0x8A44, symSize: 0x2F8 }
  - { offset: 0x31854, size: 0x8, addend: 0x0, symName: __ZN6platon12core_from_py17h6bc4290a233116f2E, symObjAddr: 0x440, symBinAddr: 0x8D68, symSize: 0x898 }
  - { offset: 0x31A80, size: 0x8, addend: 0x0, symName: __ZN6platon6platon17h513fa1215ac238faE, symObjAddr: 0x8E84, symBinAddr: 0x117AC, symSize: 0x348 }
  - { offset: 0x31BD4, size: 0x8, addend: 0x0, symName: '__ZN70_$LT$platon..TimeoutError$u20$as$u20$pyo3..type_object..PyTypeInfo$GT$15type_object_raw17ha251c48d427833ecE', symObjAddr: 0x987C, symBinAddr: 0x121A4, symSize: 0x1C }
  - { offset: 0x3203F, size: 0x8, addend: 0x0, symName: __ZN6platon12TimeoutError15type_object_raw17h5395e133234d36d9E, symObjAddr: 0x414, symBinAddr: 0x8D3C, symSize: 0x2C }
  - { offset: 0x320E7, size: 0x8, addend: 0x0, symName: __ZN6platon14NativeRegistry11__getattr__17h6bbea5702cbeb45bE, symObjAddr: 0xCD8, symBinAddr: 0x9600, symSize: 0x15C }
  - { offset: 0x32150, size: 0x8, addend: 0x0, symName: __ZN6platon14NativeRegistry11__setattr__17h8bae8af7f310b454E, symObjAddr: 0xE34, symBinAddr: 0x975C, symSize: 0x200 }
  - { offset: 0x3220C, size: 0x8, addend: 0x0, symName: __ZN6platon14NativeRegistry13_names_to_ids17h87f182ebaf8832acE, symObjAddr: 0x1034, symBinAddr: 0x995C, symSize: 0x204 }
  - { offset: 0x322D4, size: 0x8, addend: 0x0, symName: __ZN6platon14NativeRegistry14get_id_by_name17h55c4c82502e1e601E, symObjAddr: 0x1238, symBinAddr: 0x9B60, symSize: 0x184 }
  - { offset: 0x32381, size: 0x8, addend: 0x0, symName: __ZN6platon14NativeRegistry16register_command17h6581bde765e67ab8E, symObjAddr: 0x13BC, symBinAddr: 0x9CE4, symSize: 0x3D8 }
  - { offset: 0x3247E, size: 0x8, addend: 0x0, symName: __ZN6platon14NativeRegistry3new17h5008102467faf88bE, symObjAddr: 0x1794, symBinAddr: 0xA0BC, symSize: 0x10C }
  - { offset: 0x32517, size: 0x8, addend: 0x0, symName: '__ZN6platon1_171_$LT$impl$u20$pyo3..impl_..pyclass..PyClass__getattr__SlotFragment$LT$platon..VmProxy$GT$$u20$for$u20$pyo3..impl_..pyclass..PyClassImplCollector$LT$platon..VmProxy$GT$$GT$11__getattr__33_$LT$impl$u20$platon..VmProxy$GT$24__pymethod___getattr____17h67ca9457ba6bdecbE', symObjAddr: 0x1EC0, symBinAddr: 0xA7E8, symSize: 0x1B4 }
  - { offset: 0x325C2, size: 0x8, addend: 0x0, symName: '__ZN6platon1_171_$LT$impl$u20$pyo3..impl_..pyclass..PyClass__setattr__SlotFragment$LT$platon..VmProxy$GT$$u20$for$u20$pyo3..impl_..pyclass..PyClassImplCollector$LT$platon..VmProxy$GT$$GT$11__setattr__33_$LT$impl$u20$platon..VmProxy$GT$24__pymethod___setattr____17h91952238c3f6a09cE', symObjAddr: 0x2074, symBinAddr: 0xA99C, symSize: 0x2E4 }
  - { offset: 0x326C1, size: 0x8, addend: 0x0, symName: '__ZN6platon1_185_$LT$impl$u20$pyo3..impl_..pyclass..PyClass__getattr__SlotFragment$LT$platon..NativeRegistry$GT$$u20$for$u20$pyo3..impl_..pyclass..PyClassImplCollector$LT$platon..NativeRegistry$GT$$GT$11__getattr__40_$LT$impl$u20$platon..NativeRegistry$GT$24__pymethod___getattr____17h4c8b7a25d48b61c9E', symObjAddr: 0x2358, symBinAddr: 0xAC80, symSize: 0x1B4 }
  - { offset: 0x32750, size: 0x8, addend: 0x0, symName: '__ZN6platon1_185_$LT$impl$u20$pyo3..impl_..pyclass..PyClass__setattr__SlotFragment$LT$platon..NativeRegistry$GT$$u20$for$u20$pyo3..impl_..pyclass..PyClassImplCollector$LT$platon..NativeRegistry$GT$$GT$11__setattr__40_$LT$impl$u20$platon..NativeRegistry$GT$24__pymethod___setattr____17h6314e42317bc67b0E', symObjAddr: 0x250C, symBinAddr: 0xAE34, symSize: 0x2E4 }
  - { offset: 0x3284F, size: 0x8, addend: 0x0, symName: '__ZN6platon1_28_$LT$impl$u20$platon..VM$GT$17__pymethod_load__17h527b72dd07e2479bE', symObjAddr: 0x27F0, symBinAddr: 0xB118, symSize: 0x26C }
  - { offset: 0x32955, size: 0x8, addend: 0x0, symName: '__ZN6platon1_28_$LT$impl$u20$platon..VM$GT$20__pymethod___new____17hbd3231d11b74def3E', symObjAddr: 0x2A5C, symBinAddr: 0xB384, symSize: 0x410 }
  - { offset: 0x32AF1, size: 0x8, addend: 0x0, symName: '__ZN6platon1_28_$LT$impl$u20$platon..VM$GT$20__pymethod_execute__17ha6d545fba41a376bE', symObjAddr: 0x2E6C, symBinAddr: 0xB794, symSize: 0x3B8 }
  - { offset: 0x32C3F, size: 0x8, addend: 0x0, symName: '__ZN6platon1_28_$LT$impl$u20$platon..VM$GT$24__pymethod_get_globals__17hb5bcf09d9de2d896E', symObjAddr: 0x3224, symBinAddr: 0xBB4C, symSize: 0x104 }
  - { offset: 0x32C9A, size: 0x8, addend: 0x0, symName: '__ZN6platon1_28_$LT$impl$u20$platon..VM$GT$24__pymethod_get_results__17h0c381eaddf8028fcE', symObjAddr: 0x3328, symBinAddr: 0xBC50, symSize: 0x104 }
  - { offset: 0x32CF5, size: 0x8, addend: 0x0, symName: '__ZN6platon1_28_$LT$impl$u20$platon..VM$GT$25__pymethod_register_isa__17had277a3fbd471ac2E', symObjAddr: 0x342C, symBinAddr: 0xBD54, symSize: 0x26C }
  - { offset: 0x32DFB, size: 0x8, addend: 0x0, symName: '__ZN6platon1_28_$LT$impl$u20$platon..VM$GT$26__pymethod_get_get_debug__17h985cc243fc2e89d0E', symObjAddr: 0x3698, symBinAddr: 0xBFC0, symSize: 0x104 }
  - { offset: 0x32E56, size: 0x8, addend: 0x0, symName: '__ZN6platon1_28_$LT$impl$u20$platon..VM$GT$26__pymethod_set_set_debug__17h6e1f0c3a188e8c4cE', symObjAddr: 0x379C, symBinAddr: 0xC0C4, symSize: 0x1F0 }
  - { offset: 0x32F29, size: 0x8, addend: 0x0, symName: '__ZN6platon1_28_$LT$impl$u20$platon..VM$GT$28__pymethod_set_set_globals__17ha9d671a78814fcf2E', symObjAddr: 0x398C, symBinAddr: 0xC2B4, symSize: 0x1F0 }
  - { offset: 0x32FFC, size: 0x8, addend: 0x0, symName: '__ZN6platon1_28_$LT$impl$u20$platon..VM$GT$29__pymethod_get_get_registry__17h5fe2c13b8d1c2ea4E', symObjAddr: 0x3B7C, symBinAddr: 0xC4A4, symSize: 0x100 }
  - { offset: 0x33058, size: 0x8, addend: 0x0, symName: '__ZN6platon1_28_$LT$impl$u20$platon..VM$GT$29__pymethod_set_set_registry__17h90e544fca98f7d60E', symObjAddr: 0x3C7C, symBinAddr: 0xC5A4, symSize: 0x2A4 }
  - { offset: 0x33149, size: 0x8, addend: 0x0, symName: '__ZN6platon1_28_$LT$impl$u20$platon..VM$GT$30__pymethod_get_conector_vars__17h2011b87fdc5de772E', symObjAddr: 0x3F20, symBinAddr: 0xC848, symSize: 0x104 }
  - { offset: 0x331A4, size: 0x8, addend: 0x0, symName: '__ZN6platon1_33_$LT$impl$u20$platon..PyValue$GT$20__pymethod___new____17h09ff6df185c22ae5E', symObjAddr: 0x4024, symBinAddr: 0xC94C, symSize: 0x40C }
  - { offset: 0x33340, size: 0x8, addend: 0x0, symName: '__ZN6platon1_33_$LT$impl$u20$platon..PyValue$GT$21__pymethod___repr____17h8e94d04ac1ca13f4E', symObjAddr: 0x4430, symBinAddr: 0xCD58, symSize: 0x100 }
  - { offset: 0x333C8, size: 0x8, addend: 0x0, symName: '__ZN6platon1_33_$LT$impl$u20$platon..PyValue$GT$22__pymethod_get_type___17h5238f2ae115b5086E', symObjAddr: 0x4530, symBinAddr: 0xCE58, symSize: 0x114 }
  - { offset: 0x33424, size: 0x8, addend: 0x0, symName: '__ZN6platon1_33_$LT$impl$u20$platon..PyValue$GT$22__pymethod_get_value__17hb8205094ef596a18E', symObjAddr: 0x4644, symBinAddr: 0xCF6C, symSize: 0x104 }
  - { offset: 0x3347F, size: 0x8, addend: 0x0, symName: '__ZN6platon1_33_$LT$impl$u20$platon..PyValue$GT$22__pymethod_to_python__17hbbc10d07dd1f3cc0E', symObjAddr: 0x4748, symBinAddr: 0xD070, symSize: 0x12C }
  - { offset: 0x334F1, size: 0x8, addend: 0x0, symName: '__ZN6platon1_33_$LT$impl$u20$platon..PyValue$GT$24__pymethod_from_python__17h6cf1f0e06492d231E', symObjAddr: 0x4874, symBinAddr: 0xD19C, symSize: 0x1AC }
  - { offset: 0x33602, size: 0x8, addend: 0x0, symName: '__ZN6platon1_33_$LT$impl$u20$platon..VmProxy$GT$20__pymethod___new____17hf2a0c3830ab3c3c7E', symObjAddr: 0x4A20, symBinAddr: 0xD348, symSize: 0x480 }
  - { offset: 0x337BC, size: 0x8, addend: 0x0, symName: '__ZN6platon1_33_$LT$impl$u20$platon..VmProxy$GT$24__pymethod_get_globals__17hf631eb0096d1afa2E', symObjAddr: 0x4EA0, symBinAddr: 0xD7C8, symSize: 0x12C }
  - { offset: 0x33818, size: 0x8, addend: 0x0, symName: '__ZN6platon1_33_$LT$impl$u20$platon..VmProxy$GT$24__pymethod_set_globals__17hcf07c6a0d4416763E', symObjAddr: 0x4FCC, symBinAddr: 0xD8F4, symSize: 0x2F8 }
  - { offset: 0x33909, size: 0x8, addend: 0x0, symName: '__ZN6platon1_33_$LT$impl$u20$platon..VmProxy$GT$29__pymethod_get_get_registry__17hb56cc62fd4852203E', symObjAddr: 0x52C4, symBinAddr: 0xDBEC, symSize: 0x100 }
  - { offset: 0x33965, size: 0x8, addend: 0x0, symName: '__ZN6platon1_40_$LT$impl$u20$platon..NativeRegistry$GT$20__pymethod___new____17hf7518d31a75927e9E', symObjAddr: 0x53C4, symBinAddr: 0xDCEC, symSize: 0x250 }
  - { offset: 0x33ACD, size: 0x8, addend: 0x0, symName: '__ZN6platon1_40_$LT$impl$u20$platon..NativeRegistry$GT$27__pymethod_get_id_by_name__17h38b2d2ed8c1be79fE', symObjAddr: 0x5614, symBinAddr: 0xDF3C, symSize: 0x274 }
  - { offset: 0x33BD3, size: 0x8, addend: 0x0, symName: '__ZN6platon1_40_$LT$impl$u20$platon..NativeRegistry$GT$29__pymethod_register_command__17hd232af30ffa75384E', symObjAddr: 0x5888, symBinAddr: 0xE1B0, symSize: 0x4C4 }
  - { offset: 0x33D3C, size: 0x8, addend: 0x0, symName: '__ZN6platon1_40_$LT$impl$u20$platon..NativeRegistry$GT$30__pymethod_get__names_to_ids__17h42d69c824b6a5bd1E', symObjAddr: 0x5D4C, symBinAddr: 0xE674, symSize: 0x104 }
  - { offset: 0x33DB1, size: 0x8, addend: 0x0, symName: __ZN6platon2VM11set_globals17h38690e543654ee26E, symObjAddr: 0x60E0, symBinAddr: 0xEA08, symSize: 0x398 }
  - { offset: 0x33F0F, size: 0x8, addend: 0x0, symName: __ZN6platon2VM12get_registry17he6c405358cc825aaE, symObjAddr: 0x6478, symBinAddr: 0xEDA0, symSize: 0x24 }
  - { offset: 0x33F32, size: 0x8, addend: 0x0, symName: __ZN6platon2VM12register_isa17he4916aec6ed61ee7E, symObjAddr: 0x649C, symBinAddr: 0xEDC4, symSize: 0x24C }
  - { offset: 0x34044, size: 0x8, addend: 0x0, symName: __ZN6platon2VM12set_registry17h1bd822d051c61b3aE, symObjAddr: 0x66E8, symBinAddr: 0xF010, symSize: 0xC4 }
  - { offset: 0x34077, size: 0x8, addend: 0x0, symName: __ZN6platon2VM13conector_vars17h3af35c6add877d5dE, symObjAddr: 0x67AC, symBinAddr: 0xF0D4, symSize: 0x1D0 }
  - { offset: 0x34148, size: 0x8, addend: 0x0, symName: __ZN6platon2VM3new17h98381f6ed7ce2813E, symObjAddr: 0x697C, symBinAddr: 0xF2A4, symSize: 0xD4 }
  - { offset: 0x34261, size: 0x8, addend: 0x0, symName: __ZN6platon2VM4load17hb6d36b3dd1de2117E, symObjAddr: 0x6A50, symBinAddr: 0xF378, symSize: 0x1118 }
  - { offset: 0x34B03, size: 0x8, addend: 0x0, symName: __ZN6platon2VM7execute17hc95aaaa786950a2dE, symObjAddr: 0x7B68, symBinAddr: 0x10490, symSize: 0xF44 }
  - { offset: 0x34E4A, size: 0x8, addend: 0x0, symName: __ZN6platon2VM7globals17hb5ed9a1071d7c76aE, symObjAddr: 0x8AAC, symBinAddr: 0x113D4, symSize: 0x1D0 }
  - { offset: 0x34F1B, size: 0x8, addend: 0x0, symName: __ZN6platon2VM7results17hfa6d1f62e6c43be7E, symObjAddr: 0x8C7C, symBinAddr: 0x115A4, symSize: 0x1D0 }
  - { offset: 0x34FEC, size: 0x8, addend: 0x0, symName: __ZN6platon2VM9get_debug17hc21afbcdec60cec6E, symObjAddr: 0x8E4C, symBinAddr: 0x11774, symSize: 0x1C }
  - { offset: 0x3500F, size: 0x8, addend: 0x0, symName: __ZN6platon2VM9set_debug17h5b099df582b8e030E, symObjAddr: 0x8E68, symBinAddr: 0x11790, symSize: 0x1C }
  - { offset: 0x3505B, size: 0x8, addend: 0x0, symName: __ZN6platon7PyValue11from_python17hac39aac5600fc23aE, symObjAddr: 0x91CC, symBinAddr: 0x11AF4, symSize: 0xD8 }
  - { offset: 0x350A9, size: 0x8, addend: 0x0, symName: __ZN6platon7PyValue3new17h718672427def40d0E, symObjAddr: 0x92A4, symBinAddr: 0x11BCC, symSize: 0x110 }
  - { offset: 0x35106, size: 0x8, addend: 0x0, symName: __ZN6platon7PyValue5type_17hc56ddc82c7548237E, symObjAddr: 0x93B4, symBinAddr: 0x11CDC, symSize: 0x24 }
  - { offset: 0x35128, size: 0x8, addend: 0x0, symName: __ZN6platon7PyValue5value17he24e453aceb0e137E, symObjAddr: 0x93D8, symBinAddr: 0x11D00, symSize: 0x28 }
  - { offset: 0x35163, size: 0x8, addend: 0x0, symName: __ZN6platon7PyValue8__repr__17h8a2ee978ed9f5bb7E, symObjAddr: 0x9400, symBinAddr: 0x11D28, symSize: 0x7C }
  - { offset: 0x351DC, size: 0x8, addend: 0x0, symName: __ZN6platon7PyValue9to_python17h94ceed0a1275304eE, symObjAddr: 0x947C, symBinAddr: 0x11DA4, symSize: 0x28 }
  - { offset: 0x35217, size: 0x8, addend: 0x0, symName: __ZN6platon7VMError15type_object_raw17h2fb0285546250c8dE, symObjAddr: 0x94A4, symBinAddr: 0x11DCC, symSize: 0x2C }
  - { offset: 0x35251, size: 0x8, addend: 0x0, symName: __ZN6platon7VmProxy11__getattr__17h4793107589362061E, symObjAddr: 0x94D0, symBinAddr: 0x11DF8, symSize: 0x15C }
  - { offset: 0x352BA, size: 0x8, addend: 0x0, symName: __ZN6platon7VmProxy11__setattr__17ha4f759059e3047ceE, symObjAddr: 0x962C, symBinAddr: 0x11F54, symSize: 0x200 }
  - { offset: 0x35333, size: 0x8, addend: 0x0, symName: __ZN6platon7VmProxy12get_registry17h5530775de4dc7154E, symObjAddr: 0x982C, symBinAddr: 0x12154, symSize: 0x24 }
  - { offset: 0x35355, size: 0x8, addend: 0x0, symName: __ZN6platon7VmProxy3new17h1e680ead30a4f0a3E, symObjAddr: 0x9850, symBinAddr: 0x12178, symSize: 0x2C }
  - { offset: 0x358EC, size: 0x8, addend: 0x0, symName: __ZN4pyo35types5bytes7PyBytes8as_bytes17hc22b9f7d77e3c0d5E, symObjAddr: 0x0, symBinAddr: 0x121C0, symSize: 0x98 }
  - { offset: 0x3699D, size: 0x8, addend: 0x0, symName: '__ZN71_$LT$pyo3..types..bytes..PyBytes$u20$as$u20$core..ops..deref..Deref$GT$5deref17h67cee746997fa3e8E', symObjAddr: 0x98, symBinAddr: 0x12258, symSize: 0x14 }
  - { offset: 0x36E60, size: 0x8, addend: 0x0, symName: __ZN4pyo35types5bytes7PyBytes8as_bytes17hc22b9f7d77e3c0d5E, symObjAddr: 0x0, symBinAddr: 0x121C0, symSize: 0x98 }
  - { offset: 0x36EE4, size: 0x8, addend: 0x0, symName: __ZN3std5panic12catch_unwind17h11450a394e210158E, symObjAddr: 0x0, symBinAddr: 0x1226C, symSize: 0xF8 }
  - { offset: 0x39C20, size: 0x8, addend: 0x0, symName: __ZN3std5panic12catch_unwind17h11450a394e210158E, symObjAddr: 0x0, symBinAddr: 0x1226C, symSize: 0xF8 }
  - { offset: 0x39D7A, size: 0x8, addend: 0x0, symName: __ZN3std5panic12catch_unwind17h5f39e4f85e1a09b7E, symObjAddr: 0xF8, symBinAddr: 0x12364, symSize: 0xDC }
  - { offset: 0x39E9F, size: 0x8, addend: 0x0, symName: __ZN3std5panic12catch_unwind17h5fc810827586cd37E, symObjAddr: 0x1D4, symBinAddr: 0x12440, symSize: 0xDC }
  - { offset: 0x39FC4, size: 0x8, addend: 0x0, symName: __ZN3std5panic12catch_unwind17h63063d58c00ccce8E, symObjAddr: 0x2B0, symBinAddr: 0x1251C, symSize: 0x10C }
  - { offset: 0x3A120, size: 0x8, addend: 0x0, symName: __ZN3std5panic12catch_unwind17h94fd0ab3d99d2a21E, symObjAddr: 0x3BC, symBinAddr: 0x12628, symSize: 0xDC }
  - { offset: 0x3A245, size: 0x8, addend: 0x0, symName: __ZN3std5panic12catch_unwind17hd533a38d3223ee38E, symObjAddr: 0x498, symBinAddr: 0x12704, symSize: 0xCC }
  - { offset: 0x3A36A, size: 0x8, addend: 0x0, symName: __ZN3std5panic12catch_unwind17hee4244c728dc0021E, symObjAddr: 0x564, symBinAddr: 0x127D0, symSize: 0xF8 }
  - { offset: 0x3A4C4, size: 0x8, addend: 0x0, symName: __ZN3std5panic12catch_unwind17hf25eebb51eb6896fE, symObjAddr: 0x65C, symBinAddr: 0x128C8, symSize: 0xF8 }
  - { offset: 0x3A9E9, size: 0x8, addend: 0x0, symName: __ZN4core3fmt9Arguments3new17h01fcad06eca6319dE, symObjAddr: 0x0, symBinAddr: 0x12A14, symSize: 0x1C }
  - { offset: 0x3AE09, size: 0x8, addend: 0x0, symName: __ZN4core3fmt9Arguments3new17h01fcad06eca6319dE, symObjAddr: 0x0, symBinAddr: 0x12A14, symSize: 0x1C }
  - { offset: 0x3AE6F, size: 0x8, addend: 0x0, symName: __ZN4core3fmt9Arguments3new17h0fb3d927dbd27e36E, symObjAddr: 0x1C, symBinAddr: 0x12A30, symSize: 0x1C }
  - { offset: 0x3AEBB, size: 0x8, addend: 0x0, symName: __ZN4core3fmt9Arguments3new17h2ad11c697194674eE, symObjAddr: 0x38, symBinAddr: 0x12A4C, symSize: 0x1C }
  - { offset: 0x3AF21, size: 0x8, addend: 0x0, symName: __ZN4core3fmt9Arguments3new17h6ae42f56756e3d85E, symObjAddr: 0x54, symBinAddr: 0x12A68, symSize: 0x1C }
  - { offset: 0x3AF6D, size: 0x8, addend: 0x0, symName: __ZN4core3fmt9Arguments3new17h8f363039f9e5358eE, symObjAddr: 0x70, symBinAddr: 0x12A84, symSize: 0x1C }
  - { offset: 0x3AFB9, size: 0x8, addend: 0x0, symName: __ZN4core3fmt9Arguments3new17ha1ce1d3dccb90744E, symObjAddr: 0x8C, symBinAddr: 0x12AA0, symSize: 0x1C }
  - { offset: 0x3B005, size: 0x8, addend: 0x0, symName: __ZN4core3fmt9Arguments3new17hac6ecbe29e966cb9E, symObjAddr: 0xA8, symBinAddr: 0x12ABC, symSize: 0x1C }
  - { offset: 0x3B051, size: 0x8, addend: 0x0, symName: __ZN4core3fmt9Arguments3new17hc2dca2ec5180e51eE, symObjAddr: 0xC4, symBinAddr: 0x12AD8, symSize: 0x1C }
  - { offset: 0x3B0B7, size: 0x8, addend: 0x0, symName: __ZN4core3fmt9Arguments3new17hdc20ae4f0b165a1bE, symObjAddr: 0xE0, symBinAddr: 0x12AF4, symSize: 0x1C }
  - { offset: 0x3B107, size: 0x8, addend: 0x0, symName: __ZN5alloc3fmt6format17h44b15290df6af0caE, symObjAddr: 0x0, symBinAddr: 0x12B10, symSize: 0xD8 }
  - { offset: 0x3B61F, size: 0x8, addend: 0x0, symName: __ZN5alloc3fmt6format17h44b15290df6af0caE, symObjAddr: 0x0, symBinAddr: 0x12B10, symSize: 0xD8 }
  - { offset: 0x3B7CF, size: 0x8, addend: 0x0, symName: '__ZN79_$LT$pyo3..exceptions..PyException$u20$as$u20$pyo3..type_object..PyTypeInfo$GT$15type_object_raw17h77c6f51f7f9d6afcE', symObjAddr: 0x0, symBinAddr: 0x12BE8, symSize: 0x24 }
  - { offset: 0x3C92C, size: 0x8, addend: 0x0, symName: '__ZN79_$LT$pyo3..exceptions..PyException$u20$as$u20$pyo3..type_object..PyTypeInfo$GT$15type_object_raw17h77c6f51f7f9d6afcE', symObjAddr: 0x0, symBinAddr: 0x12BE8, symSize: 0x24 }
  - { offset: 0x3CE7D, size: 0x8, addend: 0x0, symName: __ZN4pyo35impl_10trampoline11module_init17hd27a78f25cd848c9E, symObjAddr: 0x0, symBinAddr: 0x12C0C, symSize: 0x28 }
  - { offset: 0x3E349, size: 0x8, addend: 0x0, symName: __ZN4pyo35impl_10trampoline11module_init17hd27a78f25cd848c9E, symObjAddr: 0x0, symBinAddr: 0x12C0C, symSize: 0x28 }
  - { offset: 0x3E375, size: 0x8, addend: 0x0, symName: __ZN4pyo35impl_10trampoline12getattrofunc17h2948598ed88c9d14E, symObjAddr: 0x28, symBinAddr: 0x12C34, symSize: 0x44 }
  - { offset: 0x3E3BD, size: 0x8, addend: 0x0, symName: __ZN4pyo35impl_10trampoline12setattrofunc17hdaf72407fc213285E, symObjAddr: 0x6C, symBinAddr: 0x12C78, symSize: 0x50 }
  - { offset: 0x3E413, size: 0x8, addend: 0x0, symName: __ZN4pyo35impl_10trampoline22fastcall_with_keywords17h033d9ad6f27bf9beE, symObjAddr: 0xBC, symBinAddr: 0x12CC8, symSize: 0x5C }
  - { offset: 0x3E477, size: 0x8, addend: 0x0, symName: __ZN4pyo35impl_10trampoline6noargs17he89be6a61e8417ccE, symObjAddr: 0x118, symBinAddr: 0x12D24, symSize: 0x64 }
  - { offset: 0x3E4BF, size: 0x8, addend: 0x0, symName: __ZN4pyo35impl_10trampoline7dealloc17h77d0b3c6bdfe675aE, symObjAddr: 0x17C, symBinAddr: 0x12D88, symSize: 0x34 }
  - { offset: 0x3E4F5, size: 0x8, addend: 0x0, symName: __ZN4pyo35impl_10trampoline7newfunc17h9ddc881735a6479bE, symObjAddr: 0x1B0, symBinAddr: 0x12DBC, symSize: 0x50 }
  - { offset: 0x3E54B, size: 0x8, addend: 0x0, symName: __ZN4pyo35impl_10trampoline8reprfunc17h10bfbf48e96ebc7dE, symObjAddr: 0x200, symBinAddr: 0x12E0C, symSize: 0x30 }
  - { offset: 0x3EE29, size: 0x8, addend: 0x0, symName: '__ZN4core3num21_$LT$impl$u20$i64$GT$13from_le_bytes17h0ddf7adbe6a3e0deE', symObjAddr: 0x0, symBinAddr: 0x12E3C, symSize: 0x1C }
  - { offset: 0x3EE56, size: 0x8, addend: 0x0, symName: '__ZN4core3num21_$LT$impl$u20$i64$GT$13from_le_bytes17h0ddf7adbe6a3e0deE', symObjAddr: 0x0, symBinAddr: 0x12E3C, symSize: 0x1C }
  - { offset: 0x3EEB0, size: 0x8, addend: 0x0, symName: '__ZN4core3num21_$LT$impl$u20$u32$GT$13from_le_bytes17h77233d26dddc9fd3E', symObjAddr: 0x1C, symBinAddr: 0x12E58, symSize: 0x1C }
  - { offset: 0x3EF28, size: 0x8, addend: 0x0, symName: '__ZN4core3num23_$LT$impl$u20$usize$GT$13unchecked_add18precondition_check17he96784f7dd5df6bfE', symObjAddr: 0x38, symBinAddr: 0x12E74, symSize: 0x64 }
  - { offset: 0x3F04C, size: 0x8, addend: 0x0, symName: __ZN4pyo35types4list6PyList3new17h41c06cc6a0cd862cE, symObjAddr: 0x0, symBinAddr: 0x12ED8, symSize: 0xBC }
  - { offset: 0x3FDB4, size: 0x8, addend: 0x0, symName: '__ZN4pyo35types4list6PyList3new28_$u7b$$u7b$closure$u7d$$u7d$17h1a08ea2d3190bf23E', symObjAddr: 0xBC, symBinAddr: 0x12F94, symSize: 0x50 }
  - { offset: 0x40BC0, size: 0x8, addend: 0x0, symName: __ZN4pyo35types4list6PyList3new17h41c06cc6a0cd862cE, symObjAddr: 0x0, symBinAddr: 0x12ED8, symSize: 0xBC }
  - { offset: 0x40C81, size: 0x8, addend: 0x0, symName: __ZN4core4sync6atomic5fence17h03849281af6f935fE, symObjAddr: 0x0, symBinAddr: 0x12FE4, symSize: 0xB0 }
  - { offset: 0x40CC7, size: 0x8, addend: 0x0, symName: __ZN4core4sync6atomic5fence17h03849281af6f935fE, symObjAddr: 0x0, symBinAddr: 0x12FE4, symSize: 0xB0 }
  - { offset: 0x40D19, size: 0x8, addend: 0x0, symName: __ZN9hashbrown3raw11TableLayout20calculate_layout_for17h216fbd2a8d25a35dE, symObjAddr: 0x0, symBinAddr: 0x13094, symSize: 0x220 }
  - { offset: 0x42441, size: 0x8, addend: 0x0, symName: __ZN9hashbrown3raw11TableLayout20calculate_layout_for17h216fbd2a8d25a35dE, symObjAddr: 0x0, symBinAddr: 0x13094, symSize: 0x220 }
  - { offset: 0x42980, size: 0x8, addend: 0x0, symName: __ZN9hashbrown3raw13RawTableInner15rehash_in_place17hf0b5203b25d37e33E, symObjAddr: 0x220, symBinAddr: 0x132B4, symSize: 0x41C }
  - { offset: 0x432E1, size: 0x8, addend: 0x0, symName: __ZN9hashbrown3raw13RawTableInner16fix_insert_index17h1e07d3db60aedffbE, symObjAddr: 0x63C, symBinAddr: 0x136D0, symSize: 0x100 }
  - { offset: 0x43553, size: 0x8, addend: 0x0, symName: __ZN9hashbrown3raw13RawTableInner17find_insert_index17h99f46f5c9e2d9394E, symObjAddr: 0x73C, symBinAddr: 0x137D0, symSize: 0xFC }
  - { offset: 0x43850, size: 0x8, addend: 0x0, symName: __ZN9hashbrown3raw13RawTableInner23prepare_rehash_in_place17h20c3bc8d8d0b904dE, symObjAddr: 0x838, symBinAddr: 0x138CC, symSize: 0x204 }
  - { offset: 0x43E46, size: 0x8, addend: 0x0, symName: __ZN9hashbrown3raw13RawTableInner26find_insert_index_in_group17h1332847956cc3031E, symObjAddr: 0xA3C, symBinAddr: 0x13AD0, symSize: 0x120 }
  - { offset: 0x44103, size: 0x8, addend: 0x0, symName: __ZN9hashbrown3raw13RawTableInner31find_or_find_insert_index_inner17h6fc1bdba17c664bbE, symObjAddr: 0xB5C, symBinAddr: 0x13BF0, symSize: 0x2A0 }
  - { offset: 0x444AF, size: 0x8, addend: 0x0, symName: '__ZN185_$LT$core..ops..control_flow..ControlFlow$LT$B$C$C$GT$$u20$as$u20$core..ops..try_trait..FromResidual$LT$core..ops..control_flow..ControlFlow$LT$B$C$core..convert..Infallible$GT$$GT$$GT$13from_residual17h324bcdd374c3b9caE', symObjAddr: 0x0, symBinAddr: 0x13E90, symSize: 0x2C }
  - { offset: 0x444D0, size: 0x8, addend: 0x0, symName: '__ZN185_$LT$core..ops..control_flow..ControlFlow$LT$B$C$C$GT$$u20$as$u20$core..ops..try_trait..FromResidual$LT$core..ops..control_flow..ControlFlow$LT$B$C$core..convert..Infallible$GT$$GT$$GT$13from_residual17h324bcdd374c3b9caE', symObjAddr: 0x0, symBinAddr: 0x13E90, symSize: 0x2C }
  - { offset: 0x4450E, size: 0x8, addend: 0x0, symName: '__ZN185_$LT$core..ops..control_flow..ControlFlow$LT$B$C$C$GT$$u20$as$u20$core..ops..try_trait..FromResidual$LT$core..ops..control_flow..ControlFlow$LT$B$C$core..convert..Infallible$GT$$GT$$GT$13from_residual17h6fdb6d4d4247938aE', symObjAddr: 0x2C, symBinAddr: 0x13EBC, symSize: 0x2C }
  - { offset: 0x44557, size: 0x8, addend: 0x0, symName: __ZN4core3ops12control_flow11ControlFlow5Break17h19fd285aba68745fE, symObjAddr: 0x58, symBinAddr: 0x13EE8, symSize: 0x14 }
  - { offset: 0x44598, size: 0x8, addend: 0x0, symName: '__ZN95_$LT$core..ops..control_flow..ControlFlow$LT$B$C$C$GT$$u20$as$u20$core..ops..try_trait..Try$GT$11from_output17h2ecb445731b14c12E', symObjAddr: 0x6C, symBinAddr: 0x13EFC, symSize: 0x18 }
  - { offset: 0x445D6, size: 0x8, addend: 0x0, symName: '__ZN95_$LT$core..ops..control_flow..ControlFlow$LT$B$C$C$GT$$u20$as$u20$core..ops..try_trait..Try$GT$11from_output17he790d4bc709ff0d1E', symObjAddr: 0x84, symBinAddr: 0x13F14, symSize: 0x1C }
  - { offset: 0x44614, size: 0x8, addend: 0x0, symName: '__ZN95_$LT$core..ops..control_flow..ControlFlow$LT$B$C$C$GT$$u20$as$u20$core..ops..try_trait..Try$GT$6branch17h69c04c606eb58bdcE', symObjAddr: 0xA0, symBinAddr: 0x13F30, symSize: 0x80 }
  - { offset: 0x4468E, size: 0x8, addend: 0x0, symName: '__ZN95_$LT$core..ops..control_flow..ControlFlow$LT$B$C$C$GT$$u20$as$u20$core..ops..try_trait..Try$GT$6branch17hf279743b9c06e373E', symObjAddr: 0x120, symBinAddr: 0x13FB0, symSize: 0x78 }
  - { offset: 0x44E51, size: 0x8, addend: 0x0, symName: '__ZN109_$LT$pyo3..pyclass_init..PyClassInitializer$LT$T$GT$$u20$as$u20$pyo3..pyclass_init..PyObjectInit$LT$T$GT$$GT$15into_new_object17h6b599c2c9d2dc305E', symObjAddr: 0x0, symBinAddr: 0x14028, symSize: 0x2E0 }
  - { offset: 0x4721D, size: 0x8, addend: 0x0, symName: '__ZN109_$LT$pyo3..pyclass_init..PyClassInitializer$LT$T$GT$$u20$as$u20$pyo3..pyclass_init..PyObjectInit$LT$T$GT$$GT$15into_new_object17h6b599c2c9d2dc305E', symObjAddr: 0x0, symBinAddr: 0x14028, symSize: 0x2E0 }
  - { offset: 0x473BB, size: 0x8, addend: 0x0, symName: '__ZN109_$LT$pyo3..pyclass_init..PyClassInitializer$LT$T$GT$$u20$as$u20$pyo3..pyclass_init..PyObjectInit$LT$T$GT$$GT$15into_new_object17h877a5f67ab681517E', symObjAddr: 0x2E0, symBinAddr: 0x14308, symSize: 0x29C }
  - { offset: 0x47557, size: 0x8, addend: 0x0, symName: '__ZN109_$LT$pyo3..pyclass_init..PyClassInitializer$LT$T$GT$$u20$as$u20$pyo3..pyclass_init..PyObjectInit$LT$T$GT$$GT$15into_new_object17h90aa8a15cf9b3691E', symObjAddr: 0x57C, symBinAddr: 0x145A4, symSize: 0x298 }
  - { offset: 0x476F3, size: 0x8, addend: 0x0, symName: '__ZN109_$LT$pyo3..pyclass_init..PyClassInitializer$LT$T$GT$$u20$as$u20$pyo3..pyclass_init..PyObjectInit$LT$T$GT$$GT$15into_new_object17hb4715fc57fa45cc3E', symObjAddr: 0x814, symBinAddr: 0x1483C, symSize: 0x298 }
  - { offset: 0x47944, size: 0x8, addend: 0x0, symName: '__ZN114_$LT$pyo3..pyclass_init..PyNativeTypeInitializer$LT$T$GT$$u20$as$u20$pyo3..pyclass_init..PyObjectInit$LT$T$GT$$GT$15into_new_object17hceda7a03a5610521E', symObjAddr: 0xAAC, symBinAddr: 0x14AD4, symSize: 0x3C }
  - { offset: 0x47DD2, size: 0x8, addend: 0x0, symName: '__ZN4pyo312pyclass_init27PyClassInitializer$LT$T$GT$24create_cell_from_subtype28_$u7b$$u7b$closure$u7d$$u7d$17h1a75abc1542fd660E', symObjAddr: 0xD78, symBinAddr: 0x14DA0, symSize: 0x14 }
  - { offset: 0x47E11, size: 0x8, addend: 0x0, symName: '__ZN4pyo312pyclass_init27PyClassInitializer$LT$T$GT$24create_cell_from_subtype28_$u7b$$u7b$closure$u7d$$u7d$17h35f24a6391255c71E', symObjAddr: 0xD8C, symBinAddr: 0x14DB4, symSize: 0x14 }
  - { offset: 0x47E50, size: 0x8, addend: 0x0, symName: '__ZN4pyo312pyclass_init27PyClassInitializer$LT$T$GT$24create_cell_from_subtype28_$u7b$$u7b$closure$u7d$$u7d$17h4947a2de68705baeE', symObjAddr: 0xDA0, symBinAddr: 0x14DC8, symSize: 0x14 }
  - { offset: 0x47E8F, size: 0x8, addend: 0x0, symName: '__ZN4pyo312pyclass_init27PyClassInitializer$LT$T$GT$24create_cell_from_subtype28_$u7b$$u7b$closure$u7d$$u7d$17h51d81e7c5aee2eb1E', symObjAddr: 0xDB4, symBinAddr: 0x14DDC, symSize: 0x14 }
  - { offset: 0x47EF1, size: 0x8, addend: 0x0, symName: '__ZN96_$LT$pyo3..pyclass_init..PyClassInitializer$LT$T$GT$$u20$as$u20$core..convert..From$LT$T$GT$$GT$4from17h389ec5efbc263b82E', symObjAddr: 0xEA0, symBinAddr: 0x14EC8, symSize: 0x34 }
  - { offset: 0x47F29, size: 0x8, addend: 0x0, symName: '__ZN96_$LT$pyo3..pyclass_init..PyClassInitializer$LT$T$GT$$u20$as$u20$core..convert..From$LT$T$GT$$GT$4from17h3efc4278f17d7378E', symObjAddr: 0xED4, symBinAddr: 0x14EFC, symSize: 0x34 }
  - { offset: 0x47F61, size: 0x8, addend: 0x0, symName: '__ZN96_$LT$pyo3..pyclass_init..PyClassInitializer$LT$T$GT$$u20$as$u20$core..convert..From$LT$T$GT$$GT$4from17h9a63be635c7e32e5E', symObjAddr: 0xF08, symBinAddr: 0x14F30, symSize: 0x34 }
  - { offset: 0x47F99, size: 0x8, addend: 0x0, symName: '__ZN96_$LT$pyo3..pyclass_init..PyClassInitializer$LT$T$GT$$u20$as$u20$core..convert..From$LT$T$GT$$GT$4from17hd6548e942c4f1af5E', symObjAddr: 0xF3C, symBinAddr: 0x14F64, symSize: 0x48 }
  - { offset: 0x494DE, size: 0x8, addend: 0x0, symName: '__ZN4pyo312pyclass_init27PyClassInitializer$LT$T$GT$11create_cell17h81d99e253f01d44eE', symObjAddr: 0xAE8, symBinAddr: 0x14B10, symSize: 0x94 }
  - { offset: 0x49530, size: 0x8, addend: 0x0, symName: '__ZN4pyo312pyclass_init27PyClassInitializer$LT$T$GT$11create_cell17h85d20599041f82baE', symObjAddr: 0xB7C, symBinAddr: 0x14BA4, symSize: 0x94 }
  - { offset: 0x49575, size: 0x8, addend: 0x0, symName: '__ZN4pyo312pyclass_init27PyClassInitializer$LT$T$GT$24create_cell_from_subtype17h2eecd873418ab7daE', symObjAddr: 0xC10, symBinAddr: 0x14C38, symSize: 0x54 }
  - { offset: 0x495D5, size: 0x8, addend: 0x0, symName: '__ZN4pyo312pyclass_init27PyClassInitializer$LT$T$GT$24create_cell_from_subtype17h72e6be828e126a2bE', symObjAddr: 0xC64, symBinAddr: 0x14C8C, symSize: 0x6C }
  - { offset: 0x49638, size: 0x8, addend: 0x0, symName: '__ZN4pyo312pyclass_init27PyClassInitializer$LT$T$GT$24create_cell_from_subtype17h8d89ab6e713ead88E', symObjAddr: 0xCD0, symBinAddr: 0x14CF8, symSize: 0x54 }
  - { offset: 0x4968B, size: 0x8, addend: 0x0, symName: '__ZN4pyo312pyclass_init27PyClassInitializer$LT$T$GT$24create_cell_from_subtype17heb31f7a06e8b83aeE', symObjAddr: 0xD24, symBinAddr: 0x14D4C, symSize: 0x54 }
  - { offset: 0x496DE, size: 0x8, addend: 0x0, symName: '__ZN4pyo312pyclass_init27PyClassInitializer$LT$T$GT$3new17h52cff696c3e615c5E', symObjAddr: 0xDC8, symBinAddr: 0x14DF0, symSize: 0x2C }
  - { offset: 0x49717, size: 0x8, addend: 0x0, symName: '__ZN4pyo312pyclass_init27PyClassInitializer$LT$T$GT$3new17h80bf89a52f825cbdE', symObjAddr: 0xDF4, symBinAddr: 0x14E1C, symSize: 0x2C }
  - { offset: 0x49750, size: 0x8, addend: 0x0, symName: '__ZN4pyo312pyclass_init27PyClassInitializer$LT$T$GT$3new17h9780cf33474ebd87E', symObjAddr: 0xE20, symBinAddr: 0x14E48, symSize: 0x50 }
  - { offset: 0x4978A, size: 0x8, addend: 0x0, symName: '__ZN4pyo312pyclass_init27PyClassInitializer$LT$T$GT$3new17hba3b5cb1e058be9fE', symObjAddr: 0xE70, symBinAddr: 0x14E98, symSize: 0x30 }
  - { offset: 0x49815, size: 0x8, addend: 0x0, symName: '__ZN106_$LT$core..ops..range..Range$LT$usize$GT$$u20$as$u20$core..slice..index..SliceIndex$LT$$u5b$T$u5d$$GT$$GT$9index_mut17h67de382e951e70aeE', symObjAddr: 0x0, symBinAddr: 0x14FAC, symSize: 0xBC }
  - { offset: 0x4A9BA, size: 0x8, addend: 0x0, symName: '__ZN106_$LT$core..ops..range..Range$LT$usize$GT$$u20$as$u20$core..slice..index..SliceIndex$LT$$u5b$T$u5d$$GT$$GT$9index_mut17h67de382e951e70aeE', symObjAddr: 0x0, symBinAddr: 0x14FAC, symSize: 0xBC }
  - { offset: 0x4AA6B, size: 0x8, addend: 0x0, symName: '__ZN108_$LT$core..ops..range..RangeTo$LT$usize$GT$$u20$as$u20$core..slice..index..SliceIndex$LT$$u5b$T$u5d$$GT$$GT$9index_mut17hfcbb4d9ca4c4e660E', symObjAddr: 0xBC, symBinAddr: 0x15068, symSize: 0x54 }
  - { offset: 0x4AAF2, size: 0x8, addend: 0x0, symName: '__ZN110_$LT$core..ops..range..RangeFrom$LT$usize$GT$$u20$as$u20$core..slice..index..SliceIndex$LT$$u5b$T$u5d$$GT$$GT$5index17h5cf252f3c52d4aa6E', symObjAddr: 0x110, symBinAddr: 0x150BC, symSize: 0x70 }
  - { offset: 0x4AB84, size: 0x8, addend: 0x0, symName: '__ZN110_$LT$core..ops..range..RangeFrom$LT$usize$GT$$u20$as$u20$core..slice..index..SliceIndex$LT$$u5b$T$u5d$$GT$$GT$5index17h88d4cd5ee698ddbeE', symObjAddr: 0x180, symBinAddr: 0x1512C, symSize: 0x70 }
  - { offset: 0x4B62A, size: 0x8, addend: 0x0, symName: '__ZN102_$LT$pyo3..instance..Py$LT$pyo3..types..any..PyAny$GT$$u20$as$u20$core..convert..From$LT$$RF$T$GT$$GT$4from17h6bdfc19751d52e98E', symObjAddr: 0x0, symBinAddr: 0x1519C, symSize: 0x38 }
  - { offset: 0x4D243, size: 0x8, addend: 0x0, symName: '__ZN102_$LT$pyo3..instance..Py$LT$pyo3..types..any..PyAny$GT$$u20$as$u20$core..convert..From$LT$$RF$T$GT$$GT$4from17h6bdfc19751d52e98E', symObjAddr: 0x0, symBinAddr: 0x1519C, symSize: 0x38 }
  - { offset: 0x4D280, size: 0x8, addend: 0x0, symName: '__ZN129_$LT$pyo3..instance..Py$LT$T$GT$$u20$as$u20$pyo3..conversion..IntoPy$LT$pyo3..instance..Py$LT$pyo3..types..any..PyAny$GT$$GT$$GT$7into_py17hb97adeae06a163f2E', symObjAddr: 0x70, symBinAddr: 0x1520C, symSize: 0x28 }
  - { offset: 0x4D2D2, size: 0x8, addend: 0x0, symName: '__ZN129_$LT$pyo3..instance..Py$LT$T$GT$$u20$as$u20$pyo3..conversion..IntoPy$LT$pyo3..instance..Py$LT$pyo3..types..any..PyAny$GT$$GT$$GT$7into_py17hebab2dd2bc12d70aE', symObjAddr: 0x98, symBinAddr: 0x15234, symSize: 0x28 }
  - { offset: 0x4D6EC, size: 0x8, addend: 0x0, symName: '__ZN4pyo38instance11Py$LT$T$GT$24from_borrowed_ptr_or_opt28_$u7b$$u7b$closure$u7d$$u7d$17he7d9d115d9601036E', symObjAddr: 0x350, symBinAddr: 0x154EC, symSize: 0xF4 }
  - { offset: 0x4D834, size: 0x8, addend: 0x0, symName: '__ZN66_$LT$pyo3..instance..Py$LT$T$GT$$u20$as$u20$core..clone..Clone$GT$5clone17h42bcd315d567b9d9E', symObjAddr: 0xA24, symBinAddr: 0x15BC0, symSize: 0x34 }
  - { offset: 0x4D871, size: 0x8, addend: 0x0, symName: '__ZN76_$LT$pyo3..instance..Py$LT$T$GT$$u20$as$u20$pyo3..conversion..ToPyObject$GT$9to_object17h81837ce471beac69E', symObjAddr: 0xA80, symBinAddr: 0x15C1C, symSize: 0x28 }
  - { offset: 0x4D8C9, size: 0x8, addend: 0x0, symName: '__ZN78_$LT$pyo3..instance..Py$LT$T$GT$$u20$as$u20$pyo3..conversion..FromPyObject$GT$7extract17h91b1b6fd1d2834b9E', symObjAddr: 0xAA8, symBinAddr: 0x15C44, symSize: 0x44 }
  - { offset: 0x4D905, size: 0x8, addend: 0x0, symName: '__ZN78_$LT$pyo3..instance..Py$LT$T$GT$$u20$as$u20$pyo3..conversion..FromPyObject$GT$7extract28_$u7b$$u7b$closure$u7d$$u7d$17hb75671393ad29a52E', symObjAddr: 0xAEC, symBinAddr: 0x15C88, symSize: 0x38 }
  - { offset: 0x4D984, size: 0x8, addend: 0x0, symName: '__ZN104_$LT$T$u20$as$u20$pyo3..callback..IntoPyCallbackOutput$LT$$BP$mut$u20$pyo3_ffi..object..PyObject$GT$$GT$7convert17h360d976a01dc233eE', symObjAddr: 0x38, symBinAddr: 0x151D4, symSize: 0x38 }
  - { offset: 0x4DC3F, size: 0x8, addend: 0x0, symName: '__ZN56_$LT$T$u20$as$u20$pyo3..impl_..wrap..OkWrap$LT$T$GT$$GT$4wrap17h0d1376d90d545774E', symObjAddr: 0x9F0, symBinAddr: 0x15B8C, symSize: 0x34 }
  - { offset: 0x4DC99, size: 0x8, addend: 0x0, symName: '__ZN71_$LT$T$u20$as$u20$pyo3..impl_..extract_argument..PyFunctionArgument$GT$7extract17h72807ae3d3ee3de3E', symObjAddr: 0xA58, symBinAddr: 0x15BF4, symSize: 0x28 }
  - { offset: 0x4E4C8, size: 0x8, addend: 0x0, symName: '__ZN4pyo38instance11Py$LT$T$GT$12call_method017hc8b6ec342f3351f9E', symObjAddr: 0xC0, symBinAddr: 0x1525C, symSize: 0xD4 }
  - { offset: 0x4EC2B, size: 0x8, addend: 0x0, symName: '__ZN4pyo38instance11Py$LT$T$GT$13into_non_null17h5d32bfe6e111d9adE', symObjAddr: 0x194, symBinAddr: 0x15330, symSize: 0x34 }
  - { offset: 0x4F226, size: 0x8, addend: 0x0, symName: '__ZN4pyo38instance11Py$LT$T$GT$13into_non_null17h8a22a15f05db974dE', symObjAddr: 0x1C8, symBinAddr: 0x15364, symSize: 0x34 }
  - { offset: 0x4F270, size: 0x8, addend: 0x0, symName: '__ZN4pyo38instance11Py$LT$T$GT$14from_owned_ptr17h7b762b4103266c25E', symObjAddr: 0x1FC, symBinAddr: 0x15398, symSize: 0x48 }
  - { offset: 0x4F2B7, size: 0x8, addend: 0x0, symName: '__ZN4pyo38instance11Py$LT$T$GT$14from_owned_ptr17hbd6e33889eba014aE', symObjAddr: 0x244, symBinAddr: 0x153E0, symSize: 0x48 }
  - { offset: 0x4F2FE, size: 0x8, addend: 0x0, symName: '__ZN4pyo38instance11Py$LT$T$GT$14from_owned_ptr17he63b8ba18ba3c171E', symObjAddr: 0x28C, symBinAddr: 0x15428, symSize: 0x48 }
  - { offset: 0x4F345, size: 0x8, addend: 0x0, symName: '__ZN4pyo38instance11Py$LT$T$GT$17from_borrowed_ptr17h5c47d52e3582637fE', symObjAddr: 0x2D4, symBinAddr: 0x15470, symSize: 0x48 }
  - { offset: 0x4F38C, size: 0x8, addend: 0x0, symName: '__ZN4pyo38instance11Py$LT$T$GT$24from_borrowed_ptr_or_opt17hee9e034b00ceed11E', symObjAddr: 0x31C, symBinAddr: 0x154B8, symSize: 0x34 }
  - { offset: 0x4F3D3, size: 0x8, addend: 0x0, symName: '__ZN4pyo38instance11Py$LT$T$GT$3new17h48c704a1fb5ba142E', symObjAddr: 0x444, symBinAddr: 0x155E0, symSize: 0xE4 }
  - { offset: 0x4F49B, size: 0x8, addend: 0x0, symName: '__ZN4pyo38instance11Py$LT$T$GT$3new17h5fa3d91ccae3de64E', symObjAddr: 0x528, symBinAddr: 0x156C4, symSize: 0xF4 }
  - { offset: 0x4F570, size: 0x8, addend: 0x0, symName: '__ZN4pyo38instance11Py$LT$T$GT$6as_ptr17he61a598f447b8b99E', symObjAddr: 0x61C, symBinAddr: 0x157B8, symSize: 0x1C }
  - { offset: 0x4F5BA, size: 0x8, addend: 0x0, symName: '__ZN4pyo38instance11Py$LT$T$GT$7extract17h01854b978ecb30f7E', symObjAddr: 0x638, symBinAddr: 0x157D4, symSize: 0x34 }
  - { offset: 0x4F626, size: 0x8, addend: 0x0, symName: '__ZN4pyo38instance11Py$LT$T$GT$8into_ptr17h50dfcc5af2f7e087E', symObjAddr: 0x66C, symBinAddr: 0x15808, symSize: 0x88 }
  - { offset: 0x4F68E, size: 0x8, addend: 0x0, symName: '__ZN4pyo38instance11Py$LT$T$GT$8into_ptr17h8978c586684f722dE', symObjAddr: 0x6F4, symBinAddr: 0x15890, symSize: 0x88 }
  - { offset: 0x4F6F6, size: 0x8, addend: 0x0, symName: '__ZN4pyo38instance11Py$LT$T$GT$8into_ptr17h8df88bd8d657658eE', symObjAddr: 0x77C, symBinAddr: 0x15918, symSize: 0x88 }
  - { offset: 0x4F75E, size: 0x8, addend: 0x0, symName: '__ZN4pyo38instance11Py$LT$T$GT$8into_ptr17hb428acbc192c8e23E', symObjAddr: 0x804, symBinAddr: 0x159A0, symSize: 0x88 }
  - { offset: 0x4F822, size: 0x8, addend: 0x0, symName: '__ZN4pyo38instance11Py$LT$T$GT$8into_ptr17hdd5ea401de424a3bE', symObjAddr: 0x88C, symBinAddr: 0x15A28, symSize: 0x88 }
  - { offset: 0x4F88A, size: 0x8, addend: 0x0, symName: '__ZN4pyo38instance11Py$LT$T$GT$8into_ptr17he160398017641e99E', symObjAddr: 0x914, symBinAddr: 0x15AB0, symSize: 0x88 }
  - { offset: 0x4F8FF, size: 0x8, addend: 0x0, symName: '__ZN4pyo38instance11Py$LT$T$GT$8into_ref17h28f319af0e77eb55E', symObjAddr: 0x99C, symBinAddr: 0x15B38, symSize: 0x28 }
  - { offset: 0x4F946, size: 0x8, addend: 0x0, symName: '__ZN4pyo38instance11Py$LT$T$GT$9clone_ref17h07ed976430629cceE', symObjAddr: 0x9C4, symBinAddr: 0x15B60, symSize: 0x2C }
  - { offset: 0x4F9EC, size: 0x8, addend: 0x0, symName: '__ZN4core3f6421_$LT$impl$u20$f64$GT$13from_le_bytes17ha1a1395e1bf8d15aE', symObjAddr: 0x0, symBinAddr: 0x15CC0, symSize: 0x1C }
  - { offset: 0x4FA19, size: 0x8, addend: 0x0, symName: '__ZN4core3f6421_$LT$impl$u20$f64$GT$13from_le_bytes17ha1a1395e1bf8d15aE', symObjAddr: 0x0, symBinAddr: 0x15CC0, symSize: 0x1C }
  - { offset: 0x4FA9F, size: 0x8, addend: 0x0, symName: '__ZN4core4hash5impls50_$LT$impl$u20$core..hash..Hash$u20$for$u20$u32$GT$4hash17h780964723caaf95bE', symObjAddr: 0x0, symBinAddr: 0x15CDC, symSize: 0x38 }
  - { offset: 0x4FAC0, size: 0x8, addend: 0x0, symName: '__ZN4core4hash5impls50_$LT$impl$u20$core..hash..Hash$u20$for$u20$u32$GT$4hash17h780964723caaf95bE', symObjAddr: 0x0, symBinAddr: 0x15CDC, symSize: 0x38 }
  - { offset: 0x4FB08, size: 0x8, addend: 0x0, symName: '__ZN4core4hash5impls52_$LT$impl$u20$core..hash..Hash$u20$for$u20$$RF$T$GT$4hash17h8c13ec1ca19fe6abE', symObjAddr: 0x38, symBinAddr: 0x15D14, symSize: 0x30 }
  - { offset: 0x4FCB2, size: 0x8, addend: 0x0, symName: __ZN4pyo35types4list13new_from_iter17hc8155c6b534956abE, symObjAddr: 0x0, symBinAddr: 0x15D44, symSize: 0x2A0 }
  - { offset: 0x50EE1, size: 0x8, addend: 0x0, symName: __ZN4pyo35types4list13new_from_iter17hc8155c6b534956abE, symObjAddr: 0x0, symBinAddr: 0x15D44, symSize: 0x2A0 }
  - { offset: 0x50FEA, size: 0x8, addend: 0x0, symName: '__ZN69_$LT$pyo3..types..list..PyList$u20$as$u20$core..ops..deref..Deref$GT$5deref17he146f90ce3a02673E', symObjAddr: 0x2A0, symBinAddr: 0x15FE4, symSize: 0x14 }
  - { offset: 0x5163E, size: 0x8, addend: 0x0, symName: '__ZN105_$LT$std..collections..hash..map..Iter$LT$K$C$V$GT$$u20$as$u20$core..iter..traits..iterator..Iterator$GT$4next17h127aae7ccccc5e06E', symObjAddr: 0x0, symBinAddr: 0x15FF8, symSize: 0x24 }
  - { offset: 0x52B12, size: 0x8, addend: 0x0, symName: '__ZN63_$LT$I$u20$as$u20$core..iter..traits..collect..IntoIterator$GT$9into_iter17h0b6f99f1d9273b27E', symObjAddr: 0x3B0, symBinAddr: 0x163A8, symSize: 0x30 }
  - { offset: 0x52B4A, size: 0x8, addend: 0x0, symName: '__ZN63_$LT$I$u20$as$u20$core..iter..traits..collect..IntoIterator$GT$9into_iter17h0fbfc97191aabaa3E', symObjAddr: 0x3E0, symBinAddr: 0x163D8, symSize: 0x30 }
  - { offset: 0x52BA7, size: 0x8, addend: 0x0, symName: '__ZN105_$LT$std..collections..hash..map..Iter$LT$K$C$V$GT$$u20$as$u20$core..iter..traits..iterator..Iterator$GT$4next17h127aae7ccccc5e06E', symObjAddr: 0x0, symBinAddr: 0x15FF8, symSize: 0x24 }
  - { offset: 0x52BE7, size: 0x8, addend: 0x0, symName: '__ZN105_$LT$std..collections..hash..map..Iter$LT$K$C$V$GT$$u20$as$u20$core..iter..traits..iterator..Iterator$GT$4next17h3689e610f3298613E', symObjAddr: 0x24, symBinAddr: 0x1601C, symSize: 0x24 }
  - { offset: 0x52C27, size: 0x8, addend: 0x0, symName: '__ZN105_$LT$std..collections..hash..map..Iter$LT$K$C$V$GT$$u20$as$u20$core..iter..traits..iterator..Iterator$GT$4next17h84591f64d510eee0E', symObjAddr: 0x48, symBinAddr: 0x16040, symSize: 0x24 }
  - { offset: 0x52D3D, size: 0x8, addend: 0x0, symName: '__ZN123_$LT$$RF$std..collections..hash..map..HashMap$LT$K$C$V$C$S$C$A$GT$$u20$as$u20$core..iter..traits..collect..IntoIterator$GT$9into_iter17he3368fc186776739E', symObjAddr: 0x6C, symBinAddr: 0x16064, symSize: 0x44 }
  - { offset: 0x54150, size: 0x8, addend: 0x0, symName: '__ZN3std11collections4hash3map20HashMap$LT$K$C$V$GT$3new17hb2b8760c65e33d3fE', symObjAddr: 0xB0, symBinAddr: 0x160A8, symSize: 0x7C }
  - { offset: 0x54283, size: 0x8, addend: 0x0, symName: '__ZN3std11collections4hash3map20HashMap$LT$K$C$V$GT$3new17hdeb5d9afe546cc51E', symObjAddr: 0x12C, symBinAddr: 0x16124, symSize: 0x7C }
  - { offset: 0x543B6, size: 0x8, addend: 0x0, symName: '__ZN3std11collections4hash3map20HashMap$LT$K$C$V$GT$3new17hedfcba7a330a25f6E', symObjAddr: 0x1A8, symBinAddr: 0x161A0, symSize: 0x7C }
  - { offset: 0x544A6, size: 0x8, addend: 0x0, symName: '__ZN3std11collections4hash3map28HashMap$LT$K$C$V$C$S$C$A$GT$3get17h0dfa96bbf3747cc1E', symObjAddr: 0x224, symBinAddr: 0x1621C, symSize: 0x30 }
  - { offset: 0x5451F, size: 0x8, addend: 0x0, symName: '__ZN3std11collections4hash3map28HashMap$LT$K$C$V$C$S$C$A$GT$3get17he03beecac9855924E', symObjAddr: 0x254, symBinAddr: 0x1624C, symSize: 0x30 }
  - { offset: 0x545B6, size: 0x8, addend: 0x0, symName: '__ZN3std11collections4hash3map28HashMap$LT$K$C$V$C$S$C$A$GT$4iter17h2c3bc4dfc6100ba3E', symObjAddr: 0x284, symBinAddr: 0x1627C, symSize: 0x44 }
  - { offset: 0x54628, size: 0x8, addend: 0x0, symName: '__ZN3std11collections4hash3map28HashMap$LT$K$C$V$C$S$C$A$GT$4iter17h5e591c7eb28e76b6E', symObjAddr: 0x2C8, symBinAddr: 0x162C0, symSize: 0x44 }
  - { offset: 0x546C0, size: 0x8, addend: 0x0, symName: '__ZN3std11collections4hash3map28HashMap$LT$K$C$V$C$S$C$A$GT$5clear17h4d01b88954ec0f1bE', symObjAddr: 0x30C, symBinAddr: 0x16304, symSize: 0x20 }
  - { offset: 0x54731, size: 0x8, addend: 0x0, symName: '__ZN3std11collections4hash3map28HashMap$LT$K$C$V$C$S$C$A$GT$6insert17h6d3d8054af2622faE', symObjAddr: 0x32C, symBinAddr: 0x16324, symSize: 0x28 }
  - { offset: 0x547A4, size: 0x8, addend: 0x0, symName: '__ZN3std11collections4hash3map28HashMap$LT$K$C$V$C$S$C$A$GT$6insert17h9b7c8449dc179bb2E', symObjAddr: 0x354, symBinAddr: 0x1634C, symSize: 0x30 }
  - { offset: 0x54816, size: 0x8, addend: 0x0, symName: '__ZN3std11collections4hash3map28HashMap$LT$K$C$V$C$S$C$A$GT$6insert17hc38d4e29a4258372E', symObjAddr: 0x384, symBinAddr: 0x1637C, symSize: 0x2C }
  - { offset: 0x548C1, size: 0x8, addend: 0x0, symName: '__ZN100_$LT$core..iter..adapters..take..Take$LT$I$GT$$u20$as$u20$core..iter..traits..iterator..Iterator$GT$4next17h29ac9c358d300c02E', symObjAddr: 0x0, symBinAddr: 0x16408, symSize: 0x58 }
  - { offset: 0x5505F, size: 0x8, addend: 0x0, symName: '__ZN100_$LT$core..iter..adapters..take..Take$LT$I$GT$$u20$as$u20$core..iter..traits..iterator..Iterator$GT$4next17h29ac9c358d300c02E', symObjAddr: 0x0, symBinAddr: 0x16408, symSize: 0x58 }
  - { offset: 0x5511E, size: 0x8, addend: 0x0, symName: __ZN4core4iter6traits8iterator8Iterator9enumerate17h727e655c0e83372bE, symObjAddr: 0x58, symBinAddr: 0x16460, symSize: 0x18 }
  - { offset: 0x5514F, size: 0x8, addend: 0x0, symName: __ZN4core4iter6traits8iterator8Iterator9enumerate17h727e655c0e83372bE, symObjAddr: 0x58, symBinAddr: 0x16460, symSize: 0x18 }
  - { offset: 0x55FC0, size: 0x8, addend: 0x0, symName: '__ZN5alloc3vec16Vec$LT$T$C$A$GT$7set_len18precondition_check17h43a4cc88da257be4E', symObjAddr: 0x0, symBinAddr: 0x16478, symSize: 0x60 }
  - { offset: 0x55FE1, size: 0x8, addend: 0x0, symName: '__ZN5alloc3vec16Vec$LT$T$C$A$GT$7set_len18precondition_check17h43a4cc88da257be4E', symObjAddr: 0x0, symBinAddr: 0x16478, symSize: 0x60 }
  - { offset: 0x5608B, size: 0x8, addend: 0x0, symName: __ZN4core4sync6atomic11atomic_load17h5910d7556efe3102E, symObjAddr: 0x0, symBinAddr: 0x164D8, symSize: 0xF8 }
  - { offset: 0x560D1, size: 0x8, addend: 0x0, symName: __ZN4core4sync6atomic11atomic_load17h5910d7556efe3102E, symObjAddr: 0x0, symBinAddr: 0x164D8, symSize: 0xF8 }
  - { offset: 0x56117, size: 0x8, addend: 0x0, symName: __ZN4core4sync6atomic23atomic_compare_exchange17hb6a2d81d451e2779E, symObjAddr: 0xF8, symBinAddr: 0x165D0, symSize: 0x4B4 }
  - { offset: 0x56358, size: 0x8, addend: 0x0, symName: __ZN4pyo35types6module8PyModule3add17h11eb0ed375c195beE, symObjAddr: 0x0, symBinAddr: 0x16A84, symSize: 0x1C4 }
  - { offset: 0x58372, size: 0x8, addend: 0x0, symName: __ZN4pyo35types6module8PyModule3add17h11eb0ed375c195beE, symObjAddr: 0x0, symBinAddr: 0x16A84, symSize: 0x1C4 }
  - { offset: 0x583DA, size: 0x8, addend: 0x0, symName: __ZN4pyo35types6module8PyModule3add17hc3d5384434dbb165E, symObjAddr: 0x1C4, symBinAddr: 0x16C48, symSize: 0x1D0 }
  - { offset: 0x58EC3, size: 0x8, addend: 0x0, symName: __ZN4pyo35types6module8PyModule9add_class17h0b02dd722433b740E, symObjAddr: 0x394, symBinAddr: 0x16E18, symSize: 0xBC }
  - { offset: 0x58F2C, size: 0x8, addend: 0x0, symName: __ZN4pyo35types6module8PyModule9add_class17h20cea25f84074898E, symObjAddr: 0x450, symBinAddr: 0x16ED4, symSize: 0xBC }
  - { offset: 0x591E2, size: 0x8, addend: 0x0, symName: __ZN4pyo35types6module8PyModule9add_class17h66e6d69ab51e4308E, symObjAddr: 0x50C, symBinAddr: 0x16F90, symSize: 0xBC }
  - { offset: 0x5924B, size: 0x8, addend: 0x0, symName: __ZN4pyo35types6module8PyModule9add_class17hec10b8ba493fc5c4E, symObjAddr: 0x5C8, symBinAddr: 0x1704C, symSize: 0xBC }
  - { offset: 0x5930A, size: 0x8, addend: 0x0, symName: __ZN5alloc4sync11data_offset17hf9916bf199c73dceE, symObjAddr: 0x0, symBinAddr: 0x17108, symSize: 0xB8 }
  - { offset: 0x5AF2F, size: 0x8, addend: 0x0, symName: __ZN5alloc4sync11data_offset17hf9916bf199c73dceE, symObjAddr: 0x0, symBinAddr: 0x17108, symSize: 0xB8 }
  - { offset: 0x5B461, size: 0x8, addend: 0x0, symName: '__ZN68_$LT$alloc..sync..Arc$LT$T$C$A$GT$$u20$as$u20$core..clone..Clone$GT$5clone17h3f63ba94a8074e09E', symObjAddr: 0x5D0, symBinAddr: 0x176D8, symSize: 0x84 }
  - { offset: 0x5B554, size: 0x8, addend: 0x0, symName: '__ZN68_$LT$alloc..sync..Arc$LT$T$C$A$GT$$u20$as$u20$core..clone..Clone$GT$5clone17h5d55faa7393f7695E', symObjAddr: 0x654, symBinAddr: 0x1775C, symSize: 0x84 }
  - { offset: 0x5B647, size: 0x8, addend: 0x0, symName: '__ZN68_$LT$alloc..sync..Arc$LT$T$C$A$GT$$u20$as$u20$core..clone..Clone$GT$5clone17h994ecd6ef16d0b01E', symObjAddr: 0x6D8, symBinAddr: 0x177E0, symSize: 0x84 }
  - { offset: 0x5B73A, size: 0x8, addend: 0x0, symName: '__ZN68_$LT$alloc..sync..Arc$LT$T$C$A$GT$$u20$as$u20$core..clone..Clone$GT$5clone17hd5bb542442aa9dfeE', symObjAddr: 0x75C, symBinAddr: 0x17864, symSize: 0x94 }
  - { offset: 0x5B833, size: 0x8, addend: 0x0, symName: '__ZN73_$LT$alloc..sync..Arc$LT$T$C$A$GT$$u20$as$u20$core..ops..deref..Deref$GT$5deref17h6681042e0260beedE', symObjAddr: 0x7F0, symBinAddr: 0x178F8, symSize: 0x1C }
  - { offset: 0x5B8A6, size: 0x8, addend: 0x0, symName: '__ZN73_$LT$alloc..sync..Arc$LT$T$C$A$GT$$u20$as$u20$core..ops..deref..Deref$GT$5deref17hb7721d5fb7ecd588E', symObjAddr: 0x80C, symBinAddr: 0x17914, symSize: 0x34 }
  - { offset: 0x5B919, size: 0x8, addend: 0x0, symName: '__ZN73_$LT$alloc..sync..Arc$LT$T$C$A$GT$$u20$as$u20$core..ops..deref..Deref$GT$5deref17hce63191a0e38aaa8E', symObjAddr: 0x840, symBinAddr: 0x17948, symSize: 0x1C }
  - { offset: 0x5B98C, size: 0x8, addend: 0x0, symName: '__ZN73_$LT$alloc..sync..Arc$LT$T$C$A$GT$$u20$as$u20$core..ops..deref..Deref$GT$5deref17hd3dc1bfc115c2ac2E', symObjAddr: 0x85C, symBinAddr: 0x17964, symSize: 0x1C }
  - { offset: 0x5C823, size: 0x8, addend: 0x0, symName: '__ZN5alloc4sync12Arc$LT$T$GT$3new17h2d9c9a663058d79aE', symObjAddr: 0xB8, symBinAddr: 0x171C0, symSize: 0xC8 }
  - { offset: 0x5C9ED, size: 0x8, addend: 0x0, symName: '__ZN5alloc4sync12Arc$LT$T$GT$3new17h61b6dbd02a169373E', symObjAddr: 0x180, symBinAddr: 0x17288, symSize: 0xC8 }
  - { offset: 0x5CBB7, size: 0x8, addend: 0x0, symName: '__ZN5alloc4sync12Arc$LT$T$GT$3new17h9df74bb36f67d3c8E', symObjAddr: 0x248, symBinAddr: 0x17350, symSize: 0xC8 }
  - { offset: 0x5CD08, size: 0x8, addend: 0x0, symName: '__ZN5alloc4sync12Arc$LT$T$GT$8from_raw17h601cbd8f5dd67f0dE', symObjAddr: 0x310, symBinAddr: 0x17418, symSize: 0x2C }
  - { offset: 0x5CD9E, size: 0x8, addend: 0x0, symName: '__ZN5alloc4sync16Arc$LT$T$C$A$GT$11from_raw_in17h9e0ceb26b03cb859E', symObjAddr: 0x33C, symBinAddr: 0x17444, symSize: 0x9C }
  - { offset: 0x5CEAA, size: 0x8, addend: 0x0, symName: '__ZN5alloc4sync16Arc$LT$T$C$A$GT$9drop_slow17h2b1c492a5b355017E', symObjAddr: 0x3D8, symBinAddr: 0x174E0, symSize: 0x74 }
  - { offset: 0x5CF0A, size: 0x8, addend: 0x0, symName: '__ZN5alloc4sync16Arc$LT$T$C$A$GT$9drop_slow17ha1115086b473d5faE', symObjAddr: 0x44C, symBinAddr: 0x17554, symSize: 0x74 }
  - { offset: 0x5CF6A, size: 0x8, addend: 0x0, symName: '__ZN5alloc4sync16Arc$LT$T$C$A$GT$9drop_slow17hb777f6a0bc66bd99E', symObjAddr: 0x4C0, symBinAddr: 0x175C8, symSize: 0x9C }
  - { offset: 0x5CFCA, size: 0x8, addend: 0x0, symName: '__ZN5alloc4sync16Arc$LT$T$C$A$GT$9drop_slow17hc29f7693231365d0E', symObjAddr: 0x55C, symBinAddr: 0x17664, symSize: 0x74 }
  - { offset: 0x5D42D, size: 0x8, addend: 0x0, symName: '__ZN51_$LT$T$u20$as$u20$core..borrow..Borrow$LT$T$GT$$GT$6borrow17haf262cd9a3176117E', symObjAddr: 0x0, symBinAddr: 0x17980, symSize: 0x14 }
  - { offset: 0x5D449, size: 0x8, addend: 0x0, symName: '__ZN51_$LT$T$u20$as$u20$core..borrow..Borrow$LT$T$GT$$GT$6borrow17haf262cd9a3176117E', symObjAddr: 0x0, symBinAddr: 0x17980, symSize: 0x14 }
  - { offset: 0x5D4B3, size: 0x8, addend: 0x0, symName: __ZN4pyo35impl_16extract_argument16extract_argument17h0a604da1a7f67234E, symObjAddr: 0x0, symBinAddr: 0x17994, symSize: 0x124 }
  - { offset: 0x5FE87, size: 0x8, addend: 0x0, symName: __ZN4pyo35impl_16extract_argument16extract_argument17h0a604da1a7f67234E, symObjAddr: 0x0, symBinAddr: 0x17994, symSize: 0x124 }
  - { offset: 0x5FF0C, size: 0x8, addend: 0x0, symName: __ZN4pyo35impl_16extract_argument16extract_argument17h1fdf93478a21bd6bE, symObjAddr: 0x124, symBinAddr: 0x17AB8, symSize: 0x124 }
  - { offset: 0x5FF91, size: 0x8, addend: 0x0, symName: __ZN4pyo35impl_16extract_argument16extract_argument17h3eab071315379588E, symObjAddr: 0x248, symBinAddr: 0x17BDC, symSize: 0x148 }
  - { offset: 0x60016, size: 0x8, addend: 0x0, symName: __ZN4pyo35impl_16extract_argument16extract_argument17h6a8a2b5de9fb2628E, symObjAddr: 0x390, symBinAddr: 0x17D24, symSize: 0x124 }
  - { offset: 0x6009B, size: 0x8, addend: 0x0, symName: __ZN4pyo35impl_16extract_argument16extract_argument17h716baffcc0b72d67E, symObjAddr: 0x4B4, symBinAddr: 0x17E48, symSize: 0x12C }
  - { offset: 0x60120, size: 0x8, addend: 0x0, symName: __ZN4pyo35impl_16extract_argument16extract_argument17hb38667037bd29e50E, symObjAddr: 0x5E0, symBinAddr: 0x17F74, symSize: 0x124 }
  - { offset: 0x601A5, size: 0x8, addend: 0x0, symName: __ZN4pyo35impl_16extract_argument16extract_argument17hba1e785fd43d22a8E, symObjAddr: 0x704, symBinAddr: 0x18098, symSize: 0x130 }
  - { offset: 0x6022B, size: 0x8, addend: 0x0, symName: __ZN4pyo35impl_16extract_argument16extract_argument17hcc8974076a17d713E, symObjAddr: 0x834, symBinAddr: 0x181C8, symSize: 0x148 }
  - { offset: 0x602B0, size: 0x8, addend: 0x0, symName: __ZN4pyo35impl_16extract_argument16extract_argument17hf63da9ed10ebf507E, symObjAddr: 0x97C, symBinAddr: 0x18310, symSize: 0x124 }
  - { offset: 0x604B5, size: 0x8, addend: 0x0, symName: '__ZN4pyo35impl_16extract_argument19FunctionDescription36find_keyword_parameter_in_positional28_$u7b$$u7b$closure$u7d$$u7d$17h27c3f00c2e2e4f3bE', symObjAddr: 0x2384, symBinAddr: 0x19D18, symSize: 0x48 }
  - { offset: 0x60515, size: 0x8, addend: 0x0, symName: '__ZN4pyo35impl_16extract_argument19FunctionDescription38find_keyword_parameter_in_keyword_only28_$u7b$$u7b$closure$u7d$$u7d$17h0400fae1334860f4E', symObjAddr: 0x23CC, symBinAddr: 0x19D60, symSize: 0x38 }
  - { offset: 0x60557, size: 0x8, addend: 0x0, symName: __ZN4pyo35impl_16extract_argument19extract_pyclass_ref17ha5842f4bf7b81679E, symObjAddr: 0x2404, symBinAddr: 0x19D98, symSize: 0xB0 }
  - { offset: 0x605B8, size: 0x8, addend: 0x0, symName: __ZN4pyo35impl_16extract_argument19extract_pyclass_ref17hbc882bc83570a376E, symObjAddr: 0x24B4, symBinAddr: 0x19E48, symSize: 0xB0 }
  - { offset: 0x60619, size: 0x8, addend: 0x0, symName: __ZN4pyo35impl_16extract_argument19extract_pyclass_ref17hee30bc292e8f5232E, symObjAddr: 0x2564, symBinAddr: 0x19EF8, symSize: 0xB0 }
  - { offset: 0x6067A, size: 0x8, addend: 0x0, symName: __ZN4pyo35impl_16extract_argument19extract_pyclass_ref17hfc89428d09f8f6e9E, symObjAddr: 0x2614, symBinAddr: 0x19FA8, symSize: 0xB0 }
  - { offset: 0x606DB, size: 0x8, addend: 0x0, symName: __ZN4pyo35impl_16extract_argument23extract_pyclass_ref_mut17ha5152f112956985eE, symObjAddr: 0x26C4, symBinAddr: 0x1A058, symSize: 0xB0 }
  - { offset: 0x6073C, size: 0x8, addend: 0x0, symName: __ZN4pyo35impl_16extract_argument23extract_pyclass_ref_mut17hb14034f954fd6797E, symObjAddr: 0x2774, symBinAddr: 0x1A108, symSize: 0xB0 }
  - { offset: 0x6079D, size: 0x8, addend: 0x0, symName: __ZN4pyo35impl_16extract_argument25extract_optional_argument17h399b8171976e5d4cE, symObjAddr: 0x2824, symBinAddr: 0x1A1B8, symSize: 0xC0 }
  - { offset: 0x60811, size: 0x8, addend: 0x0, symName: __ZN4pyo35impl_16extract_argument25extract_optional_argument17h924047e0154389c6E, symObjAddr: 0x28E4, symBinAddr: 0x1A278, symSize: 0xE0 }
  - { offset: 0x60885, size: 0x8, addend: 0x0, symName: __ZN4pyo35impl_16extract_argument25extract_optional_argument17hb1d9c10185938e08E, symObjAddr: 0x29C4, symBinAddr: 0x1A358, symSize: 0xE4 }
  - { offset: 0x608F9, size: 0x8, addend: 0x0, symName: __ZN4pyo35impl_16extract_argument29extract_argument_with_default17h75563cb51aafa311E, symObjAddr: 0x2AA8, symBinAddr: 0x1A43C, symSize: 0x8C }
  - { offset: 0x60975, size: 0x8, addend: 0x0, symName: __ZN4pyo35impl_16extract_argument29extract_argument_with_default17h75b513b2af76cf95E, symObjAddr: 0x2B34, symBinAddr: 0x1A4C8, symSize: 0x8C }
  - { offset: 0x609F6, size: 0x8, addend: 0x0, symName: '__ZN71_$LT$T$u20$as$u20$pyo3..impl_..extract_argument..PyFunctionArgument$GT$7extract17h2a34a1884f705fd8E', symObjAddr: 0x2BC0, symBinAddr: 0x1A554, symSize: 0x28 }
  - { offset: 0x60A35, size: 0x8, addend: 0x0, symName: '__ZN71_$LT$T$u20$as$u20$pyo3..impl_..extract_argument..PyFunctionArgument$GT$7extract17h6153bee8f65a5ec5E', symObjAddr: 0x2BE8, symBinAddr: 0x1A57C, symSize: 0x28 }
  - { offset: 0x60A74, size: 0x8, addend: 0x0, symName: '__ZN71_$LT$T$u20$as$u20$pyo3..impl_..extract_argument..PyFunctionArgument$GT$7extract17hcc70ab9411cdf016E', symObjAddr: 0x2C10, symBinAddr: 0x1A5A4, symSize: 0x28 }
  - { offset: 0x60AB3, size: 0x8, addend: 0x0, symName: '__ZN71_$LT$T$u20$as$u20$pyo3..impl_..extract_argument..PyFunctionArgument$GT$7extract17hf9d1e4252d05afebE', symObjAddr: 0x2C38, symBinAddr: 0x1A5CC, symSize: 0x28 }
  - { offset: 0x6173C, size: 0x8, addend: 0x0, symName: __ZN4pyo35impl_16extract_argument19FunctionDescription13handle_kwargs17h3ade3def6c01accbE, symObjAddr: 0xAA0, symBinAddr: 0x18434, symSize: 0x72C }
  - { offset: 0x61940, size: 0x8, addend: 0x0, symName: __ZN4pyo35impl_16extract_argument19FunctionDescription13handle_kwargs17hda8a3789c71d2e2eE, symObjAddr: 0x11CC, symBinAddr: 0x18B60, symSize: 0x748 }
  - { offset: 0x61B73, size: 0x8, addend: 0x0, symName: __ZN4pyo35impl_16extract_argument19FunctionDescription26extract_arguments_fastcall17h557b10fef8050ec5E, symObjAddr: 0x1914, symBinAddr: 0x192A8, symSize: 0x5E8 }
  - { offset: 0x61E59, size: 0x8, addend: 0x0, symName: __ZN4pyo35impl_16extract_argument19FunctionDescription28extract_arguments_tuple_dict17h2cdde0368a8ad368E, symObjAddr: 0x1EFC, symBinAddr: 0x19890, symSize: 0x488 }
  - { offset: 0x62FE0, size: 0x8, addend: 0x0, symName: '__ZN103_$LT$pyo3..types..boolobject..PyBool$u20$as$u20$core..convert..AsRef$LT$pyo3..types..any..PyAny$GT$$GT$6as_ref17h5f76dd7c538de5eaE', symObjAddr: 0x0, symBinAddr: 0x1A5F4, symSize: 0x14 }
  - { offset: 0x641A2, size: 0x8, addend: 0x0, symName: '__ZN103_$LT$pyo3..types..boolobject..PyBool$u20$as$u20$core..convert..AsRef$LT$pyo3..types..any..PyAny$GT$$GT$6as_ref17h5f76dd7c538de5eaE', symObjAddr: 0x0, symBinAddr: 0x1A5F4, symSize: 0x14 }
  - { offset: 0x641D4, size: 0x8, addend: 0x0, symName: '__ZN4pyo35types10boolobject116_$LT$impl$u20$pyo3..conversion..IntoPy$LT$pyo3..instance..Py$LT$pyo3..types..any..PyAny$GT$$GT$$u20$for$u20$bool$GT$7into_py17h5e2550ed3d783593E', symObjAddr: 0x14, symBinAddr: 0x1A608, symSize: 0x2C }
  - { offset: 0x6421F, size: 0x8, addend: 0x0, symName: '__ZN4pyo35types10boolobject63_$LT$impl$u20$pyo3..conversion..ToPyObject$u20$for$u20$bool$GT$9to_object17h4ecbdea1f1bc75b2E', symObjAddr: 0x40, symBinAddr: 0x1A634, symSize: 0x4C }
  - { offset: 0x647EF, size: 0x8, addend: 0x0, symName: __ZN4pyo35types10boolobject6PyBool3new17h8083220556a89892E, symObjAddr: 0x8C, symBinAddr: 0x1A680, symSize: 0x44 }
  - { offset: 0x6486F, size: 0x8, addend: 0x0, symName: '__ZN4core5array98_$LT$impl$u20$core..convert..TryFrom$LT$$RF$$u5b$T$u5d$$GT$$u20$for$u20$$u5b$T$u3b$$u20$N$u5d$$GT$8try_from17hde81f961374abba0E', symObjAddr: 0x0, symBinAddr: 0x1A6C4, symSize: 0x84 }
  - { offset: 0x649D9, size: 0x8, addend: 0x0, symName: '__ZN4core5array98_$LT$impl$u20$core..convert..TryFrom$LT$$RF$$u5b$T$u5d$$GT$$u20$for$u20$$u5b$T$u3b$$u20$N$u5d$$GT$8try_from17hde81f961374abba0E', symObjAddr: 0x0, symBinAddr: 0x1A6C4, symSize: 0x84 }
  - { offset: 0x64E10, size: 0x8, addend: 0x0, symName: '__ZN57_$LT$platon_core..Value$u20$as$u20$core..clone..Clone$GT$5clone17haea06399b24edf12E', symObjAddr: 0x0, symBinAddr: 0x1A748, symSize: 0x22C }
  - { offset: 0x64E27, size: 0x8, addend: 0x0, symName: '__ZN57_$LT$platon_core..Value$u20$as$u20$core..clone..Clone$GT$5clone17haea06399b24edf12E', symObjAddr: 0x0, symBinAddr: 0x1A748, symSize: 0x22C }
  - { offset: 0x653C8, size: 0x8, addend: 0x0, symName: '__ZN4pyo311conversions3std6string119_$LT$impl$u20$pyo3..conversion..IntoPy$LT$pyo3..instance..Py$LT$pyo3..types..any..PyAny$GT$$GT$$u20$for$u20$$RF$str$GT$7into_py17h061af4a37a6d38beE', symObjAddr: 0x0, symBinAddr: 0x1A974, symSize: 0x34 }
  - { offset: 0x665A1, size: 0x8, addend: 0x0, symName: '__ZN4pyo311conversions3std6string119_$LT$impl$u20$pyo3..conversion..IntoPy$LT$pyo3..instance..Py$LT$pyo3..types..any..PyAny$GT$$GT$$u20$for$u20$$RF$str$GT$7into_py17h061af4a37a6d38beE', symObjAddr: 0x0, symBinAddr: 0x1A974, symSize: 0x34 }
  - { offset: 0x665EC, size: 0x8, addend: 0x0, symName: '__ZN4pyo311conversions3std6string125_$LT$impl$u20$pyo3..conversion..IntoPy$LT$pyo3..instance..Py$LT$pyo3..types..string..PyString$GT$$GT$$u20$for$u20$$RF$str$GT$7into_py17h71523bb113c20f0fE', symObjAddr: 0x34, symBinAddr: 0x1A9A8, symSize: 0x34 }
  - { offset: 0x66C17, size: 0x8, addend: 0x0, symName: __ZN4core4iter6traits8iterator8Iterator3map17h68ec2585c36c88f0E, symObjAddr: 0x0, symBinAddr: 0x1A9DC, symSize: 0x30 }
  - { offset: 0x6758B, size: 0x8, addend: 0x0, symName: __ZN4core4iter6traits8iterator8Iterator3map17h68ec2585c36c88f0E, symObjAddr: 0x0, symBinAddr: 0x1A9DC, symSize: 0x30 }
  - { offset: 0x675F8, size: 0x8, addend: 0x0, symName: __ZN4core4iter6traits8iterator8Iterator3map17h93188d81ee585f46E, symObjAddr: 0x30, symBinAddr: 0x1AA0C, symSize: 0x30 }
  - { offset: 0x67665, size: 0x8, addend: 0x0, symName: __ZN4core4iter6traits8iterator8Iterator3map17hbbd8bd31cf3c01b0E, symObjAddr: 0x60, symBinAddr: 0x1AA3C, symSize: 0x1C }
  - { offset: 0x676BD, size: 0x8, addend: 0x0, symName: __ZN4core4iter6traits8iterator8Iterator6copied17h9384a7ac8d850252E, symObjAddr: 0x7C, symBinAddr: 0x1AA58, symSize: 0x1C }
  - { offset: 0x676FD, size: 0x8, addend: 0x0, symName: __ZN4core4iter6traits8iterator8Iterator8try_fold17h85e2d01b86130476E, symObjAddr: 0x98, symBinAddr: 0x1AA74, symSize: 0x138 }
  - { offset: 0x678A7, size: 0x8, addend: 0x0, symName: '__ZN91_$LT$core..slice..iter..Iter$LT$T$GT$$u20$as$u20$core..iter..traits..iterator..Iterator$GT$4fold17hdc8ab6a1b3e8c424E', symObjAddr: 0x220, symBinAddr: 0x1ABFC, symSize: 0x1D8 }
  - { offset: 0x67AA8, size: 0x8, addend: 0x0, symName: '__ZN91_$LT$core..slice..iter..Iter$LT$T$GT$$u20$as$u20$core..iter..traits..iterator..Iterator$GT$4fold17he1116c9f9b380ef2E', symObjAddr: 0x3F8, symBinAddr: 0x1ADD4, symSize: 0x1D8 }
  - { offset: 0x67CA9, size: 0x8, addend: 0x0, symName: '__ZN91_$LT$core..slice..iter..Iter$LT$T$GT$$u20$as$u20$core..iter..traits..iterator..Iterator$GT$4next17h02dfa57ce0451a5fE', symObjAddr: 0x5D0, symBinAddr: 0x1AFAC, symSize: 0x84 }
  - { offset: 0x67DAE, size: 0x8, addend: 0x0, symName: '__ZN91_$LT$core..slice..iter..Iter$LT$T$GT$$u20$as$u20$core..iter..traits..iterator..Iterator$GT$8position17h37c1f1f13f96b841E', symObjAddr: 0x654, symBinAddr: 0x1B030, symSize: 0x1D0 }
  - { offset: 0x6800B, size: 0x8, addend: 0x0, symName: '__ZN91_$LT$core..slice..iter..Iter$LT$T$GT$$u20$as$u20$core..iter..traits..iterator..Iterator$GT$8position17he7fe82bcbf1fb2b6E', symObjAddr: 0x824, symBinAddr: 0x1B200, symSize: 0x1D0 }
  - { offset: 0x68219, size: 0x8, addend: 0x0, symName: '__ZN91_$LT$core..slice..iter..Iter$LT$T$GT$$u20$as$u20$core..iter..traits..iterator..Iterator$GT$9size_hint17h01c3829e569054d5E', symObjAddr: 0x9F4, symBinAddr: 0x1B3D0, symSize: 0xB4 }
  - { offset: 0x6A7CA, size: 0x8, addend: 0x0, symName: '__ZN4core5slice4iter13Iter$LT$T$GT$3new17h87a0d99cf2754eabE', symObjAddr: 0x1D0, symBinAddr: 0x1ABAC, symSize: 0x50 }
  - { offset: 0x6AC98, size: 0x8, addend: 0x0, symName: '__ZN73_$LT$pyo3..types..module..PyModule$u20$as$u20$core..ops..deref..Deref$GT$5deref17h590eeb5d300a6c05E', symObjAddr: 0x0, symBinAddr: 0x1B484, symSize: 0x14 }
  - { offset: 0x6BD1F, size: 0x8, addend: 0x0, symName: '__ZN73_$LT$pyo3..types..module..PyModule$u20$as$u20$core..ops..deref..Deref$GT$5deref17h590eeb5d300a6c05E', symObjAddr: 0x0, symBinAddr: 0x1B484, symSize: 0x14 }
  - { offset: 0x6C1FB, size: 0x8, addend: 0x0, symName: '__ZN103_$LT$alloc..vec..into_iter..IntoIter$LT$T$C$A$GT$$u20$as$u20$core..iter..traits..iterator..Iterator$GT$4next17hbb94aeb3a11bcd73E', symObjAddr: 0x0, symBinAddr: 0x1B498, symSize: 0x88 }
  - { offset: 0x6DA17, size: 0x8, addend: 0x0, symName: __ZN4core4iter6traits10exact_size17ExactSizeIterator3len17hd9c93177372b7357E, symObjAddr: 0x2EC, symBinAddr: 0x1B784, symSize: 0xB8 }
  - { offset: 0x6DB81, size: 0x8, addend: 0x0, symName: __ZN4core4iter6traits8iterator8Iterator3map17hfcce030a364af5c3E, symObjAddr: 0x3A4, symBinAddr: 0x1B83C, symSize: 0x28 }
  - { offset: 0x6E2D8, size: 0x8, addend: 0x0, symName: '__ZN103_$LT$alloc..vec..into_iter..IntoIter$LT$T$C$A$GT$$u20$as$u20$core..iter..traits..iterator..Iterator$GT$4next17hbb94aeb3a11bcd73E', symObjAddr: 0x0, symBinAddr: 0x1B498, symSize: 0x88 }
  - { offset: 0x6E432, size: 0x8, addend: 0x0, symName: '__ZN103_$LT$alloc..vec..into_iter..IntoIter$LT$T$C$A$GT$$u20$as$u20$core..iter..traits..iterator..Iterator$GT$8try_fold17h18133890fdfce956E', symObjAddr: 0x88, symBinAddr: 0x1B520, symSize: 0x174 }
  - { offset: 0x6E609, size: 0x8, addend: 0x0, symName: '__ZN103_$LT$alloc..vec..into_iter..IntoIter$LT$T$C$A$GT$$u20$as$u20$core..iter..traits..iterator..Iterator$GT$9size_hint17ha8d2d7515c862c55E', symObjAddr: 0x1FC, symBinAddr: 0x1B694, symSize: 0xB4 }
  - { offset: 0x6E728, size: 0x8, addend: 0x0, symName: '__ZN114_$LT$alloc..vec..into_iter..IntoIter$LT$T$C$A$GT$$u20$as$u20$core..iter..traits..exact_size..ExactSizeIterator$GT$8is_empty17he3f2789929e7e744E', symObjAddr: 0x2B0, symBinAddr: 0x1B748, symSize: 0x3C }
  - { offset: 0x6E992, size: 0x8, addend: 0x0, symName: '__ZN5alloc3vec9into_iter21IntoIter$LT$T$C$A$GT$16as_raw_mut_slice17h5e6a7741d030dbfaE', symObjAddr: 0x3CC, symBinAddr: 0x1B864, symSize: 0xCC }
  - { offset: 0x6EAE8, size: 0x8, addend: 0x0, symName: '__ZN4core3ptr7mut_ptr31_$LT$impl$u20$$BP$mut$u20$T$GT$7is_null17h4fbc5e02ae0184d2E', symObjAddr: 0x0, symBinAddr: 0x1B930, symSize: 0x18 }
  - { offset: 0x6EB46, size: 0x8, addend: 0x0, symName: '__ZN4core3ptr7mut_ptr31_$LT$impl$u20$$BP$mut$u20$T$GT$7is_null17h4fbc5e02ae0184d2E', symObjAddr: 0x0, symBinAddr: 0x1B930, symSize: 0x18 }
  - { offset: 0x6EBE2, size: 0x8, addend: 0x0, symName: __ZN4core9core_arch10arm_shared4neon9generated18vreinterpret_s8_u817h936f10facf0e4c36E, symObjAddr: 0x0, symBinAddr: 0x1B948, symSize: 0xC }
  - { offset: 0x6EC08, size: 0x8, addend: 0x0, symName: __ZN4core9core_arch10arm_shared4neon9generated18vreinterpret_s8_u817h936f10facf0e4c36E, symObjAddr: 0x0, symBinAddr: 0x1B948, symSize: 0xC }
  - { offset: 0x6EC36, size: 0x8, addend: 0x0, symName: __ZN4core9core_arch10arm_shared4neon9generated19vreinterpret_u64_u817h8a72059adaf9ba2dE, symObjAddr: 0xC, symBinAddr: 0x1B954, symSize: 0xC }
  - { offset: 0x6EC64, size: 0x8, addend: 0x0, symName: __ZN4core9core_arch10arm_shared4neon9generated7vceq_u817h54779b3f6c3027b8E, symObjAddr: 0x18, symBinAddr: 0x1B960, symSize: 0x14 }
  - { offset: 0x6ECA1, size: 0x8, addend: 0x0, symName: __ZN4core9core_arch10arm_shared4neon9generated7vorr_u817h80132b376c8be997E, symObjAddr: 0x2C, symBinAddr: 0x1B974, symSize: 0x14 }
  - { offset: 0x6ECDE, size: 0x8, addend: 0x0, symName: __ZN4core9core_arch10arm_shared4neon9generated9vdup_n_u817h43e81595f00a56ccE, symObjAddr: 0x40, symBinAddr: 0x1B988, symSize: 0x2C }
  - { offset: 0x6EE4C, size: 0x8, addend: 0x0, symName: '__ZN69_$LT$pyo3..types..dict..PyDict$u20$as$u20$core..ops..deref..Deref$GT$5deref17h2e6d82309515e57dE', symObjAddr: 0x0, symBinAddr: 0x1B9B4, symSize: 0x14 }
  - { offset: 0x7006F, size: 0x8, addend: 0x0, symName: '__ZN69_$LT$pyo3..types..dict..PyDict$u20$as$u20$core..ops..deref..Deref$GT$5deref17h2e6d82309515e57dE', symObjAddr: 0x0, symBinAddr: 0x1B9B4, symSize: 0x14 }
  - { offset: 0x700A1, size: 0x8, addend: 0x0, symName: '__ZN74_$LT$pyo3..types..dict..PyDict$u20$as$u20$pyo3..conversion..ToPyObject$GT$9to_object17h4e38048e8c34c76dE', symObjAddr: 0x14, symBinAddr: 0x1B9C8, symSize: 0x2C }
  - { offset: 0x700EC, size: 0x8, addend: 0x0, symName: '__ZN92_$LT$pyo3..types..dict..PyDictIterator$u20$as$u20$core..iter..traits..iterator..Iterator$GT$4next17hc61ab85bc98105bcE', symObjAddr: 0x40, symBinAddr: 0x1B9F4, symSize: 0x114 }
  - { offset: 0x7074C, size: 0x8, addend: 0x0, symName: __ZN8pyo3_ffi6object17PyType_HasFeature17hdab7ca37687d2c97E, symObjAddr: 0x0, symBinAddr: 0x1BB08, symSize: 0x88 }
  - { offset: 0x70781, size: 0x8, addend: 0x0, symName: __ZN8pyo3_ffi6object17PyType_HasFeature17hdab7ca37687d2c97E, symObjAddr: 0x0, symBinAddr: 0x1BB08, symSize: 0x88 }
  - { offset: 0x707BE, size: 0x8, addend: 0x0, symName: __ZN8pyo3_ffi6object18PyObject_TypeCheck17h4686969401f8eed3E, symObjAddr: 0x88, symBinAddr: 0x1BB90, symSize: 0x74 }
  - { offset: 0x707FB, size: 0x8, addend: 0x0, symName: __ZN8pyo3_ffi6object19PyType_FastSubclass17hc74be1f1115a403eE, symObjAddr: 0xFC, symBinAddr: 0x1BC04, symSize: 0x28 }
  - { offset: 0x70838, size: 0x8, addend: 0x0, symName: __ZN8pyo3_ffi6object7Py_None17h1253070b105d81f2E, symObjAddr: 0x124, symBinAddr: 0x1BC2C, symSize: 0xC }
  - { offset: 0x70856, size: 0x8, addend: 0x0, symName: __ZN8pyo3_ffi6object7Py_TYPE17h62605db0b44965b5E, symObjAddr: 0x130, symBinAddr: 0x1BC38, symSize: 0x74 }
  - { offset: 0x71CFE, size: 0x8, addend: 0x0, symName: '__ZN4core3ptr8non_null16NonNull$LT$T$GT$13new_unchecked18precondition_check17h8008d488911b7708E', symObjAddr: 0x0, symBinAddr: 0x1BCAC, symSize: 0x58 }
  - { offset: 0x71D24, size: 0x8, addend: 0x0, symName: '__ZN4core3ptr8non_null16NonNull$LT$T$GT$13new_unchecked18precondition_check17h8008d488911b7708E', symObjAddr: 0x0, symBinAddr: 0x1BCAC, symSize: 0x58 }
  - { offset: 0x71DD5, size: 0x8, addend: 0x0, symName: __ZN4core3ptr19copy_nonoverlapping18precondition_check17h334ce8c04526f467E, symObjAddr: 0x0, symBinAddr: 0x1BD04, symSize: 0x168 }
  - { offset: 0x71EBD, size: 0x8, addend: 0x0, symName: __ZN4core3ptr19copy_nonoverlapping18precondition_check17h334ce8c04526f467E, symObjAddr: 0x0, symBinAddr: 0x1BD04, symSize: 0x168 }
  - { offset: 0x720E4, size: 0x8, addend: 0x0, symName: __ZN4core3ptr25swap_nonoverlapping_bytes17h11b68b57f4c9a7a3E, symObjAddr: 0x168, symBinAddr: 0x1BE6C, symSize: 0xD8 }
  - { offset: 0x7228D, size: 0x8, addend: 0x0, symName: __ZN4core3ptr25swap_nonoverlapping_bytes25swap_nonoverlapping_short17h1b42a9e06fad992bE, symObjAddr: 0x240, symBinAddr: 0x1BF44, symSize: 0x11C }
  - { offset: 0x725E9, size: 0x8, addend: 0x0, symName: '__ZN48_$LT$$RF$A$u20$as$u20$core..alloc..Allocator$GT$10deallocate17h9d547b7f54d0107fE', symObjAddr: 0x0, symBinAddr: 0x1C060, symSize: 0x38 }
  - { offset: 0x728DB, size: 0x8, addend: 0x0, symName: '__ZN48_$LT$$RF$A$u20$as$u20$core..alloc..Allocator$GT$10deallocate17h9d547b7f54d0107fE', symObjAddr: 0x0, symBinAddr: 0x1C060, symSize: 0x38 }
  - { offset: 0x729C4, size: 0x8, addend: 0x0, symName: '__ZN5alloc7raw_vec19RawVec$LT$T$C$A$GT$8grow_one17h0478d2bee5cb6a18E', symObjAddr: 0x0, symBinAddr: 0x1C098, symSize: 0x84 }
  - { offset: 0x74436, size: 0x8, addend: 0x0, symName: '__ZN5alloc7raw_vec19RawVec$LT$T$C$A$GT$8grow_one17h0478d2bee5cb6a18E', symObjAddr: 0x0, symBinAddr: 0x1C098, symSize: 0x84 }
  - { offset: 0x7450D, size: 0x8, addend: 0x0, symName: '__ZN5alloc7raw_vec19RawVec$LT$T$C$A$GT$8grow_one17h85fe3a674d6e1615E', symObjAddr: 0x84, symBinAddr: 0x1C11C, symSize: 0x88 }
  - { offset: 0x74596, size: 0x8, addend: 0x0, symName: '__ZN102_$LT$core..iter..adapters..map..Map$LT$I$C$F$GT$$u20$as$u20$core..iter..traits..iterator..Iterator$GT$4fold17h4962602895451d01E', symObjAddr: 0x0, symBinAddr: 0x1C1A4, symSize: 0x4C }
  - { offset: 0x74DE9, size: 0x8, addend: 0x0, symName: '__ZN4core4iter8adapters3map8map_fold28_$u7b$$u7b$closure$u7d$$u7d$17h14b4e9bb37691da5E', symObjAddr: 0x4FC, symBinAddr: 0x1C6A0, symSize: 0x7C }
  - { offset: 0x74E6E, size: 0x8, addend: 0x0, symName: '__ZN4core4iter8adapters3map8map_fold28_$u7b$$u7b$closure$u7d$$u7d$17h5a4f55e62d7679aaE', symObjAddr: 0x578, symBinAddr: 0x1C71C, symSize: 0x7C }
  - { offset: 0x74EF9, size: 0x8, addend: 0x0, symName: '__ZN102_$LT$core..iter..adapters..map..Map$LT$I$C$F$GT$$u20$as$u20$core..iter..traits..iterator..Iterator$GT$4fold17h4962602895451d01E', symObjAddr: 0x0, symBinAddr: 0x1C1A4, symSize: 0x4C }
  - { offset: 0x74F92, size: 0x8, addend: 0x0, symName: '__ZN102_$LT$core..iter..adapters..map..Map$LT$I$C$F$GT$$u20$as$u20$core..iter..traits..iterator..Iterator$GT$4fold17hf6d961fb8afffbf8E', symObjAddr: 0x4C, symBinAddr: 0x1C1F0, symSize: 0x4C }
  - { offset: 0x7502B, size: 0x8, addend: 0x0, symName: '__ZN102_$LT$core..iter..adapters..map..Map$LT$I$C$F$GT$$u20$as$u20$core..iter..traits..iterator..Iterator$GT$4next17he17c6d47e6df0590E', symObjAddr: 0x98, symBinAddr: 0x1C23C, symSize: 0x78 }
  - { offset: 0x750C7, size: 0x8, addend: 0x0, symName: '__ZN102_$LT$core..iter..adapters..map..Map$LT$I$C$F$GT$$u20$as$u20$core..iter..traits..iterator..Iterator$GT$8try_fold17h0fd97418a53b9baeE', symObjAddr: 0x110, symBinAddr: 0x1C2B4, symSize: 0x54 }
  - { offset: 0x7516A, size: 0x8, addend: 0x0, symName: '__ZN102_$LT$core..iter..adapters..map..Map$LT$I$C$F$GT$$u20$as$u20$core..iter..traits..iterator..Iterator$GT$8try_fold17h53d0436e26e693e3E', symObjAddr: 0x164, symBinAddr: 0x1C308, symSize: 0x34 }
  - { offset: 0x751E8, size: 0x8, addend: 0x0, symName: '__ZN102_$LT$core..iter..adapters..map..Map$LT$I$C$F$GT$$u20$as$u20$core..iter..traits..iterator..Iterator$GT$9size_hint17h27de06e36cb8e8d2E', symObjAddr: 0x198, symBinAddr: 0x1C33C, symSize: 0x24 }
  - { offset: 0x7522F, size: 0x8, addend: 0x0, symName: '__ZN102_$LT$core..iter..adapters..map..Map$LT$I$C$F$GT$$u20$as$u20$core..iter..traits..iterator..Iterator$GT$9size_hint17h5b8a3004c178432eE', symObjAddr: 0x1BC, symBinAddr: 0x1C360, symSize: 0x24 }
  - { offset: 0x75276, size: 0x8, addend: 0x0, symName: '__ZN102_$LT$core..iter..adapters..map..Map$LT$I$C$F$GT$$u20$as$u20$core..iter..traits..iterator..Iterator$GT$9size_hint17h81de12fb1808f758E', symObjAddr: 0x1E0, symBinAddr: 0x1C384, symSize: 0x24 }
  - { offset: 0x752BD, size: 0x8, addend: 0x0, symName: '__ZN102_$LT$core..iter..adapters..map..Map$LT$I$C$F$GT$$u20$as$u20$core..iter..traits..iterator..Iterator$GT$9size_hint17hc53857d38aaba175E', symObjAddr: 0x204, symBinAddr: 0x1C3A8, symSize: 0x24 }
  - { offset: 0x753D9, size: 0x8, addend: 0x0, symName: '__ZN4core4iter8adapters3map12map_try_fold28_$u7b$$u7b$closure$u7d$$u7d$17h6c9bb1d9b4e181ebE', symObjAddr: 0x3BC, symBinAddr: 0x1C560, symSize: 0xA0 }
  - { offset: 0x7546B, size: 0x8, addend: 0x0, symName: '__ZN4core4iter8adapters3map12map_try_fold28_$u7b$$u7b$closure$u7d$$u7d$17he1c3fb1da9eec268E', symObjAddr: 0x45C, symBinAddr: 0x1C600, symSize: 0xA0 }
  - { offset: 0x75503, size: 0x8, addend: 0x0, symName: '__ZN113_$LT$core..iter..adapters..map..Map$LT$I$C$F$GT$$u20$as$u20$core..iter..traits..exact_size..ExactSizeIterator$GT$3len17he4cce8ad3e2614a8E', symObjAddr: 0x228, symBinAddr: 0x1C3CC, symSize: 0x24 }
  - { offset: 0x7554A, size: 0x8, addend: 0x0, symName: '__ZN113_$LT$core..iter..adapters..map..Map$LT$I$C$F$GT$$u20$as$u20$core..iter..traits..exact_size..ExactSizeIterator$GT$8is_empty17hc35299aa1aa6a40eE', symObjAddr: 0x24C, symBinAddr: 0x1C3F0, symSize: 0x24 }
  - { offset: 0x7574A, size: 0x8, addend: 0x0, symName: __ZN4core4iter6traits8iterator8Iterator10advance_by17h19332f2853c86076E, symObjAddr: 0x270, symBinAddr: 0x1C414, symSize: 0x28 }
  - { offset: 0x75790, size: 0x8, addend: 0x0, symName: __ZN4core4iter6traits8iterator8Iterator3nth17h2e1b6be5e054a620E, symObjAddr: 0x298, symBinAddr: 0x1C43C, symSize: 0x68 }
  - { offset: 0x7583A, size: 0x8, addend: 0x0, symName: __ZN4core4iter6traits8iterator8Iterator7collect17hb3b170662eba59d2E, symObjAddr: 0x300, symBinAddr: 0x1C4A4, symSize: 0x14 }
  - { offset: 0x7587B, size: 0x8, addend: 0x0, symName: __ZN4core4iter6traits8iterator8Iterator7collect17hc7ee86e4ca0ff93eE, symObjAddr: 0x314, symBinAddr: 0x1C4B8, symSize: 0x2C }
  - { offset: 0x758BB, size: 0x8, addend: 0x0, symName: __ZN4core4iter6traits8iterator8Iterator7collect17hca2e025c781b792bE, symObjAddr: 0x340, symBinAddr: 0x1C4E4, symSize: 0x14 }
  - { offset: 0x758FC, size: 0x8, addend: 0x0, symName: __ZN4core4iter6traits8iterator8Iterator8for_each17h2d68dc8195929ea1E, symObjAddr: 0x354, symBinAddr: 0x1C4F8, symSize: 0x34 }
  - { offset: 0x75968, size: 0x8, addend: 0x0, symName: __ZN4core4iter6traits8iterator8Iterator8for_each17h59e59e840385d25eE, symObjAddr: 0x388, symBinAddr: 0x1C52C, symSize: 0x34 }
  - { offset: 0x759DE, size: 0x8, addend: 0x0, symName: '__ZN87_$LT$I$u20$as$u20$core..iter..traits..iterator..Iterator..advance_by..SpecAdvanceBy$GT$15spec_advance_by17hcd31a3399abc0f73E', symObjAddr: 0x640, symBinAddr: 0x1C7E4, symSize: 0x8C }
  - { offset: 0x75AA7, size: 0x8, addend: 0x0, symName: '__ZN63_$LT$I$u20$as$u20$core..iter..traits..collect..IntoIterator$GT$9into_iter17h5e240c7fa14549aeE', symObjAddr: 0x5F4, symBinAddr: 0x1C798, symSize: 0x18 }
  - { offset: 0x75ADE, size: 0x8, addend: 0x0, symName: '__ZN63_$LT$I$u20$as$u20$core..iter..traits..collect..IntoIterator$GT$9into_iter17h6e0e9e1cad5827b4E', symObjAddr: 0x60C, symBinAddr: 0x1C7B0, symSize: 0x18 }
  - { offset: 0x75B15, size: 0x8, addend: 0x0, symName: '__ZN63_$LT$I$u20$as$u20$core..iter..traits..collect..IntoIterator$GT$9into_iter17hc81cbc85efd98934E', symObjAddr: 0x624, symBinAddr: 0x1C7C8, symSize: 0x1C }
  - { offset: 0x77CEA, size: 0x8, addend: 0x0, symName: '__ZN52_$LT$Q$u20$as$u20$hashbrown..Equivalent$LT$K$GT$$GT$10equivalent17h6c418585931fbdd4E', symObjAddr: 0x0, symBinAddr: 0x1C870, symSize: 0x40 }
  - { offset: 0x77D7D, size: 0x8, addend: 0x0, symName: '__ZN52_$LT$Q$u20$as$u20$hashbrown..Equivalent$LT$K$GT$$GT$10equivalent17h6c418585931fbdd4E', symObjAddr: 0x0, symBinAddr: 0x1C870, symSize: 0x40 }
  - { offset: 0x77DFD, size: 0x8, addend: 0x0, symName: '__ZN4core5slice29_$LT$impl$u20$$u5b$T$u5d$$GT$4iter17hf34993596aa9d9c8E', symObjAddr: 0x0, symBinAddr: 0x1C8B0, symSize: 0x28 }
  - { offset: 0x785AF, size: 0x8, addend: 0x0, symName: '__ZN4core5slice29_$LT$impl$u20$$u5b$T$u5d$$GT$4iter17hf34993596aa9d9c8E', symObjAddr: 0x0, symBinAddr: 0x1C8B0, symSize: 0x28 }
  - { offset: 0x7A06C, size: 0x8, addend: 0x0, symName: '__ZN73_$LT$pyo3..types..any..PyAny$u20$as$u20$pyo3..type_object..PyTypeInfo$GT$15type_object_raw28_$u7b$$u7b$closure$u7d$$u7d$17hcf99cb9752f12d10E', symObjAddr: 0x294, symBinAddr: 0x1CB44, symSize: 0x18 }
  - { offset: 0x7A4A7, size: 0x8, addend: 0x0, symName: '__ZN71_$LT$T$u20$as$u20$pyo3..impl_..extract_argument..PyFunctionArgument$GT$7extract17h279719b383648aeaE', symObjAddr: 0x26C, symBinAddr: 0x1CB1C, symSize: 0x28 }
  - { offset: 0x7A6BC, size: 0x8, addend: 0x0, symName: '__ZN54_$LT$$RF$T$u20$as$u20$pyo3..conversion..ToPyObject$GT$9to_object17h29dcfae4d2c7dff7E', symObjAddr: 0x244, symBinAddr: 0x1CAF4, symSize: 0x28 }
  - { offset: 0x7ABC1, size: 0x8, addend: 0x0, symName: __ZN4pyo35types3any5PyAny14is_instance_of17h84754373c923d6bbE, symObjAddr: 0x28, symBinAddr: 0x1C8D8, symSize: 0x24 }
  - { offset: 0x7B37D, size: 0x8, addend: 0x0, symName: __ZN4pyo35types3any5PyAny7extract17h06454ff12b85fd66E, symObjAddr: 0x4C, symBinAddr: 0x1C8FC, symSize: 0x24 }
  - { offset: 0x7B967, size: 0x8, addend: 0x0, symName: __ZN4pyo35types3any5PyAny7extract17h08ed1a1e5de223e5E, symObjAddr: 0x70, symBinAddr: 0x1C920, symSize: 0x24 }
  - { offset: 0x7B993, size: 0x8, addend: 0x0, symName: __ZN4pyo35types3any5PyAny7extract17h15ed408a57225746E, symObjAddr: 0x94, symBinAddr: 0x1C944, symSize: 0x24 }
  - { offset: 0x7B9CC, size: 0x8, addend: 0x0, symName: __ZN4pyo35types3any5PyAny7extract17h28386f1a65280583E, symObjAddr: 0xB8, symBinAddr: 0x1C968, symSize: 0x24 }
  - { offset: 0x7BA61, size: 0x8, addend: 0x0, symName: __ZN4pyo35types3any5PyAny7extract17h3d58b99f0a3b1858E, symObjAddr: 0xDC, symBinAddr: 0x1C98C, symSize: 0x24 }
  - { offset: 0x7BA8D, size: 0x8, addend: 0x0, symName: __ZN4pyo35types3any5PyAny7extract17h64b66493b88295d1E, symObjAddr: 0x100, symBinAddr: 0x1C9B0, symSize: 0x24 }
  - { offset: 0x7BAC6, size: 0x8, addend: 0x0, symName: __ZN4pyo35types3any5PyAny7extract17h7beb609a1dd1f1f3E, symObjAddr: 0x124, symBinAddr: 0x1C9D4, symSize: 0x24 }
  - { offset: 0x7BAF2, size: 0x8, addend: 0x0, symName: __ZN4pyo35types3any5PyAny7extract17h7f619c65c16ff366E, symObjAddr: 0x148, symBinAddr: 0x1C9F8, symSize: 0x24 }
  - { offset: 0x7BB1E, size: 0x8, addend: 0x0, symName: __ZN4pyo35types3any5PyAny7extract17ha4814e5092d93974E, symObjAddr: 0x16C, symBinAddr: 0x1CA1C, symSize: 0x24 }
  - { offset: 0x7BB4A, size: 0x8, addend: 0x0, symName: __ZN4pyo35types3any5PyAny7extract17hbb62424f77385319E, symObjAddr: 0x190, symBinAddr: 0x1CA40, symSize: 0x24 }
  - { offset: 0x7BB76, size: 0x8, addend: 0x0, symName: __ZN4pyo35types3any5PyAny7extract17hc8f050c8cd822d2cE, symObjAddr: 0x1B4, symBinAddr: 0x1CA64, symSize: 0x24 }
  - { offset: 0x7BBA2, size: 0x8, addend: 0x0, symName: __ZN4pyo35types3any5PyAny7extract17hd786bd3da753ea95E, symObjAddr: 0x1D8, symBinAddr: 0x1CA88, symSize: 0x24 }
  - { offset: 0x7BBCE, size: 0x8, addend: 0x0, symName: __ZN4pyo35types3any5PyAny7extract17he29b2e4c626b5905E, symObjAddr: 0x1FC, symBinAddr: 0x1CAAC, symSize: 0x24 }
  - { offset: 0x7BBFA, size: 0x8, addend: 0x0, symName: __ZN4pyo35types3any5PyAny7extract17hf38d296aadc95db4E, symObjAddr: 0x220, symBinAddr: 0x1CAD0, symSize: 0x24 }
  - { offset: 0x7BCD7, size: 0x8, addend: 0x0, symName: '__ZN94_$LT$pyo3..types..tuple..PyTupleIterator$u20$as$u20$core..iter..traits..iterator..Iterator$GT$4next17h55cd2ed871749e6aE', symObjAddr: 0x0, symBinAddr: 0x1CB5C, symSize: 0x98 }
  - { offset: 0x7CDBF, size: 0x8, addend: 0x0, symName: '__ZN94_$LT$pyo3..types..tuple..PyTupleIterator$u20$as$u20$core..iter..traits..iterator..Iterator$GT$4next17h55cd2ed871749e6aE', symObjAddr: 0x0, symBinAddr: 0x1CB5C, symSize: 0x98 }
  - { offset: 0x7D2EA, size: 0x8, addend: 0x0, symName: __ZN8pyo3_ffi10boolobject7Py_True17h20d8fec22a3f8aa6E, symObjAddr: 0x0, symBinAddr: 0x1CBF4, symSize: 0xC }
  - { offset: 0x7D367, size: 0x8, addend: 0x0, symName: __ZN8pyo3_ffi10boolobject7Py_True17h20d8fec22a3f8aa6E, symObjAddr: 0x0, symBinAddr: 0x1CBF4, symSize: 0xC }
  - { offset: 0x7D384, size: 0x8, addend: 0x0, symName: __ZN8pyo3_ffi10boolobject8Py_False17he79828018465d08bE, symObjAddr: 0xC, symBinAddr: 0x1CC00, symSize: 0xC }
  - { offset: 0x7E7DB, size: 0x8, addend: 0x0, symName: '__ZN104_$LT$T$u20$as$u20$pyo3..callback..IntoPyCallbackOutput$LT$$BP$mut$u20$pyo3_ffi..object..PyObject$GT$$GT$7convert17h81b54c5bbe7c24acE', symObjAddr: 0x0, symBinAddr: 0x1CC0C, symSize: 0x48 }
  - { offset: 0x7EFC4, size: 0x8, addend: 0x0, symName: '__ZN4core3ptr9const_ptr33_$LT$impl$u20$$BP$const$u20$T$GT$7is_null17hca0f643de6ed80c7E', symObjAddr: 0xC8, symBinAddr: 0x1CCD4, symSize: 0x18 }
  - { offset: 0x7F1B0, size: 0x8, addend: 0x0, symName: '__ZN4core5slice29_$LT$impl$u20$$u5b$T$u5d$$GT$15copy_from_slice17h7a42f56952d93e49E', symObjAddr: 0xE0, symBinAddr: 0x1CCEC, symSize: 0x34 }
  - { offset: 0x7F219, size: 0x8, addend: 0x0, symName: '__ZN4core5slice29_$LT$impl$u20$$u5b$T$u5d$$GT$18split_at_unchecked17h6ea77ea0249120f6E', symObjAddr: 0x114, symBinAddr: 0x1CD20, symSize: 0xE8 }
  - { offset: 0x7F35E, size: 0x8, addend: 0x0, symName: '__ZN4core5slice29_$LT$impl$u20$$u5b$T$u5d$$GT$8split_at17h6aed0f24f5f6b4b4E', symObjAddr: 0x1FC, symBinAddr: 0x1CE08, symSize: 0xAC }
  - { offset: 0x812CE, size: 0x8, addend: 0x0, symName: __ZN4core6option6Option4Some17h009afcf7aef9d94dE, symObjAddr: 0x12B4, symBinAddr: 0x1DEC0, symSize: 0x18 }
  - { offset: 0x81301, size: 0x8, addend: 0x0, symName: __ZN4core6option6Option4Some17h52b150a441df9a98E, symObjAddr: 0x12CC, symBinAddr: 0x1DED8, symSize: 0x18 }
  - { offset: 0x81334, size: 0x8, addend: 0x0, symName: __ZN4core6option6Option4Some17habf59d5b7baa0e3bE, symObjAddr: 0x12E4, symBinAddr: 0x1DEF0, symSize: 0x14 }
  - { offset: 0x8136E, size: 0x8, addend: 0x0, symName: '__ZN68_$LT$core..option..Option$LT$T$GT$$u20$as$u20$core..clone..Clone$GT$5clone17hf4de4ac88b1e220dE', symObjAddr: 0x12F8, symBinAddr: 0x1DF04, symSize: 0x74 }
  - { offset: 0x81D33, size: 0x8, addend: 0x0, symName: '__ZN104_$LT$T$u20$as$u20$pyo3..callback..IntoPyCallbackOutput$LT$$BP$mut$u20$pyo3_ffi..object..PyObject$GT$$GT$7convert17h81b54c5bbe7c24acE', symObjAddr: 0x0, symBinAddr: 0x1CC0C, symSize: 0x48 }
  - { offset: 0x81D93, size: 0x8, addend: 0x0, symName: '__ZN114_$LT$core..option..Option$LT$T$GT$$u20$as$u20$pyo3..impl_..wrap..SomeWrap$LT$core..option..Option$LT$T$GT$$GT$$GT$4wrap17h1c54e41ae2aceab1E', symObjAddr: 0x48, symBinAddr: 0x1CC54, symSize: 0x18 }
  - { offset: 0x81DC8, size: 0x8, addend: 0x0, symName: '__ZN114_$LT$core..option..Option$LT$T$GT$$u20$as$u20$pyo3..impl_..wrap..SomeWrap$LT$core..option..Option$LT$T$GT$$GT$$GT$4wrap17h359c00624d51ff6eE', symObjAddr: 0x60, symBinAddr: 0x1CC6C, symSize: 0x18 }
  - { offset: 0x81DFD, size: 0x8, addend: 0x0, symName: '__ZN114_$LT$core..option..Option$LT$T$GT$$u20$as$u20$pyo3..impl_..wrap..SomeWrap$LT$core..option..Option$LT$T$GT$$GT$$GT$4wrap17h751b73bd1984ecc2E', symObjAddr: 0x78, symBinAddr: 0x1CC84, symSize: 0x14 }
  - { offset: 0x81F58, size: 0x8, addend: 0x0, symName: '__ZN131_$LT$core..option..Option$LT$T$GT$$u20$as$u20$pyo3..conversion..IntoPy$LT$pyo3..instance..Py$LT$pyo3..types..any..PyAny$GT$$GT$$GT$7into_py17h4f7639cdff1d920bE', symObjAddr: 0x8C, symBinAddr: 0x1CC98, symSize: 0x3C }
  - { offset: 0x839CC, size: 0x8, addend: 0x0, symName: '__ZN4core6option15Option$LT$T$GT$10ok_or_else17h19d41e5a7f1777d8E', symObjAddr: 0x2A8, symBinAddr: 0x1CEB4, symSize: 0x90 }
  - { offset: 0x83A45, size: 0x8, addend: 0x0, symName: '__ZN4core6option15Option$LT$T$GT$10ok_or_else17h5d9119f35c10d32fE', symObjAddr: 0x338, symBinAddr: 0x1CF44, symSize: 0x80 }
  - { offset: 0x83AB0, size: 0x8, addend: 0x0, symName: '__ZN4core6option15Option$LT$T$GT$10ok_or_else17h996f28be3554a84fE', symObjAddr: 0x3B8, symBinAddr: 0x1CFC4, symSize: 0x74 }
  - { offset: 0x83B1B, size: 0x8, addend: 0x0, symName: '__ZN4core6option15Option$LT$T$GT$10ok_or_else17h9c3ac33a1fcc69b3E', symObjAddr: 0x42C, symBinAddr: 0x1D038, symSize: 0x80 }
  - { offset: 0x83B86, size: 0x8, addend: 0x0, symName: '__ZN4core6option15Option$LT$T$GT$10ok_or_else17ha6dcc5f547f1963eE', symObjAddr: 0x4AC, symBinAddr: 0x1D0B8, symSize: 0x74 }
  - { offset: 0x83BF1, size: 0x8, addend: 0x0, symName: '__ZN4core6option15Option$LT$T$GT$10ok_or_else17hca974d8a506aaf59E', symObjAddr: 0x520, symBinAddr: 0x1D12C, symSize: 0x74 }
  - { offset: 0x83C5C, size: 0x8, addend: 0x0, symName: '__ZN4core6option15Option$LT$T$GT$10ok_or_else17hddc6174080cf7194E', symObjAddr: 0x594, symBinAddr: 0x1D1A0, symSize: 0x74 }
  - { offset: 0x83CC7, size: 0x8, addend: 0x0, symName: '__ZN4core6option15Option$LT$T$GT$10ok_or_else17hf71ac1572a06cce3E', symObjAddr: 0x608, symBinAddr: 0x1D214, symSize: 0x74 }
  - { offset: 0x83E5D, size: 0x8, addend: 0x0, symName: '__ZN4core6option15Option$LT$T$GT$11map_or_else17h9297fee57bd3cbcbE', symObjAddr: 0x67C, symBinAddr: 0x1D288, symSize: 0xF0 }
  - { offset: 0x83F11, size: 0x8, addend: 0x0, symName: '__ZN4core6option15Option$LT$T$GT$14unwrap_or_else17h7d442c990e67fb71E', symObjAddr: 0x76C, symBinAddr: 0x1D378, symSize: 0x58 }
  - { offset: 0x83F62, size: 0x8, addend: 0x0, symName: '__ZN4core6option15Option$LT$T$GT$14unwrap_or_else17h9f905b01d45c40daE', symObjAddr: 0x7C4, symBinAddr: 0x1D3D0, symSize: 0x58 }
  - { offset: 0x83FB3, size: 0x8, addend: 0x0, symName: '__ZN4core6option15Option$LT$T$GT$3map17h05fabfdddf8eec14E', symObjAddr: 0x81C, symBinAddr: 0x1D428, symSize: 0x5C }
  - { offset: 0x84038, size: 0x8, addend: 0x0, symName: '__ZN4core6option15Option$LT$T$GT$3map17h11070bd295aa8e76E', symObjAddr: 0x878, symBinAddr: 0x1D484, symSize: 0x50 }
  - { offset: 0x840B0, size: 0x8, addend: 0x0, symName: '__ZN4core6option15Option$LT$T$GT$3map17h1e37bd206fc13936E', symObjAddr: 0x8C8, symBinAddr: 0x1D4D4, symSize: 0x50 }
  - { offset: 0x8411B, size: 0x8, addend: 0x0, symName: '__ZN4core6option15Option$LT$T$GT$3map17h7ba788914100f629E', symObjAddr: 0x918, symBinAddr: 0x1D524, symSize: 0x60 }
  - { offset: 0x84193, size: 0x8, addend: 0x0, symName: '__ZN4core6option15Option$LT$T$GT$3map17hb3a2173ecac8380cE', symObjAddr: 0x978, symBinAddr: 0x1D584, symSize: 0x50 }
  - { offset: 0x8425D, size: 0x8, addend: 0x0, symName: '__ZN4core6option15Option$LT$T$GT$6as_ref17h69bfcb139d293253E', symObjAddr: 0x9C8, symBinAddr: 0x1D5D4, symSize: 0x4C }
  - { offset: 0x842B4, size: 0x8, addend: 0x0, symName: '__ZN4core6option15Option$LT$T$GT$6as_ref17hb3485c7c3291f2feE', symObjAddr: 0xA14, symBinAddr: 0x1D620, symSize: 0x4C }
  - { offset: 0x8437B, size: 0x8, addend: 0x0, symName: '__ZN4core6option15Option$LT$T$GT$6insert17h01e491b2b1db7b0dE', symObjAddr: 0xA60, symBinAddr: 0x1D66C, symSize: 0xA8 }
  - { offset: 0x8448E, size: 0x8, addend: 0x0, symName: '__ZN4core6option15Option$LT$T$GT$6insert17h0b96a42dde85cdabE', symObjAddr: 0xB08, symBinAddr: 0x1D714, symSize: 0xA8 }
  - { offset: 0x84594, size: 0x8, addend: 0x0, symName: '__ZN4core6option15Option$LT$T$GT$6insert17h7549bc94411d9a25E', symObjAddr: 0xBB0, symBinAddr: 0x1D7BC, symSize: 0xA8 }
  - { offset: 0x846A7, size: 0x8, addend: 0x0, symName: '__ZN4core6option15Option$LT$T$GT$6insert17h7db8096bab1f48deE', symObjAddr: 0xC58, symBinAddr: 0x1D864, symSize: 0xA8 }
  - { offset: 0x847BA, size: 0x8, addend: 0x0, symName: '__ZN4core6option15Option$LT$T$GT$6insert17h9a760d991b8299a4E', symObjAddr: 0xD00, symBinAddr: 0x1D90C, symSize: 0xA8 }
  - { offset: 0x848C0, size: 0x8, addend: 0x0, symName: '__ZN4core6option15Option$LT$T$GT$6insert17hfd3c8db43cb9dedeE', symObjAddr: 0xDA8, symBinAddr: 0x1D9B4, symSize: 0xA8 }
  - { offset: 0x84963, size: 0x8, addend: 0x0, symName: '__ZN4core6option15Option$LT$T$GT$7is_some17ha877cc32469de9b4E', symObjAddr: 0xE50, symBinAddr: 0x1DA5C, symSize: 0x28 }
  - { offset: 0x849BA, size: 0x8, addend: 0x0, symName: '__ZN4core6option15Option$LT$T$GT$7is_some17hb72a4a8442947c3cE', symObjAddr: 0xE78, symBinAddr: 0x1DA84, symSize: 0x28 }
  - { offset: 0x849E6, size: 0x8, addend: 0x0, symName: '__ZN4core6option15Option$LT$T$GT$7is_some17he4acd3a876edd348E', symObjAddr: 0xEA0, symBinAddr: 0x1DAAC, symSize: 0x28 }
  - { offset: 0x84A1F, size: 0x8, addend: 0x0, symName: '__ZN4core6option15Option$LT$T$GT$7or_else17h188daf61be76548cE', symObjAddr: 0xEC8, symBinAddr: 0x1DAD4, symSize: 0xB8 }
  - { offset: 0x84A70, size: 0x8, addend: 0x0, symName: '__ZN4core6option15Option$LT$T$GT$7or_else17hc30aec7b6f4fa66dE', symObjAddr: 0xF80, symBinAddr: 0x1DB8C, symSize: 0xB8 }
  - { offset: 0x84AC1, size: 0x8, addend: 0x0, symName: '__ZN4core6option15Option$LT$T$GT$7or_else17he5f2401daebb8a56E', symObjAddr: 0x1038, symBinAddr: 0x1DC44, symSize: 0xB8 }
  - { offset: 0x84B12, size: 0x8, addend: 0x0, symName: '__ZN4core6option15Option$LT$T$GT$7or_else17hf429deb06d7dbe0fE', symObjAddr: 0x10F0, symBinAddr: 0x1DCFC, symSize: 0xB8 }
  - { offset: 0x84B63, size: 0x8, addend: 0x0, symName: '__ZN4core6option15Option$LT$T$GT$7replace17h79066e02c8fb56c3E', symObjAddr: 0x11A8, symBinAddr: 0x1DDB4, symSize: 0x28 }
  - { offset: 0x84BBC, size: 0x8, addend: 0x0, symName: '__ZN4core6option15Option$LT$T$GT$9unwrap_or17h011ffbcabdf7c638E', symObjAddr: 0x11D0, symBinAddr: 0x1DDDC, symSize: 0x44 }
  - { offset: 0x84C04, size: 0x8, addend: 0x0, symName: '__ZN4core6option19Option$LT$$RF$T$GT$6cloned17h14b998c854fc2961E', symObjAddr: 0x1214, symBinAddr: 0x1DE20, symSize: 0x50 }
  - { offset: 0x84C5B, size: 0x8, addend: 0x0, symName: '__ZN4core6option19Option$LT$$RF$T$GT$6copied17h79977b67e674f62cE', symObjAddr: 0x1264, symBinAddr: 0x1DE70, symSize: 0x50 }
  - { offset: 0x84CFB, size: 0x8, addend: 0x0, symName: __ZN4core3fmt9Arguments17from_str_nonconst17hb1e86d7aeab475cfE, symObjAddr: 0x0, symBinAddr: 0x1DF78, symSize: 0x28 }
  - { offset: 0x85047, size: 0x8, addend: 0x0, symName: __ZN4core3fmt9Arguments17from_str_nonconst17hb1e86d7aeab475cfE, symObjAddr: 0x0, symBinAddr: 0x1DF78, symSize: 0x28 }
  - { offset: 0x8506A, size: 0x8, addend: 0x0, symName: __ZN4core3fmt9Arguments8from_str17h49b744e170fe854dE, symObjAddr: 0x28, symBinAddr: 0x1DFA0, symSize: 0x20 }
  - { offset: 0x850AB, size: 0x8, addend: 0x0, symName: '__ZN75_$LT$usize$u20$as$u20$core..slice..index..SliceIndex$LT$$u5b$T$u5d$$GT$$GT$5index17he03cfb9b553e752fE', symObjAddr: 0x0, symBinAddr: 0x1DFC0, symSize: 0x5C }
  - { offset: 0x850CC, size: 0x8, addend: 0x0, symName: '__ZN75_$LT$usize$u20$as$u20$core..slice..index..SliceIndex$LT$$u5b$T$u5d$$GT$$GT$5index17he03cfb9b553e752fE', symObjAddr: 0x0, symBinAddr: 0x1DFC0, symSize: 0x5C }
  - { offset: 0x85176, size: 0x8, addend: 0x0, symName: __ZN4core3mem6forget17h294feff548c6ed20E, symObjAddr: 0x0, symBinAddr: 0x1E01C, symSize: 0x10 }
  - { offset: 0x85905, size: 0x8, addend: 0x0, symName: __ZN4core3mem6forget17h294feff548c6ed20E, symObjAddr: 0x0, symBinAddr: 0x1E01C, symSize: 0x10 }
  - { offset: 0x85936, size: 0x8, addend: 0x0, symName: __ZN4core3mem6forget17h2f5dd32d20a8114cE, symObjAddr: 0x10, symBinAddr: 0x1E02C, symSize: 0x10 }
  - { offset: 0x85967, size: 0x8, addend: 0x0, symName: __ZN4core3mem6forget17h69834a7f39eea835E, symObjAddr: 0x20, symBinAddr: 0x1E03C, symSize: 0x10 }
  - { offset: 0x85998, size: 0x8, addend: 0x0, symName: __ZN4core3mem6forget17h7e32903e14eea3faE, symObjAddr: 0x30, symBinAddr: 0x1E04C, symSize: 0x10 }
  - { offset: 0x859C9, size: 0x8, addend: 0x0, symName: __ZN4core3mem6forget17hbfb9a8efe20308a9E, symObjAddr: 0x40, symBinAddr: 0x1E05C, symSize: 0x10 }
  - { offset: 0x859FA, size: 0x8, addend: 0x0, symName: __ZN4core3mem6forget17he09eb8fdb0cf93f8E, symObjAddr: 0x50, symBinAddr: 0x1E06C, symSize: 0x10 }
  - { offset: 0x87A8D, size: 0x8, addend: 0x0, symName: __ZN3std4sync6poison10map_result17h5f496a43abd808c4E, symObjAddr: 0x0, symBinAddr: 0x1E07C, symSize: 0xC4 }
  - { offset: 0x88FDD, size: 0x8, addend: 0x0, symName: __ZN3std4sync6poison10map_result17h5f496a43abd808c4E, symObjAddr: 0x0, symBinAddr: 0x1E07C, symSize: 0xC4 }
  - { offset: 0x89071, size: 0x8, addend: 0x0, symName: __ZN3std4sync6poison10map_result17ha6acbbf2690b2a9dE, symObjAddr: 0xC4, symBinAddr: 0x1E140, symSize: 0xC4 }
  - { offset: 0x89105, size: 0x8, addend: 0x0, symName: __ZN3std4sync6poison10map_result17hb5ee8981d7703840E, symObjAddr: 0x188, symBinAddr: 0x1E204, symSize: 0xC4 }
  - { offset: 0x8919E, size: 0x8, addend: 0x0, symName: '__ZN76_$LT$std..sync..poison..PoisonError$LT$T$GT$$u20$as$u20$core..fmt..Debug$GT$3fmt17h0693263209595c6aE', symObjAddr: 0x24C, symBinAddr: 0x1E2C8, symSize: 0x50 }
  - { offset: 0x891E1, size: 0x8, addend: 0x0, symName: '__ZN76_$LT$std..sync..poison..PoisonError$LT$T$GT$$u20$as$u20$core..fmt..Debug$GT$3fmt17hcdbf09ea67cccfe4E', symObjAddr: 0x29C, symBinAddr: 0x1E318, symSize: 0x50 }
  - { offset: 0x89224, size: 0x8, addend: 0x0, symName: '__ZN76_$LT$std..sync..poison..PoisonError$LT$T$GT$$u20$as$u20$core..fmt..Debug$GT$3fmt17hdfe0d612956fac05E', symObjAddr: 0x2EC, symBinAddr: 0x1E368, symSize: 0x50 }
  - { offset: 0x89EE6, size: 0x8, addend: 0x0, symName: __ZN4pyo35types3any5PyAny2py17h568c52116127f31fE, symObjAddr: 0x0, symBinAddr: 0x1E3B8, symSize: 0x24 }
  - { offset: 0x8B0FB, size: 0x8, addend: 0x0, symName: '__ZN72_$LT$pyo3..types..any..PyAny$u20$as$u20$pyo3..conversion..ToPyObject$GT$9to_object17h167da02daa2ee887E', symObjAddr: 0x7C, symBinAddr: 0x1E434, symSize: 0x28 }
  - { offset: 0x8B146, size: 0x8, addend: 0x0, symName: '__ZN73_$LT$pyo3..types..any..PyAny$u20$as$u20$pyo3..conversion..AsPyPointer$GT$6as_ptr17h8957455860df55eaE', symObjAddr: 0xA4, symBinAddr: 0x1E45C, symSize: 0x1C }
  - { offset: 0x8B178, size: 0x8, addend: 0x0, symName: '__ZN73_$LT$pyo3..types..any..PyAny$u20$as$u20$pyo3..type_object..PyTypeInfo$GT$15type_object_raw17h5ead4a4999f804baE', symObjAddr: 0xC0, symBinAddr: 0x1E478, symSize: 0x24 }
  - { offset: 0x8B6B1, size: 0x8, addend: 0x0, symName: __ZN4pyo35types3any5PyAny2py17h568c52116127f31fE, symObjAddr: 0x0, symBinAddr: 0x1E3B8, symSize: 0x24 }
  - { offset: 0x8B6D4, size: 0x8, addend: 0x0, symName: __ZN4pyo35types3any5PyAny6as_ptr17h9d0702dc086fb2b7E, symObjAddr: 0x24, symBinAddr: 0x1E3DC, symSize: 0x14 }
  - { offset: 0x8B6FE, size: 0x8, addend: 0x0, symName: __ZN4pyo35types3any5PyAny7is_none17h0ec2744bec2034b3E, symObjAddr: 0x38, symBinAddr: 0x1E3F0, symSize: 0x44 }
  - { offset: 0x8B784, size: 0x8, addend: 0x0, symName: '__ZN4core3cmp5impls54_$LT$impl$u20$core..cmp..PartialEq$u20$for$u20$u32$GT$2eq17hb11f2f1e966e82a8E', symObjAddr: 0x0, symBinAddr: 0x1E49C, symSize: 0x2C }
  - { offset: 0x8B7A5, size: 0x8, addend: 0x0, symName: '__ZN4core3cmp5impls54_$LT$impl$u20$core..cmp..PartialEq$u20$for$u20$u32$GT$2eq17hb11f2f1e966e82a8E', symObjAddr: 0x0, symBinAddr: 0x1E49C, symSize: 0x2C }
  - { offset: 0x8B81F, size: 0x8, addend: 0x0, symName: '__ZN5alloc5boxed12Box$LT$T$GT$8from_raw17had5f0768f702e927E', symObjAddr: 0x0, symBinAddr: 0x1E4C8, symSize: 0x3C }
  - { offset: 0x8CFA1, size: 0x8, addend: 0x0, symName: '__ZN5alloc5boxed12Box$LT$T$GT$8from_raw17had5f0768f702e927E', symObjAddr: 0x0, symBinAddr: 0x1E4C8, symSize: 0x3C }
  - { offset: 0x8D039, size: 0x8, addend: 0x0, symName: '__ZN5alloc5boxed12Box$LT$T$GT$8into_raw17hc7b31515397d164bE', symObjAddr: 0x3C, symBinAddr: 0x1E504, symSize: 0x14 }
  - { offset: 0x8D0AC, size: 0x8, addend: 0x0, symName: __ZN4pyo35impl_10trampoline10trampoline17h26ee7525183962c9E, symObjAddr: 0x0, symBinAddr: 0x1E518, symSize: 0x164 }
  - { offset: 0x8E5F8, size: 0x8, addend: 0x0, symName: __ZN4pyo35impl_10trampoline10trampoline17h26ee7525183962c9E, symObjAddr: 0x0, symBinAddr: 0x1E518, symSize: 0x164 }
  - { offset: 0x8E69C, size: 0x8, addend: 0x0, symName: __ZN4pyo35impl_10trampoline10trampoline17h30e902f7222dd744E, symObjAddr: 0x164, symBinAddr: 0x1E67C, symSize: 0x16C }
  - { offset: 0x8E741, size: 0x8, addend: 0x0, symName: __ZN4pyo35impl_10trampoline10trampoline17h5cc488070da504cdE, symObjAddr: 0x2D0, symBinAddr: 0x1E7E8, symSize: 0x164 }
  - { offset: 0x8E7E5, size: 0x8, addend: 0x0, symName: __ZN4pyo35impl_10trampoline10trampoline17hd4e9b604a5670eacE, symObjAddr: 0x434, symBinAddr: 0x1E94C, symSize: 0x168 }
  - { offset: 0x8E889, size: 0x8, addend: 0x0, symName: __ZN4pyo35impl_10trampoline10trampoline17hdad227c31b6f1b02E, symObjAddr: 0x59C, symBinAddr: 0x1EAB4, symSize: 0x168 }
  - { offset: 0x8E92D, size: 0x8, addend: 0x0, symName: __ZN4pyo35impl_10trampoline10trampoline17he60d1c62b2f9b9b1E, symObjAddr: 0x704, symBinAddr: 0x1EC1C, symSize: 0x168 }
  - { offset: 0x8E9D1, size: 0x8, addend: 0x0, symName: __ZN4pyo35impl_10trampoline10trampoline17hff577c11f9048075E, symObjAddr: 0x86C, symBinAddr: 0x1ED84, symSize: 0x158 }
  - { offset: 0x8EA79, size: 0x8, addend: 0x0, symName: '__ZN4pyo35impl_10trampoline10trampoline28_$u7b$$u7b$closure$u7d$$u7d$17h09aa8222e9ee9a24E', symObjAddr: 0x9C4, symBinAddr: 0x1EEDC, symSize: 0x2C }
  - { offset: 0x8EAC7, size: 0x8, addend: 0x0, symName: '__ZN4pyo35impl_10trampoline10trampoline28_$u7b$$u7b$closure$u7d$$u7d$17h102e3e778f5d5792E', symObjAddr: 0x9F0, symBinAddr: 0x1EF08, symSize: 0x34 }
  - { offset: 0x8EB16, size: 0x8, addend: 0x0, symName: '__ZN4pyo35impl_10trampoline10trampoline28_$u7b$$u7b$closure$u7d$$u7d$17h1b74f52cba679997E', symObjAddr: 0xA24, symBinAddr: 0x1EF3C, symSize: 0x24 }
  - { offset: 0x8EB64, size: 0x8, addend: 0x0, symName: '__ZN4pyo35impl_10trampoline10trampoline28_$u7b$$u7b$closure$u7d$$u7d$17h48bbb7c538b2738bE', symObjAddr: 0xA48, symBinAddr: 0x1EF60, symSize: 0x2C }
  - { offset: 0x8EBB2, size: 0x8, addend: 0x0, symName: '__ZN4pyo35impl_10trampoline10trampoline28_$u7b$$u7b$closure$u7d$$u7d$17h6255aa90da8d6909E', symObjAddr: 0xA74, symBinAddr: 0x1EF8C, symSize: 0x34 }
  - { offset: 0x8EC01, size: 0x8, addend: 0x0, symName: '__ZN4pyo35impl_10trampoline10trampoline28_$u7b$$u7b$closure$u7d$$u7d$17h7cb815012f68bdf0E', symObjAddr: 0xAA8, symBinAddr: 0x1EFC0, symSize: 0x40 }
  - { offset: 0x8EC50, size: 0x8, addend: 0x0, symName: '__ZN4pyo35impl_10trampoline10trampoline28_$u7b$$u7b$closure$u7d$$u7d$17hb3d17a343a0e74a8E', symObjAddr: 0xAE8, symBinAddr: 0x1F000, symSize: 0x34 }
  - { offset: 0x8ECA5, size: 0x8, addend: 0x0, symName: '__ZN4pyo35impl_10trampoline11module_init28_$u7b$$u7b$closure$u7d$$u7d$17h43f56aff1ae31f4dE', symObjAddr: 0xB1C, symBinAddr: 0x1F034, symSize: 0x40 }
  - { offset: 0x8ECF1, size: 0x8, addend: 0x0, symName: '__ZN4pyo35impl_10trampoline11module_init28_$u7b$$u7b$closure$u7d$$u7d$28_$u7b$$u7b$closure$u7d$$u7d$17h9264326bbec99acbE', symObjAddr: 0xB5C, symBinAddr: 0x1F074, symSize: 0x24 }
  - { offset: 0x8ED48, size: 0x8, addend: 0x0, symName: '__ZN4pyo35impl_10trampoline12getattrofunc28_$u7b$$u7b$closure$u7d$$u7d$17hf7590b6b3da7cdf1E', symObjAddr: 0xB80, symBinAddr: 0x1F098, symSize: 0x38 }
  - { offset: 0x8EDDE, size: 0x8, addend: 0x0, symName: '__ZN4pyo35impl_10trampoline12setattrofunc28_$u7b$$u7b$closure$u7d$$u7d$17h0acd225c7c6563e9E', symObjAddr: 0xBB8, symBinAddr: 0x1F0D0, symSize: 0x40 }
  - { offset: 0x8EE8A, size: 0x8, addend: 0x0, symName: __ZN4pyo35impl_10trampoline21trampoline_unraisable17hf5c0d4f89728cc8fE, symObjAddr: 0xBF8, symBinAddr: 0x1F110, symSize: 0x200 }
  - { offset: 0x8EF2D, size: 0x8, addend: 0x0, symName: '__ZN4pyo35impl_10trampoline21trampoline_unraisable28_$u7b$$u7b$closure$u7d$$u7d$17h4b440d2049aa2c9eE', symObjAddr: 0xDF8, symBinAddr: 0x1F310, symSize: 0x50 }
  - { offset: 0x8EF6C, size: 0x8, addend: 0x0, symName: '__ZN4pyo35impl_10trampoline21trampoline_unraisable28_$u7b$$u7b$closure$u7d$$u7d$17h748fa22a6f8f3f81E', symObjAddr: 0xE48, symBinAddr: 0x1F360, symSize: 0x2C }
  - { offset: 0x8EFBE, size: 0x8, addend: 0x0, symName: '__ZN4pyo35impl_10trampoline22fastcall_with_keywords28_$u7b$$u7b$closure$u7d$$u7d$17h315242f38eb2cd46E', symObjAddr: 0xE74, symBinAddr: 0x1F38C, symSize: 0x48 }
  - { offset: 0x8F08A, size: 0x8, addend: 0x0, symName: '__ZN4pyo35impl_10trampoline6noargs28_$u7b$$u7b$closure$u7d$$u7d$17hbef26f57f7a48cc2E', symObjAddr: 0xEBC, symBinAddr: 0x1F3D4, symSize: 0x34 }
  - { offset: 0x8F107, size: 0x8, addend: 0x0, symName: '__ZN4pyo35impl_10trampoline7dealloc28_$u7b$$u7b$closure$u7d$$u7d$17ha970b18e1d85080bE', symObjAddr: 0xEF0, symBinAddr: 0x1F408, symSize: 0x40 }
  - { offset: 0x8F184, size: 0x8, addend: 0x0, symName: '__ZN4pyo35impl_10trampoline7newfunc28_$u7b$$u7b$closure$u7d$$u7d$17hcf3a558d495673aeE', symObjAddr: 0xF30, symBinAddr: 0x1F448, symSize: 0x40 }
  - { offset: 0x8F235, size: 0x8, addend: 0x0, symName: '__ZN4pyo35impl_10trampoline8reprfunc28_$u7b$$u7b$closure$u7d$$u7d$17h4accbfdf25e93527E', symObjAddr: 0xF70, symBinAddr: 0x1F488, symSize: 0x34 }
  - { offset: 0x8FC57, size: 0x8, addend: 0x0, symName: '__ZN111_$LT$alloc..vec..Vec$LT$T$GT$$u20$as$u20$alloc..vec..spec_from_iter_nested..SpecFromIterNested$LT$T$C$I$GT$$GT$9from_iter17h03bc83ddb1b31b19E', symObjAddr: 0x0, symBinAddr: 0x1F4BC, symSize: 0x130 }
  - { offset: 0x9245B, size: 0x8, addend: 0x0, symName: '__ZN111_$LT$alloc..vec..Vec$LT$T$GT$$u20$as$u20$alloc..vec..spec_from_iter_nested..SpecFromIterNested$LT$T$C$I$GT$$GT$9from_iter17h03bc83ddb1b31b19E', symObjAddr: 0x0, symBinAddr: 0x1F4BC, symSize: 0x130 }
  - { offset: 0x9251D, size: 0x8, addend: 0x0, symName: '__ZN111_$LT$alloc..vec..Vec$LT$T$GT$$u20$as$u20$alloc..vec..spec_from_iter_nested..SpecFromIterNested$LT$T$C$I$GT$$GT$9from_iter17h23b6329727f50be7E', symObjAddr: 0x130, symBinAddr: 0x1F5EC, symSize: 0x130 }
  - { offset: 0x925E5, size: 0x8, addend: 0x0, symName: '__ZN111_$LT$alloc..vec..Vec$LT$T$GT$$u20$as$u20$alloc..vec..spec_from_iter_nested..SpecFromIterNested$LT$T$C$I$GT$$GT$9from_iter17h29322e8dd9d0f6ffE', symObjAddr: 0x260, symBinAddr: 0x1F71C, symSize: 0x238 }
  - { offset: 0x92CC7, size: 0x8, addend: 0x0, symName: '__ZN5alloc3vec16Vec$LT$T$C$A$GT$14extend_trusted28_$u7b$$u7b$closure$u7d$$u7d$17hb5c4380af7d4c965E', symObjAddr: 0x834, symBinAddr: 0x1FCF0, symSize: 0x34 }
  - { offset: 0x92D6F, size: 0x8, addend: 0x0, symName: '__ZN5alloc3vec16Vec$LT$T$C$A$GT$14extend_trusted28_$u7b$$u7b$closure$u7d$$u7d$17hd2e01d6a85e0fabaE', symObjAddr: 0x868, symBinAddr: 0x1FD24, symSize: 0x34 }
  - { offset: 0x92E1E, size: 0x8, addend: 0x0, symName: '__ZN72_$LT$alloc..vec..Vec$LT$T$C$A$GT$$u20$as$u20$core..ops..deref..Deref$GT$5deref17h910a1ac5138ffd61E', symObjAddr: 0xDC8, symBinAddr: 0x20284, symSize: 0x20 }
  - { offset: 0x92F71, size: 0x8, addend: 0x0, symName: '__ZN81_$LT$alloc..vec..Vec$LT$T$C$A$GT$$u20$as$u20$core..ops..index..Index$LT$I$GT$$GT$5index17h31843d067463d820E', symObjAddr: 0xDE8, symBinAddr: 0x202A4, symSize: 0x44 }
  - { offset: 0x9308A, size: 0x8, addend: 0x0, symName: '__ZN81_$LT$alloc..vec..Vec$LT$T$C$A$GT$$u20$as$u20$core..ops..index..Index$LT$I$GT$$GT$5index17h559ec39c316cfc76E', symObjAddr: 0xE2C, symBinAddr: 0x202E8, symSize: 0x44 }
  - { offset: 0x931A9, size: 0x8, addend: 0x0, symName: '__ZN90_$LT$alloc..vec..Vec$LT$T$C$A$GT$$u20$as$u20$core..iter..traits..collect..IntoIterator$GT$9into_iter17h201813b67e855072E', symObjAddr: 0xE70, symBinAddr: 0x2032C, symSize: 0xA8 }
  - { offset: 0x933A6, size: 0x8, addend: 0x0, symName: '__ZN94_$LT$$RF$alloc..vec..Vec$LT$T$C$A$GT$$u20$as$u20$core..iter..traits..collect..IntoIterator$GT$9into_iter17h46aff05251f2dd35E', symObjAddr: 0xF18, symBinAddr: 0x203D4, symSize: 0x68 }
  - { offset: 0x93591, size: 0x8, addend: 0x0, symName: '__ZN95_$LT$alloc..vec..Vec$LT$T$GT$$u20$as$u20$core..iter..traits..collect..FromIterator$LT$T$GT$$GT$9from_iter17h4e4d271af45f456bE', symObjAddr: 0xF80, symBinAddr: 0x2043C, symSize: 0x34 }
  - { offset: 0x935D2, size: 0x8, addend: 0x0, symName: '__ZN95_$LT$alloc..vec..Vec$LT$T$GT$$u20$as$u20$core..iter..traits..collect..FromIterator$LT$T$GT$$GT$9from_iter17h8af4048c36367cceE', symObjAddr: 0xFB4, symBinAddr: 0x20470, symSize: 0x34 }
  - { offset: 0x93613, size: 0x8, addend: 0x0, symName: '__ZN95_$LT$alloc..vec..Vec$LT$T$GT$$u20$as$u20$core..iter..traits..collect..FromIterator$LT$T$GT$$GT$9from_iter17hb82e1c2e9488fea3E', symObjAddr: 0xFE8, symBinAddr: 0x204A4, symSize: 0x34 }
  - { offset: 0x9365F, size: 0x8, addend: 0x0, symName: '__ZN97_$LT$alloc..vec..Vec$LT$T$C$A$GT$$u20$as$u20$alloc..vec..spec_extend..SpecExtend$LT$T$C$I$GT$$GT$11spec_extend17h1aa24e8ee6ee2694E', symObjAddr: 0x101C, symBinAddr: 0x204D8, symSize: 0x24 }
  - { offset: 0x936B1, size: 0x8, addend: 0x0, symName: '__ZN97_$LT$alloc..vec..Vec$LT$T$C$A$GT$$u20$as$u20$alloc..vec..spec_extend..SpecExtend$LT$T$C$I$GT$$GT$11spec_extend17h55b597dc7e0625a1E', symObjAddr: 0x1040, symBinAddr: 0x204FC, symSize: 0x24 }
  - { offset: 0x93709, size: 0x8, addend: 0x0, symName: '__ZN97_$LT$alloc..vec..Vec$LT$T$C$A$GT$$u20$as$u20$alloc..vec..spec_extend..SpecExtend$LT$T$C$I$GT$$GT$11spec_extend17hb95981507186fbe3E', symObjAddr: 0x1064, symBinAddr: 0x20520, symSize: 0x24 }
  - { offset: 0x93767, size: 0x8, addend: 0x0, symName: '__ZN98_$LT$alloc..vec..Vec$LT$T$GT$$u20$as$u20$alloc..vec..spec_from_iter..SpecFromIter$LT$T$C$I$GT$$GT$9from_iter17h8d5af444b5096e50E', symObjAddr: 0x1088, symBinAddr: 0x20544, symSize: 0x14 }
  - { offset: 0x937A6, size: 0x8, addend: 0x0, symName: '__ZN98_$LT$alloc..vec..Vec$LT$T$GT$$u20$as$u20$alloc..vec..spec_from_iter..SpecFromIter$LT$T$C$I$GT$$GT$9from_iter17hbda5d4780bcb6622E', symObjAddr: 0x109C, symBinAddr: 0x20558, symSize: 0x14 }
  - { offset: 0x937E5, size: 0x8, addend: 0x0, symName: '__ZN98_$LT$alloc..vec..Vec$LT$T$GT$$u20$as$u20$alloc..vec..spec_from_iter..SpecFromIter$LT$T$C$I$GT$$GT$9from_iter17hec60efa1fea066f3E', symObjAddr: 0x10B0, symBinAddr: 0x2056C, symSize: 0x14 }
  - { offset: 0x938E8, size: 0x8, addend: 0x0, symName: '__ZN4pyo35types8sequence85_$LT$impl$u20$pyo3..conversion..FromPyObject$u20$for$u20$alloc..vec..Vec$LT$T$GT$$GT$7extract17he3d939d7d29df747E', symObjAddr: 0x498, symBinAddr: 0x1F954, symSize: 0x7C }
  - { offset: 0x944D5, size: 0x8, addend: 0x0, symName: '__ZN5alloc3vec12Vec$LT$T$GT$13with_capacity17h682a168b0108adf3E', symObjAddr: 0x514, symBinAddr: 0x1F9D0, symSize: 0x40 }
  - { offset: 0x945AF, size: 0x8, addend: 0x0, symName: '__ZN5alloc3vec12Vec$LT$T$GT$13with_capacity17h995db85dd8a61004E', symObjAddr: 0x554, symBinAddr: 0x1FA10, symSize: 0x44 }
  - { offset: 0x94627, size: 0x8, addend: 0x0, symName: '__ZN5alloc3vec12Vec$LT$T$GT$3new17h03bf9527617b24dcE', symObjAddr: 0x598, symBinAddr: 0x1FA54, symSize: 0x14 }
  - { offset: 0x94644, size: 0x8, addend: 0x0, symName: '__ZN5alloc3vec12Vec$LT$T$GT$3new17h314cdbcf2c272de9E', symObjAddr: 0x5AC, symBinAddr: 0x1FA68, symSize: 0x14 }
  - { offset: 0x94688, size: 0x8, addend: 0x0, symName: '__ZN5alloc3vec12Vec$LT$T$GT$3new17he7961ccbfd17c020E', symObjAddr: 0x5C0, symBinAddr: 0x1FA7C, symSize: 0x14 }
  - { offset: 0x94809, size: 0x8, addend: 0x0, symName: '__ZN5alloc3vec16Vec$LT$T$C$A$GT$14extend_trusted17h7397fba95868a027E', symObjAddr: 0x5D4, symBinAddr: 0x1FA90, symSize: 0x130 }
  - { offset: 0x949FD, size: 0x8, addend: 0x0, symName: '__ZN5alloc3vec16Vec$LT$T$C$A$GT$14extend_trusted17h8500cfe1620a36e4E', symObjAddr: 0x704, symBinAddr: 0x1FBC0, symSize: 0x130 }
  - { offset: 0x94D62, size: 0x8, addend: 0x0, symName: '__ZN5alloc3vec16Vec$LT$T$C$A$GT$16extend_desugared17h95faf0171db6f51dE', symObjAddr: 0x89C, symBinAddr: 0x1FD58, symSize: 0x1C0 }
  - { offset: 0x94FE3, size: 0x8, addend: 0x0, symName: '__ZN5alloc3vec16Vec$LT$T$C$A$GT$3len17h473aab3bedaf3e92E', symObjAddr: 0xA5C, symBinAddr: 0x1FF18, symSize: 0x18 }
  - { offset: 0x95018, size: 0x8, addend: 0x0, symName: '__ZN5alloc3vec16Vec$LT$T$C$A$GT$4push17h67594459de430f43E', symObjAddr: 0xA74, symBinAddr: 0x1FF30, symSize: 0x2C }
  - { offset: 0x95069, size: 0x8, addend: 0x0, symName: '__ZN5alloc3vec16Vec$LT$T$C$A$GT$4push17h77ed339b4bf8e1dcE', symObjAddr: 0xAA0, symBinAddr: 0x1FF5C, symSize: 0x30 }
  - { offset: 0x951DD, size: 0x8, addend: 0x0, symName: '__ZN5alloc3vec16Vec$LT$T$C$A$GT$7reserve17h2ac12c6f5aaeecb9E', symObjAddr: 0xAD0, symBinAddr: 0x1FF8C, symSize: 0xA8 }
  - { offset: 0x95441, size: 0x8, addend: 0x0, symName: '__ZN5alloc3vec16Vec$LT$T$C$A$GT$7reserve17h63d109c7ec7f1338E', symObjAddr: 0xB78, symBinAddr: 0x20034, symSize: 0xA0 }
  - { offset: 0x9567C, size: 0x8, addend: 0x0, symName: '__ZN5alloc3vec16Vec$LT$T$C$A$GT$8push_mut17h05537a206c32fd7dE', symObjAddr: 0xC18, symBinAddr: 0x200D4, symSize: 0xD0 }
  - { offset: 0x95912, size: 0x8, addend: 0x0, symName: '__ZN5alloc3vec16Vec$LT$T$C$A$GT$8push_mut17h85bb4729d7b782bcE', symObjAddr: 0xCE8, symBinAddr: 0x201A4, symSize: 0xE0 }
  - { offset: 0x96048, size: 0x8, addend: 0x0, symName: __ZN4pyo33err5PyErr10from_state17hae861c994dd26671E, symObjAddr: 0x0, symBinAddr: 0x20580, symSize: 0x3C }
  - { offset: 0x97BAF, size: 0x8, addend: 0x0, symName: __ZN4pyo33err5PyErr10from_state17hae861c994dd26671E, symObjAddr: 0x0, symBinAddr: 0x20580, symSize: 0x3C }
  - { offset: 0x97C35, size: 0x8, addend: 0x0, symName: __ZN4pyo33err5PyErr16write_unraisable17h9e638b6304d93a2aE, symObjAddr: 0x3C, symBinAddr: 0x205BC, symSize: 0x4C }
  - { offset: 0x97C83, size: 0x8, addend: 0x0, symName: __ZN4pyo33err5PyErr5fetch17hd548029755b39aa0E, symObjAddr: 0x88, symBinAddr: 0x20608, symSize: 0x5C }
  - { offset: 0x97CCE, size: 0x8, addend: 0x0, symName: __ZN4pyo33err5PyErr7restore17h804543a98ccc5c4bE, symObjAddr: 0xE4, symBinAddr: 0x20664, symSize: 0x68 }
  - { offset: 0x97D49, size: 0x8, addend: 0x0, symName: '__ZN71_$LT$std..hash..random..DefaultHasher$u20$as$u20$core..hash..Hasher$GT$5write17hdc84641644913cd6E', symObjAddr: 0x0, symBinAddr: 0x206CC, symSize: 0x2C }
  - { offset: 0x97F1B, size: 0x8, addend: 0x0, symName: '__ZN71_$LT$std..hash..random..DefaultHasher$u20$as$u20$core..hash..Hasher$GT$5write17hdc84641644913cd6E', symObjAddr: 0x0, symBinAddr: 0x206CC, symSize: 0x2C }
  - { offset: 0x97F75, size: 0x8, addend: 0x0, symName: '__ZN71_$LT$std..hash..random..DefaultHasher$u20$as$u20$core..hash..Hasher$GT$6finish17h22c6432ad72ea2d5E', symObjAddr: 0x2C, symBinAddr: 0x206F8, symSize: 0x20 }
  - { offset: 0x97FC3, size: 0x8, addend: 0x0, symName: '__ZN74_$LT$std..hash..random..RandomState$u20$as$u20$core..hash..BuildHasher$GT$12build_hasher17h27ef7f1b97a979d7E', symObjAddr: 0x4C, symBinAddr: 0x20718, symSize: 0xCC }
  - { offset: 0x98131, size: 0x8, addend: 0x0, symName: '__ZN96_$LT$pyo3..pycell..impl_..BorrowChecker$u20$as$u20$pyo3..pycell..impl_..PyClassBorrowChecker$GT$3new17h55c52472893fba59E', symObjAddr: 0x0, symBinAddr: 0x207E4, symSize: 0x18 }
  - { offset: 0x98152, size: 0x8, addend: 0x0, symName: '__ZN96_$LT$pyo3..pycell..impl_..BorrowChecker$u20$as$u20$pyo3..pycell..impl_..PyClassBorrowChecker$GT$3new17h55c52472893fba59E', symObjAddr: 0x0, symBinAddr: 0x207E4, symSize: 0x18 }
  - { offset: 0x9820A, size: 0x8, addend: 0x0, symName: '__ZN106_$LT$core..iter..adapters..GenericShunt$LT$I$C$R$GT$$u20$as$u20$core..iter..traits..iterator..Iterator$GT$4next17h6377d93e79469fd4E', symObjAddr: 0x0, symBinAddr: 0x207FC, symSize: 0xA0 }
  - { offset: 0x98A19, size: 0x8, addend: 0x0, symName: '__ZN63_$LT$I$u20$as$u20$core..iter..traits..collect..IntoIterator$GT$9into_iter17hcd81adf7c179ff2eE', symObjAddr: 0x53C, symBinAddr: 0x20D38, symSize: 0x18 }
  - { offset: 0x98AC9, size: 0x8, addend: 0x0, symName: '__ZN106_$LT$core..iter..adapters..GenericShunt$LT$I$C$R$GT$$u20$as$u20$core..iter..traits..iterator..Iterator$GT$4next17h6377d93e79469fd4E', symObjAddr: 0x0, symBinAddr: 0x207FC, symSize: 0xA0 }
  - { offset: 0x98B5B, size: 0x8, addend: 0x0, symName: '__ZN106_$LT$core..iter..adapters..GenericShunt$LT$I$C$R$GT$$u20$as$u20$core..iter..traits..iterator..Iterator$GT$8try_fold17h3292c116ae76685bE', symObjAddr: 0xA0, symBinAddr: 0x2089C, symSize: 0x94 }
  - { offset: 0x98C0C, size: 0x8, addend: 0x0, symName: '__ZN106_$LT$core..iter..adapters..GenericShunt$LT$I$C$R$GT$$u20$as$u20$core..iter..traits..iterator..Iterator$GT$8try_fold28_$u7b$$u7b$closure$u7d$$u7d$17he014830105fd2552E', symObjAddr: 0x134, symBinAddr: 0x20930, symSize: 0x1F4 }
  - { offset: 0x98D08, size: 0x8, addend: 0x0, symName: '__ZN106_$LT$core..iter..adapters..GenericShunt$LT$I$C$R$GT$$u20$as$u20$core..iter..traits..iterator..Iterator$GT$9size_hint17h8a6203cc9e2ff87aE', symObjAddr: 0x328, symBinAddr: 0x20B24, symSize: 0x9C }
  - { offset: 0x98D81, size: 0x8, addend: 0x0, symName: __ZN4core4iter8adapters11try_process17h2bb6eef3554378abE, symObjAddr: 0x3C4, symBinAddr: 0x20BC0, symSize: 0x178 }
  - { offset: 0x9AA55, size: 0x8, addend: 0x0, symName: '__ZN59_$LT$alloc..alloc..Global$u20$as$u20$core..clone..Clone$GT$5clone17h19e2d0860c9310b0E', symObjAddr: 0x0, symBinAddr: 0x20D50, symSize: 0x10 }
  - { offset: 0x9B3CB, size: 0x8, addend: 0x0, symName: '__ZN59_$LT$alloc..alloc..Global$u20$as$u20$core..clone..Clone$GT$5clone17h19e2d0860c9310b0E', symObjAddr: 0x0, symBinAddr: 0x20D50, symSize: 0x10 }
  - { offset: 0x9B424, size: 0x8, addend: 0x0, symName: '__ZN63_$LT$alloc..alloc..Global$u20$as$u20$core..alloc..Allocator$GT$10deallocate17h122e8a57157d9faaE', symObjAddr: 0x254, symBinAddr: 0x20FA4, symSize: 0x58 }
  - { offset: 0x9B568, size: 0x8, addend: 0x0, symName: __ZN5alloc5alloc15exchange_malloc17h4b062300c8ab22a0E, symObjAddr: 0x10, symBinAddr: 0x20D60, symSize: 0xB0 }
  - { offset: 0x9B8C2, size: 0x8, addend: 0x0, symName: __ZN5alloc5alloc6Global18alloc_impl_runtime17hc39a0973ef3aea22E, symObjAddr: 0xC0, symBinAddr: 0x20E10, symSize: 0x194 }
  - { offset: 0x9BCD7, size: 0x8, addend: 0x0, symName: '__ZN106_$LT$pyo3..impl_..extract_argument..NoVarargs$u20$as$u20$pyo3..impl_..extract_argument..VarargsHandler$GT$20handle_varargs_tuple17ha3760c2456702cc8E', symObjAddr: 0x0, symBinAddr: 0x20FFC, symSize: 0x94 }
  - { offset: 0x9D416, size: 0x8, addend: 0x0, symName: '__ZN106_$LT$pyo3..impl_..extract_argument..NoVarargs$u20$as$u20$pyo3..impl_..extract_argument..VarargsHandler$GT$20handle_varargs_tuple17ha3760c2456702cc8E', symObjAddr: 0x0, symBinAddr: 0x20FFC, symSize: 0x94 }
  - { offset: 0x9D48F, size: 0x8, addend: 0x0, symName: '__ZN106_$LT$pyo3..impl_..extract_argument..NoVarargs$u20$as$u20$pyo3..impl_..extract_argument..VarargsHandler$GT$23handle_varargs_fastcall17h86aabd50e21f0489E', symObjAddr: 0x94, symBinAddr: 0x21090, symSize: 0xA8 }
  - { offset: 0x9D503, size: 0x8, addend: 0x0, symName: '__ZN114_$LT$pyo3..impl_..extract_argument..NoVarkeywords$u20$as$u20$pyo3..impl_..extract_argument..VarkeywordsHandler$GT$17handle_varkeyword17hce051eb077b3d6deE', symObjAddr: 0x13C, symBinAddr: 0x21138, symSize: 0x60 }
  - { offset: 0x9D642, size: 0x8, addend: 0x0, symName: __ZN4pyo35impl_16extract_argument24unwrap_required_argument17h6085e51d2ea8fec2E, symObjAddr: 0x538, symBinAddr: 0x21534, symSize: 0x58 }
  - { offset: 0x9D9A6, size: 0x8, addend: 0x0, symName: __ZN4pyo35impl_16extract_argument19FunctionDescription36find_keyword_parameter_in_positional17hf647e2fe5d9440eaE, symObjAddr: 0x19C, symBinAddr: 0x21198, symSize: 0x5C }
  - { offset: 0x9D9D8, size: 0x8, addend: 0x0, symName: __ZN4pyo35impl_16extract_argument19FunctionDescription38find_keyword_parameter_in_keyword_only17hab2d6b4fe62c5729E, symObjAddr: 0x1F8, symBinAddr: 0x211F4, symSize: 0x5C }
  - { offset: 0x9DED0, size: 0x8, addend: 0x0, symName: __ZN4pyo35impl_16extract_argument19FunctionDescription44ensure_no_missing_required_keyword_arguments17h567eef70b4d90143E, symObjAddr: 0x254, symBinAddr: 0x21250, symSize: 0x154 }
  - { offset: 0x9DF9C, size: 0x8, addend: 0x0, symName: __ZN4pyo35impl_16extract_argument19FunctionDescription47ensure_no_missing_required_positional_arguments17h735203a673cc25b0E, symObjAddr: 0x3A8, symBinAddr: 0x213A4, symSize: 0x190 }
  - { offset: 0x9E15B, size: 0x8, addend: 0x0, symName: '__ZN4pyo311conversions3std6string80_$LT$impl$u20$pyo3..conversion..ToPyObject$u20$for$u20$alloc..string..String$GT$9to_object17ha53e666e4511587aE', symObjAddr: 0x0, symBinAddr: 0x2158C, symSize: 0x34 }
  - { offset: 0x9F3A3, size: 0x8, addend: 0x0, symName: '__ZN4pyo311conversions3std6string80_$LT$impl$u20$pyo3..conversion..ToPyObject$u20$for$u20$alloc..string..String$GT$9to_object17ha53e666e4511587aE', symObjAddr: 0x0, symBinAddr: 0x2158C, symSize: 0x34 }
  - { offset: 0x9F67A, size: 0x8, addend: 0x0, symName: '__ZN65_$LT$alloc..string..String$u20$as$u20$core..ops..deref..Deref$GT$5deref17hc33de3b4de519bf5E', symObjAddr: 0x34, symBinAddr: 0x215C0, symSize: 0x20 }
  - { offset: 0x9FCF9, size: 0x8, addend: 0x0, symName: '__ZN4pyo36pycell15PyCell$LT$T$GT$10try_borrow17h7331d59626a3ce5eE', symObjAddr: 0x0, symBinAddr: 0x215E0, symSize: 0x3C }
  - { offset: 0xA1F26, size: 0x8, addend: 0x0, symName: '__ZN50_$LT$T$u20$as$u20$core..convert..Into$LT$U$GT$$GT$4into17h18b18d13446d0eafE', symObjAddr: 0x648, symBinAddr: 0x21C28, symSize: 0x1C }
  - { offset: 0xA1F66, size: 0x8, addend: 0x0, symName: '__ZN50_$LT$T$u20$as$u20$core..convert..Into$LT$U$GT$$GT$4into17hd389eeac8b23d804E', symObjAddr: 0x664, symBinAddr: 0x21C44, symSize: 0x1C }
  - { offset: 0xA2486, size: 0x8, addend: 0x0, symName: '__ZN4pyo36pycell15PyCell$LT$T$GT$10try_borrow28_$u7b$$u7b$closure$u7d$$u7d$17h26fee77b1929367bE', symObjAddr: 0xF0, symBinAddr: 0x216D0, symSize: 0x14 }
  - { offset: 0xA24CA, size: 0x8, addend: 0x0, symName: '__ZN4pyo36pycell15PyCell$LT$T$GT$10try_borrow28_$u7b$$u7b$closure$u7d$$u7d$17h4701ef90f076e761E', symObjAddr: 0x104, symBinAddr: 0x216E4, symSize: 0x14 }
  - { offset: 0xA250E, size: 0x8, addend: 0x0, symName: '__ZN4pyo36pycell15PyCell$LT$T$GT$10try_borrow28_$u7b$$u7b$closure$u7d$$u7d$17h83ca77fab0cbbbfcE', symObjAddr: 0x118, symBinAddr: 0x216F8, symSize: 0x14 }
  - { offset: 0xA2552, size: 0x8, addend: 0x0, symName: '__ZN4pyo36pycell15PyCell$LT$T$GT$10try_borrow28_$u7b$$u7b$closure$u7d$$u7d$17he82ec1ecfdf5af79E', symObjAddr: 0x12C, symBinAddr: 0x2170C, symSize: 0x14 }
  - { offset: 0xA259C, size: 0x8, addend: 0x0, symName: '__ZN4pyo36pycell15PyCell$LT$T$GT$14try_borrow_mut28_$u7b$$u7b$closure$u7d$$u7d$17h847db25d2b6c4effE', symObjAddr: 0x248, symBinAddr: 0x21828, symSize: 0x14 }
  - { offset: 0xA25E0, size: 0x8, addend: 0x0, symName: '__ZN4pyo36pycell15PyCell$LT$T$GT$14try_borrow_mut28_$u7b$$u7b$closure$u7d$$u7d$17hb4c7fd8875951cacE', symObjAddr: 0x25C, symBinAddr: 0x2183C, symSize: 0x14 }
  - { offset: 0xA262A, size: 0x8, addend: 0x0, symName: '__ZN4pyo36pycell15PyCell$LT$T$GT$20try_borrow_unguarded28_$u7b$$u7b$closure$u7d$$u7d$17h6827b15d23b2b52eE', symObjAddr: 0x2E8, symBinAddr: 0x218C8, symSize: 0x88 }
  - { offset: 0xA266E, size: 0x8, addend: 0x0, symName: '__ZN4pyo36pycell15PyCell$LT$T$GT$20try_borrow_unguarded28_$u7b$$u7b$closure$u7d$$u7d$17hee9219998779cad7E', symObjAddr: 0x370, symBinAddr: 0x21950, symSize: 0x88 }
  - { offset: 0xA270A, size: 0x8, addend: 0x0, symName: '__ZN72_$LT$pyo3..pycell..PyRef$LT$T$GT$$u20$as$u20$core..ops..deref..Deref$GT$5deref17h775a7842a3bcd625E', symObjAddr: 0x680, symBinAddr: 0x21C60, symSize: 0x74 }
  - { offset: 0xA2741, size: 0x8, addend: 0x0, symName: '__ZN72_$LT$pyo3..pycell..PyRef$LT$T$GT$$u20$as$u20$core..ops..deref..Deref$GT$5deref17h95fbf4c89b79f7dcE', symObjAddr: 0x6F4, symBinAddr: 0x21CD4, symSize: 0x74 }
  - { offset: 0xA2778, size: 0x8, addend: 0x0, symName: '__ZN72_$LT$pyo3..pycell..PyRef$LT$T$GT$$u20$as$u20$core..ops..deref..Deref$GT$5deref17hcb1a0525efe45d07E', symObjAddr: 0x768, symBinAddr: 0x21D48, symSize: 0x74 }
  - { offset: 0xA27AF, size: 0x8, addend: 0x0, symName: '__ZN72_$LT$pyo3..pycell..PyRef$LT$T$GT$$u20$as$u20$core..ops..deref..Deref$GT$5deref17hebd57179af9416f6E', symObjAddr: 0x7DC, symBinAddr: 0x21DBC, symSize: 0x74 }
  - { offset: 0xA27EC, size: 0x8, addend: 0x0, symName: '__ZN78_$LT$pyo3..pycell..PyRefMut$LT$T$GT$$u20$as$u20$core..ops..deref..DerefMut$GT$9deref_mut17h29e55ef99e6ead61E', symObjAddr: 0xB70, symBinAddr: 0x22150, symSize: 0x74 }
  - { offset: 0xA2823, size: 0x8, addend: 0x0, symName: '__ZN78_$LT$pyo3..pycell..PyRefMut$LT$T$GT$$u20$as$u20$core..ops..deref..DerefMut$GT$9deref_mut17h824fe7fc958f35b7E', symObjAddr: 0xBE4, symBinAddr: 0x221C4, symSize: 0x74 }
  - { offset: 0xA2860, size: 0x8, addend: 0x0, symName: '__ZN85_$LT$pyo3..pycell..PyCell$LT$T$GT$$u20$as$u20$pyo3..pycell..PyCellLayout$LT$T$GT$$GT$10tp_dealloc17h0d3b688bf80c4d3aE', symObjAddr: 0x1030, symBinAddr: 0x22610, symSize: 0xB0 }
  - { offset: 0xA28C4, size: 0x8, addend: 0x0, symName: '__ZN85_$LT$pyo3..pycell..PyCell$LT$T$GT$$u20$as$u20$pyo3..pycell..PyCellLayout$LT$T$GT$$GT$10tp_dealloc17h3fa0c9321a91bc03E', symObjAddr: 0x10E0, symBinAddr: 0x226C0, symSize: 0xB0 }
  - { offset: 0xA2928, size: 0x8, addend: 0x0, symName: '__ZN85_$LT$pyo3..pycell..PyCell$LT$T$GT$$u20$as$u20$pyo3..pycell..PyCellLayout$LT$T$GT$$GT$10tp_dealloc17h743ae4780f38bbf9E', symObjAddr: 0x1190, symBinAddr: 0x22770, symSize: 0xB0 }
  - { offset: 0xA298C, size: 0x8, addend: 0x0, symName: '__ZN85_$LT$pyo3..pycell..PyCell$LT$T$GT$$u20$as$u20$pyo3..pycell..PyCellLayout$LT$T$GT$$GT$10tp_dealloc17heed007907d60b77cE', symObjAddr: 0x1240, symBinAddr: 0x22820, symSize: 0xB0 }
  - { offset: 0xA29F0, size: 0x8, addend: 0x0, symName: '__ZN85_$LT$pyo3..pycell..PyCell$LT$T$GT$$u20$as$u20$pyo3..pycell..PyCellLayout$LT$T$GT$$GT$17ensure_threadsafe17h17c0b9824e2261dcE', symObjAddr: 0x12F0, symBinAddr: 0x228D0, symSize: 0x30 }
  - { offset: 0xA2A23, size: 0x8, addend: 0x0, symName: '__ZN85_$LT$pyo3..pycell..PyCell$LT$T$GT$$u20$as$u20$pyo3..pycell..PyCellLayout$LT$T$GT$$GT$17ensure_threadsafe17h3753d7acd801095dE', symObjAddr: 0x1320, symBinAddr: 0x22900, symSize: 0x30 }
  - { offset: 0xA2A56, size: 0x8, addend: 0x0, symName: '__ZN85_$LT$pyo3..pycell..PyCell$LT$T$GT$$u20$as$u20$pyo3..pycell..PyCellLayout$LT$T$GT$$GT$17ensure_threadsafe17h7ef36d137dcc28a2E', symObjAddr: 0x1350, symBinAddr: 0x22930, symSize: 0x30 }
  - { offset: 0xA2A89, size: 0x8, addend: 0x0, symName: '__ZN85_$LT$pyo3..pycell..PyCell$LT$T$GT$$u20$as$u20$pyo3..pycell..PyCellLayout$LT$T$GT$$GT$17ensure_threadsafe17hfc9609cce5c19ab4E', symObjAddr: 0x1380, symBinAddr: 0x22960, symSize: 0x30 }
  - { offset: 0xA2AC2, size: 0x8, addend: 0x0, symName: '__ZN89_$LT$pyo3..pycell..PyCellBase$LT$U$GT$$u20$as$u20$pyo3..pycell..PyCellLayout$LT$T$GT$$GT$10tp_dealloc17h7afebb4b566e4534E', symObjAddr: 0x13B0, symBinAddr: 0x22990, symSize: 0xF8 }
  - { offset: 0xA2B4D, size: 0x8, addend: 0x0, symName: '__ZN89_$LT$pyo3..pycell..PyCellBase$LT$U$GT$$u20$as$u20$pyo3..pycell..PyCellLayout$LT$T$GT$$GT$17ensure_threadsafe17he4441e13cc873483E', symObjAddr: 0x14A8, symBinAddr: 0x22A88, symSize: 0x10 }
  - { offset: 0xA2BBF, size: 0x8, addend: 0x0, symName: __ZN4pyo38instance12PyNativeType18unchecked_downcast17h06aad8b22f1f59ceE, symObjAddr: 0x488, symBinAddr: 0x21A68, symSize: 0x70 }
  - { offset: 0xA2BF4, size: 0x8, addend: 0x0, symName: __ZN4pyo38instance12PyNativeType18unchecked_downcast17h8b1e4d75fa13efa6E, symObjAddr: 0x4F8, symBinAddr: 0x21AD8, symSize: 0x70 }
  - { offset: 0xA2C29, size: 0x8, addend: 0x0, symName: __ZN4pyo38instance12PyNativeType18unchecked_downcast17hc842db640739aa54E, symObjAddr: 0x568, symBinAddr: 0x21B48, symSize: 0x70 }
  - { offset: 0xA2C5E, size: 0x8, addend: 0x0, symName: __ZN4pyo38instance12PyNativeType18unchecked_downcast17hde24ba3ab5d48d40E, symObjAddr: 0x5D8, symBinAddr: 0x21BB8, symSize: 0x70 }
  - { offset: 0xA2E1B, size: 0x8, addend: 0x0, symName: '__ZN77_$LT$pyo3..pycell..PyCell$LT$T$GT$$u20$as$u20$pyo3..conversion..PyTryFrom$GT$18try_from_unchecked17h344c5921fe4b5d73E', symObjAddr: 0x850, symBinAddr: 0x21E30, symSize: 0x30 }
  - { offset: 0xA2E5B, size: 0x8, addend: 0x0, symName: '__ZN77_$LT$pyo3..pycell..PyCell$LT$T$GT$$u20$as$u20$pyo3..conversion..PyTryFrom$GT$18try_from_unchecked17h51739353e97d3dc6E', symObjAddr: 0x880, symBinAddr: 0x21E60, symSize: 0x30 }
  - { offset: 0xA2E9B, size: 0x8, addend: 0x0, symName: '__ZN77_$LT$pyo3..pycell..PyCell$LT$T$GT$$u20$as$u20$pyo3..conversion..PyTryFrom$GT$18try_from_unchecked17hb9270c1ce2aa60d6E', symObjAddr: 0x8B0, symBinAddr: 0x21E90, symSize: 0x30 }
  - { offset: 0xA2EDB, size: 0x8, addend: 0x0, symName: '__ZN77_$LT$pyo3..pycell..PyCell$LT$T$GT$$u20$as$u20$pyo3..conversion..PyTryFrom$GT$18try_from_unchecked17hd1deecb50a38fdd4E', symObjAddr: 0x8E0, symBinAddr: 0x21EC0, symSize: 0x30 }
  - { offset: 0xA2F1B, size: 0x8, addend: 0x0, symName: '__ZN77_$LT$pyo3..pycell..PyCell$LT$T$GT$$u20$as$u20$pyo3..conversion..PyTryFrom$GT$8try_from17h1c037387c73fd118E', symObjAddr: 0x910, symBinAddr: 0x21EF0, symSize: 0x98 }
  - { offset: 0xA2F79, size: 0x8, addend: 0x0, symName: '__ZN77_$LT$pyo3..pycell..PyCell$LT$T$GT$$u20$as$u20$pyo3..conversion..PyTryFrom$GT$8try_from17h51c3c50723fc5080E', symObjAddr: 0x9A8, symBinAddr: 0x21F88, symSize: 0x98 }
  - { offset: 0xA2FD7, size: 0x8, addend: 0x0, symName: '__ZN77_$LT$pyo3..pycell..PyCell$LT$T$GT$$u20$as$u20$pyo3..conversion..PyTryFrom$GT$8try_from17h99f6dcf177ba401aE', symObjAddr: 0xA40, symBinAddr: 0x22020, symSize: 0x98 }
  - { offset: 0xA3035, size: 0x8, addend: 0x0, symName: '__ZN77_$LT$pyo3..pycell..PyCell$LT$T$GT$$u20$as$u20$pyo3..conversion..PyTryFrom$GT$8try_from17he17c3689a50a9420E', symObjAddr: 0xAD8, symBinAddr: 0x220B8, symSize: 0x98 }
  - { offset: 0xA3099, size: 0x8, addend: 0x0, symName: '__ZN79_$LT$pyo3..pycell..PyRef$LT$T$GT$$u20$as$u20$pyo3..conversion..FromPyObject$GT$7extract17h10f4a966bf725323E', symObjAddr: 0xC58, symBinAddr: 0x22238, symSize: 0xA4 }
  - { offset: 0xA310D, size: 0x8, addend: 0x0, symName: '__ZN79_$LT$pyo3..pycell..PyRef$LT$T$GT$$u20$as$u20$pyo3..conversion..FromPyObject$GT$7extract17h30cc110bc331267dE', symObjAddr: 0xCFC, symBinAddr: 0x222DC, symSize: 0xA4 }
  - { offset: 0xA3181, size: 0x8, addend: 0x0, symName: '__ZN79_$LT$pyo3..pycell..PyRef$LT$T$GT$$u20$as$u20$pyo3..conversion..FromPyObject$GT$7extract17h474ff1228c5fb785E', symObjAddr: 0xDA0, symBinAddr: 0x22380, symSize: 0xA4 }
  - { offset: 0xA31F5, size: 0x8, addend: 0x0, symName: '__ZN79_$LT$pyo3..pycell..PyRef$LT$T$GT$$u20$as$u20$pyo3..conversion..FromPyObject$GT$7extract17h84534297f6330a3fE', symObjAddr: 0xE44, symBinAddr: 0x22424, symSize: 0xA4 }
  - { offset: 0xA326F, size: 0x8, addend: 0x0, symName: '__ZN82_$LT$pyo3..pycell..PyRefMut$LT$T$GT$$u20$as$u20$pyo3..conversion..FromPyObject$GT$7extract17h3c1782858b65508eE', symObjAddr: 0xEE8, symBinAddr: 0x224C8, symSize: 0xA4 }
  - { offset: 0xA32E3, size: 0x8, addend: 0x0, symName: '__ZN82_$LT$pyo3..pycell..PyRefMut$LT$T$GT$$u20$as$u20$pyo3..conversion..FromPyObject$GT$7extract17hbb6fa1523f81e3c9E', symObjAddr: 0xF8C, symBinAddr: 0x2256C, symSize: 0xA4 }
  - { offset: 0xA443E, size: 0x8, addend: 0x0, symName: '__ZN4pyo36pycell15PyCell$LT$T$GT$10try_borrow17h7331d59626a3ce5eE', symObjAddr: 0x0, symBinAddr: 0x215E0, symSize: 0x3C }
  - { offset: 0xA46C4, size: 0x8, addend: 0x0, symName: '__ZN4pyo36pycell15PyCell$LT$T$GT$10try_borrow17h8cd82713c163057aE', symObjAddr: 0x3C, symBinAddr: 0x2161C, symSize: 0x3C }
  - { offset: 0xA46FD, size: 0x8, addend: 0x0, symName: '__ZN4pyo36pycell15PyCell$LT$T$GT$10try_borrow17hc8f0a56f6913512bE', symObjAddr: 0x78, symBinAddr: 0x21658, symSize: 0x3C }
  - { offset: 0xA4736, size: 0x8, addend: 0x0, symName: '__ZN4pyo36pycell15PyCell$LT$T$GT$10try_borrow17hf111d9319405cd5fE', symObjAddr: 0xB4, symBinAddr: 0x21694, symSize: 0x3C }
  - { offset: 0xA476F, size: 0x8, addend: 0x0, symName: '__ZN4pyo36pycell15PyCell$LT$T$GT$14borrow_checker17h183f05a8805054abE', symObjAddr: 0x140, symBinAddr: 0x21720, symSize: 0x24 }
  - { offset: 0xA479B, size: 0x8, addend: 0x0, symName: '__ZN4pyo36pycell15PyCell$LT$T$GT$14borrow_checker17h2babf29f32c0f855E', symObjAddr: 0x164, symBinAddr: 0x21744, symSize: 0x24 }
  - { offset: 0xA47C7, size: 0x8, addend: 0x0, symName: '__ZN4pyo36pycell15PyCell$LT$T$GT$14borrow_checker17h8382f23df94fa122E', symObjAddr: 0x188, symBinAddr: 0x21768, symSize: 0x24 }
  - { offset: 0xA47F3, size: 0x8, addend: 0x0, symName: '__ZN4pyo36pycell15PyCell$LT$T$GT$14borrow_checker17h92d3b4cb578b8626E', symObjAddr: 0x1AC, symBinAddr: 0x2178C, symSize: 0x24 }
  - { offset: 0xA481F, size: 0x8, addend: 0x0, symName: '__ZN4pyo36pycell15PyCell$LT$T$GT$14try_borrow_mut17h1bb9411ccb5af980E', symObjAddr: 0x1D0, symBinAddr: 0x217B0, symSize: 0x3C }
  - { offset: 0xA484B, size: 0x8, addend: 0x0, symName: '__ZN4pyo36pycell15PyCell$LT$T$GT$14try_borrow_mut17he75e8a9c0190f72cE', symObjAddr: 0x20C, symBinAddr: 0x217EC, symSize: 0x3C }
  - { offset: 0xA4884, size: 0x8, addend: 0x0, symName: '__ZN4pyo36pycell15PyCell$LT$T$GT$20try_borrow_unguarded17h3dca069a4fca775fE', symObjAddr: 0x270, symBinAddr: 0x21850, symSize: 0x3C }
  - { offset: 0xA48BD, size: 0x8, addend: 0x0, symName: '__ZN4pyo36pycell15PyCell$LT$T$GT$20try_borrow_unguarded17h6cbdaaf4b0169d1aE', symObjAddr: 0x2AC, symBinAddr: 0x2188C, symSize: 0x3C }
  - { offset: 0xA48F6, size: 0x8, addend: 0x0, symName: '__ZN4pyo36pycell15PyCell$LT$T$GT$7get_ptr17h318aa51bbbf189dcE', symObjAddr: 0x3F8, symBinAddr: 0x219D8, symSize: 0x24 }
  - { offset: 0xA492F, size: 0x8, addend: 0x0, symName: '__ZN4pyo36pycell15PyCell$LT$T$GT$7get_ptr17h91a5877516f61533E', symObjAddr: 0x41C, symBinAddr: 0x219FC, symSize: 0x24 }
  - { offset: 0xA4968, size: 0x8, addend: 0x0, symName: '__ZN4pyo36pycell15PyCell$LT$T$GT$7get_ptr17hab42bd8886e0f9e3E', symObjAddr: 0x440, symBinAddr: 0x21A20, symSize: 0x24 }
  - { offset: 0xA49A1, size: 0x8, addend: 0x0, symName: '__ZN4pyo36pycell15PyCell$LT$T$GT$7get_ptr17heec040adbd710a87E', symObjAddr: 0x464, symBinAddr: 0x21A44, symSize: 0x24 }
  - { offset: 0xA4B62, size: 0x8, addend: 0x0, symName: '__ZN76_$LT$$LP$$RP$$u20$as$u20$pyo3..callback..IntoPyCallbackOutput$LT$i32$GT$$GT$7convert17h000e074a90e41978E', symObjAddr: 0x0, symBinAddr: 0x22A98, symSize: 0x14 }
  - { offset: 0xA5F9C, size: 0x8, addend: 0x0, symName: '__ZN76_$LT$$LP$$RP$$u20$as$u20$pyo3..callback..IntoPyCallbackOutput$LT$i32$GT$$GT$7convert17h000e074a90e41978E', symObjAddr: 0x0, symBinAddr: 0x22A98, symSize: 0x14 }
  - { offset: 0xA5FE3, size: 0x8, addend: 0x0, symName: '__ZN81_$LT$$LP$$RP$$u20$as$u20$pyo3..callback..IntoPyCallbackOutput$LT$$LP$$RP$$GT$$GT$7convert17h818c71787adb7e68E', symObjAddr: 0x14, symBinAddr: 0x22AAC, symSize: 0x10 }
  - { offset: 0xA67A6, size: 0x8, addend: 0x0, symName: '__ZN104_$LT$T$u20$as$u20$pyo3..callback..IntoPyCallbackOutput$LT$$BP$mut$u20$pyo3_ffi..object..PyObject$GT$$GT$7convert17h23b7d7b2d425fe0dE', symObjAddr: 0x0, symBinAddr: 0x22ABC, symSize: 0x48 }
  - { offset: 0xA7C61, size: 0x8, addend: 0x0, symName: '__ZN104_$LT$T$u20$as$u20$pyo3..callback..IntoPyCallbackOutput$LT$$BP$mut$u20$pyo3_ffi..object..PyObject$GT$$GT$7convert17h23b7d7b2d425fe0dE', symObjAddr: 0x0, symBinAddr: 0x22ABC, symSize: 0x48 }
  - { offset: 0xA7CBC, size: 0x8, addend: 0x0, symName: '__ZN54_$LT$$RF$T$u20$as$u20$pyo3..conversion..ToPyObject$GT$9to_object17h1a1f6a1fbb0de774E', symObjAddr: 0x48, symBinAddr: 0x22B04, symSize: 0x28 }
  - { offset: 0xA7D1B, size: 0x8, addend: 0x0, symName: '__ZN71_$LT$T$u20$as$u20$pyo3..impl_..extract_argument..PyFunctionArgument$GT$7extract17hb228078d6d0a44b6E', symObjAddr: 0x70, symBinAddr: 0x22B2C, symSize: 0x28 }
  - { offset: 0xA85EF, size: 0x8, addend: 0x0, symName: '__ZN104_$LT$T$u20$as$u20$pyo3..callback..IntoPyCallbackOutput$LT$$BP$mut$u20$pyo3_ffi..object..PyObject$GT$$GT$7convert17h4d516a7dd520f414E', symObjAddr: 0x0, symBinAddr: 0x22B54, symSize: 0x48 }
  - { offset: 0xA8DBC, size: 0x8, addend: 0x0, symName: '__ZN50_$LT$T$u20$as$u20$core..convert..Into$LT$U$GT$$GT$4into17h667a7d4356b5ca29E', symObjAddr: 0x384, symBinAddr: 0x22ED8, symSize: 0x14 }
  - { offset: 0xA8DFD, size: 0x8, addend: 0x0, symName: '__ZN50_$LT$T$u20$as$u20$core..convert..Into$LT$U$GT$$GT$4into17h7b46b738f1267fd4E', symObjAddr: 0x398, symBinAddr: 0x22EEC, symSize: 0x14 }
  - { offset: 0xA8E3E, size: 0x8, addend: 0x0, symName: '__ZN50_$LT$T$u20$as$u20$core..convert..Into$LT$U$GT$$GT$4into17h81f20f5aad49f861E', symObjAddr: 0x3AC, symBinAddr: 0x22F00, symSize: 0x14 }
  - { offset: 0xA8E7F, size: 0x8, addend: 0x0, symName: '__ZN50_$LT$T$u20$as$u20$core..convert..Into$LT$U$GT$$GT$4into17h8dea62d975cb211bE', symObjAddr: 0x3C0, symBinAddr: 0x22F14, symSize: 0x14 }
  - { offset: 0xAA89B, size: 0x8, addend: 0x0, symName: '__ZN104_$LT$T$u20$as$u20$pyo3..callback..IntoPyCallbackOutput$LT$$BP$mut$u20$pyo3_ffi..object..PyObject$GT$$GT$7convert17h4d516a7dd520f414E', symObjAddr: 0x0, symBinAddr: 0x22B54, symSize: 0x48 }
  - { offset: 0xAA8F6, size: 0x8, addend: 0x0, symName: __ZN4pyo311type_object10PyTypeInfo10is_type_of17h1949487a67a705d7E, symObjAddr: 0x48, symBinAddr: 0x22B9C, symSize: 0x50 }
  - { offset: 0xAA92B, size: 0x8, addend: 0x0, symName: __ZN4pyo311type_object10PyTypeInfo10is_type_of17h45ab47ec44ac3219E, symObjAddr: 0x98, symBinAddr: 0x22BEC, symSize: 0x50 }
  - { offset: 0xAA960, size: 0x8, addend: 0x0, symName: __ZN4pyo311type_object10PyTypeInfo10is_type_of17had795933168d2627E, symObjAddr: 0xE8, symBinAddr: 0x22C3C, symSize: 0x50 }
  - { offset: 0xAA995, size: 0x8, addend: 0x0, symName: __ZN4pyo311type_object10PyTypeInfo10is_type_of17hfb0665c1a72d8076E, symObjAddr: 0x138, symBinAddr: 0x22C8C, symSize: 0x50 }
  - { offset: 0xAA9CA, size: 0x8, addend: 0x0, symName: __ZN4pyo311type_object10PyTypeInfo11type_object17h97107d7452b9a3dbE, symObjAddr: 0x188, symBinAddr: 0x22CDC, symSize: 0x20 }
  - { offset: 0xAAA0A, size: 0x8, addend: 0x0, symName: __ZN4pyo311type_object10PyTypeInfo11type_object17hb5139835b7c9c3d5E, symObjAddr: 0x1A8, symBinAddr: 0x22CFC, symSize: 0x20 }
  - { offset: 0xAAA56, size: 0x8, addend: 0x0, symName: '__ZN4pyo312pyclass_init123_$LT$impl$u20$pyo3..callback..IntoPyCallbackOutput$LT$pyo3..pyclass_init..PyClassInitializer$LT$T$GT$$GT$$u20$for$u20$U$GT$7convert17h11e2f2684ddbfbccE', symObjAddr: 0x1C8, symBinAddr: 0x22D1C, symSize: 0x5C }
  - { offset: 0xAAAB2, size: 0x8, addend: 0x0, symName: '__ZN4pyo312pyclass_init123_$LT$impl$u20$pyo3..callback..IntoPyCallbackOutput$LT$pyo3..pyclass_init..PyClassInitializer$LT$T$GT$$GT$$u20$for$u20$U$GT$7convert17hd7d6d60c0909ec04E', symObjAddr: 0x224, symBinAddr: 0x22D78, symSize: 0x68 }
  - { offset: 0xAAB10, size: 0x8, addend: 0x0, symName: '__ZN4pyo312pyclass_init123_$LT$impl$u20$pyo3..callback..IntoPyCallbackOutput$LT$pyo3..pyclass_init..PyClassInitializer$LT$T$GT$$GT$$u20$for$u20$U$GT$7convert17hddd4129cebf84e81E', symObjAddr: 0x28C, symBinAddr: 0x22DE0, symSize: 0x5C }
  - { offset: 0xAAB6C, size: 0x8, addend: 0x0, symName: '__ZN4pyo312pyclass_init123_$LT$impl$u20$pyo3..callback..IntoPyCallbackOutput$LT$pyo3..pyclass_init..PyClassInitializer$LT$T$GT$$GT$$u20$for$u20$U$GT$7convert17hf6aeaca0be39d227E', symObjAddr: 0x2E8, symBinAddr: 0x22E3C, symSize: 0x5C }
  - { offset: 0xAAE66, size: 0x8, addend: 0x0, symName: __ZN4pyo35impl_7pyclass11PyClassImpl11dict_offset17h3ff0662ff426d97aE, symObjAddr: 0x344, symBinAddr: 0x22E98, symSize: 0x8 }
  - { offset: 0xAAE8D, size: 0x8, addend: 0x0, symName: __ZN4pyo35impl_7pyclass11PyClassImpl11dict_offset17h42b0a12c611a08a3E, symObjAddr: 0x34C, symBinAddr: 0x22EA0, symSize: 0x8 }
  - { offset: 0xAAEB4, size: 0x8, addend: 0x0, symName: __ZN4pyo35impl_7pyclass11PyClassImpl11dict_offset17hdfa90dfa117593a6E, symObjAddr: 0x354, symBinAddr: 0x22EA8, symSize: 0x8 }
  - { offset: 0xAAEDB, size: 0x8, addend: 0x0, symName: __ZN4pyo35impl_7pyclass11PyClassImpl11dict_offset17hf2b32090ad5d896eE, symObjAddr: 0x35C, symBinAddr: 0x22EB0, symSize: 0x8 }
  - { offset: 0xAAF02, size: 0x8, addend: 0x0, symName: __ZN4pyo35impl_7pyclass11PyClassImpl15weaklist_offset17h0f776fd83a219f4dE, symObjAddr: 0x364, symBinAddr: 0x22EB8, symSize: 0x8 }
  - { offset: 0xAAF29, size: 0x8, addend: 0x0, symName: __ZN4pyo35impl_7pyclass11PyClassImpl15weaklist_offset17h48faa4c28f44c978E, symObjAddr: 0x36C, symBinAddr: 0x22EC0, symSize: 0x8 }
  - { offset: 0xAAF50, size: 0x8, addend: 0x0, symName: __ZN4pyo35impl_7pyclass11PyClassImpl15weaklist_offset17h4908abb675a17b2dE, symObjAddr: 0x374, symBinAddr: 0x22EC8, symSize: 0x8 }
  - { offset: 0xAAF77, size: 0x8, addend: 0x0, symName: __ZN4pyo35impl_7pyclass11PyClassImpl15weaklist_offset17he005ccf7132f9867E, symObjAddr: 0x37C, symBinAddr: 0x22ED0, symSize: 0x8 }
  - { offset: 0xAB066, size: 0x8, addend: 0x0, symName: '__ZN71_$LT$T$u20$as$u20$pyo3..impl_..extract_argument..PyFunctionArgument$GT$7extract17h8e0f07d41e0a4aafE', symObjAddr: 0x12E4, symBinAddr: 0x23E38, symSize: 0x28 }
  - { offset: 0xAB0CD, size: 0x8, addend: 0x0, symName: '__ZN52_$LT$T$u20$as$u20$pyo3..conversion..FromPyObject$GT$7extract17h1a6ad9070caa937cE', symObjAddr: 0x3D4, symBinAddr: 0x22F28, symSize: 0xF8 }
  - { offset: 0xAB15F, size: 0x8, addend: 0x0, symName: '__ZN52_$LT$T$u20$as$u20$pyo3..conversion..FromPyObject$GT$7extract17h919bcf20e0730804E', symObjAddr: 0x4CC, symBinAddr: 0x23020, symSize: 0xF8 }
  - { offset: 0xAB688, size: 0x8, addend: 0x0, symName: '__ZN6platon10core_to_py28_$u7b$$u7b$closure$u7d$$u7d$17h7645c25306121220E', symObjAddr: 0x5C4, symBinAddr: 0x23118, symSize: 0x30 }
  - { offset: 0xAB6CD, size: 0x8, addend: 0x0, symName: '__ZN6platon10core_to_py28_$u7b$$u7b$closure$u7d$$u7d$17hfcffa044a54ff061E', symObjAddr: 0x5F4, symBinAddr: 0x23148, symSize: 0x30 }
  - { offset: 0xAB743, size: 0x8, addend: 0x0, symName: '__ZN6platon12TimeoutError15type_object_raw28_$u7b$$u7b$closure$u7d$$u7d$17hf55980e7857c910fE', symObjAddr: 0x624, symBinAddr: 0x23178, symSize: 0x74 }
  - { offset: 0xAB7C7, size: 0x8, addend: 0x0, symName: '__ZN6platon12core_from_py28_$u7b$$u7b$closure$u7d$$u7d$17hf133551a8d92cd01E', symObjAddr: 0x6C0, symBinAddr: 0x23214, symSize: 0x2C }
  - { offset: 0xAB80F, size: 0x8, addend: 0x0, symName: '__ZN6platon14NativeRegistry11__getattr__28_$u7b$$u7b$closure$u7d$$u7d$17ha1649b9c393d80e2E', symObjAddr: 0x6EC, symBinAddr: 0x23240, symSize: 0x70 }
  - { offset: 0xAB89A, size: 0x8, addend: 0x0, symName: '__ZN6platon14NativeRegistry14get_id_by_name28_$u7b$$u7b$closure$u7d$$u7d$17h36b31306e2a258c1E', symObjAddr: 0x75C, symBinAddr: 0x232B0, symSize: 0x18 }
  - { offset: 0xAB8F2, size: 0x8, addend: 0x0, symName: '__ZN6platon1_150_$LT$impl$u20$pyo3..impl_..pyclass..PyMethods$LT$platon..VmProxy$GT$$u20$for$u20$pyo3..impl_..pyclass..PyClassImplCollector$LT$platon..VmProxy$GT$$GT$10py_methods5ITEMS6__wrap28_$u7b$$u7b$closure$u7d$$u7d$17h9bb13cf62cfd7a24E', symObjAddr: 0x774, symBinAddr: 0x232C8, symSize: 0x1A4 }
  - { offset: 0xAB9DA, size: 0x8, addend: 0x0, symName: '__ZN6platon1_150_$LT$impl$u20$pyo3..impl_..pyclass..PyMethods$LT$platon..VmProxy$GT$$u20$for$u20$pyo3..impl_..pyclass..PyClassImplCollector$LT$platon..VmProxy$GT$$GT$10py_methods5ITEMS6__wrap28_$u7b$$u7b$closure$u7d$$u7d$17hbf22308e27f83f3eE', symObjAddr: 0x918, symBinAddr: 0x2346C, symSize: 0xB0 }
  - { offset: 0xABA88, size: 0x8, addend: 0x0, symName: '__ZN6platon1_164_$LT$impl$u20$pyo3..impl_..pyclass..PyMethods$LT$platon..NativeRegistry$GT$$u20$for$u20$pyo3..impl_..pyclass..PyClassImplCollector$LT$platon..NativeRegistry$GT$$GT$10py_methods5ITEMS6__wrap28_$u7b$$u7b$closure$u7d$$u7d$17h2aa5a8d915de86c3E', symObjAddr: 0x9C8, symBinAddr: 0x2351C, symSize: 0xB0 }
  - { offset: 0xABB36, size: 0x8, addend: 0x0, symName: '__ZN6platon1_164_$LT$impl$u20$pyo3..impl_..pyclass..PyMethods$LT$platon..NativeRegistry$GT$$u20$for$u20$pyo3..impl_..pyclass..PyClassImplCollector$LT$platon..NativeRegistry$GT$$GT$10py_methods5ITEMS6__wrap28_$u7b$$u7b$closure$u7d$$u7d$17h30f02a039a23a2d6E', symObjAddr: 0xA78, symBinAddr: 0x235CC, symSize: 0x1A4 }
  - { offset: 0xABC48, size: 0x8, addend: 0x0, symName: '__ZN6platon1_28_$LT$impl$u20$platon..VM$GT$20__pymethod___new____28_$u7b$$u7b$closure$u7d$$u7d$17h0ad8e15513191740E', symObjAddr: 0xC1C, symBinAddr: 0x23770, symSize: 0x14 }
  - { offset: 0xABC70, size: 0x8, addend: 0x0, symName: '__ZN6platon1_28_$LT$impl$u20$platon..VM$GT$20__pymethod___new____28_$u7b$$u7b$closure$u7d$$u7d$17h827febcd0538c3fdE', symObjAddr: 0xC30, symBinAddr: 0x23784, symSize: 0x1C }
  - { offset: 0xABC98, size: 0x8, addend: 0x0, symName: '__ZN6platon1_33_$LT$impl$u20$platon..PyValue$GT$20__pymethod___new____28_$u7b$$u7b$closure$u7d$$u7d$17hf7255d7168402b00E', symObjAddr: 0xD1C, symBinAddr: 0x23870, symSize: 0x2C }
  - { offset: 0xABCDB, size: 0x8, addend: 0x0, symName: '__ZN6platon1_28_$LT$impl$u20$platon..VM$GT$20__pymethod_execute__28_$u7b$$u7b$closure$u7d$$u7d$17h2956bfd2ec70c9f4E', symObjAddr: 0xC4C, symBinAddr: 0x237A0, symSize: 0x28 }
  - { offset: 0xABD03, size: 0x8, addend: 0x0, symName: '__ZN6platon1_28_$LT$impl$u20$platon..VM$GT$20__pymethod_execute__28_$u7b$$u7b$closure$u7d$$u7d$17h962c98624a198a4cE', symObjAddr: 0xC74, symBinAddr: 0x237C8, symSize: 0x24 }
  - { offset: 0xABD3F, size: 0x8, addend: 0x0, symName: '__ZN6platon1_28_$LT$impl$u20$platon..VM$GT$26__pymethod_set_set_debug__28_$u7b$$u7b$closure$u7d$$u7d$17h373a18b9dcf5b004E', symObjAddr: 0xC98, symBinAddr: 0x237EC, symSize: 0x2C }
  - { offset: 0xABD74, size: 0x8, addend: 0x0, symName: '__ZN6platon1_28_$LT$impl$u20$platon..VM$GT$28__pymethod_set_set_globals__28_$u7b$$u7b$closure$u7d$$u7d$17h11ad698608a843fdE', symObjAddr: 0xCC4, symBinAddr: 0x23818, symSize: 0x2C }
  - { offset: 0xABDA9, size: 0x8, addend: 0x0, symName: '__ZN6platon1_28_$LT$impl$u20$platon..VM$GT$29__pymethod_set_set_registry__28_$u7b$$u7b$closure$u7d$$u7d$17h1c00d11c4176562bE', symObjAddr: 0xCF0, symBinAddr: 0x23844, symSize: 0x2C }
  - { offset: 0xABDE4, size: 0x8, addend: 0x0, symName: '__ZN6platon1_33_$LT$impl$u20$platon..VmProxy$GT$24__pymethod_set_globals__28_$u7b$$u7b$closure$u7d$$u7d$17h4b8db734e4760b31E', symObjAddr: 0xD48, symBinAddr: 0x2389C, symSize: 0x2C }
  - { offset: 0xABE1F, size: 0x8, addend: 0x0, symName: '__ZN6platon1_74_$LT$impl$u20$pyo3..impl_..pyclass..PyClassImpl$u20$for$u20$platon..VM$GT$3doc28_$u7b$$u7b$closure$u7d$$u7d$17ha966dd7cfd855d66E', symObjAddr: 0xD74, symBinAddr: 0x238C8, symSize: 0x60 }
  - { offset: 0xABE69, size: 0x8, addend: 0x0, symName: '__ZN6platon1_74_$LT$impl$u20$pyo3..impl_..pyclass..PyClassImpl$u20$for$u20$platon..VM$GT$3doc28_$u7b$$u7b$closure$u7d$$u7d$28_$u7b$$u7b$closure$u7d$$u7d$17h0dec5b053883d12dE', symObjAddr: 0xDD4, symBinAddr: 0x23928, symSize: 0x20 }
  - { offset: 0xABEA0, size: 0x8, addend: 0x0, symName: '__ZN6platon1_79_$LT$impl$u20$pyo3..impl_..pyclass..PyClassImpl$u20$for$u20$platon..PyValue$GT$3doc28_$u7b$$u7b$closure$u7d$$u7d$28_$u7b$$u7b$closure$u7d$$u7d$17habe7102ba55f1b97E', symObjAddr: 0xE54, symBinAddr: 0x239A8, symSize: 0x20 }
  - { offset: 0xABED7, size: 0x8, addend: 0x0, symName: '__ZN6platon1_79_$LT$impl$u20$pyo3..impl_..pyclass..PyClassImpl$u20$for$u20$platon..VmProxy$GT$3doc28_$u7b$$u7b$closure$u7d$$u7d$28_$u7b$$u7b$closure$u7d$$u7d$17h1a8dc7337f99dc30E', symObjAddr: 0xED4, symBinAddr: 0x23A28, symSize: 0x20 }
  - { offset: 0xABF0E, size: 0x8, addend: 0x0, symName: '__ZN6platon1_86_$LT$impl$u20$pyo3..impl_..pyclass..PyClassImpl$u20$for$u20$platon..NativeRegistry$GT$3doc28_$u7b$$u7b$closure$u7d$$u7d$28_$u7b$$u7b$closure$u7d$$u7d$17hb6db6519b7c71f4fE', symObjAddr: 0xF54, symBinAddr: 0x23AA8, symSize: 0x20 }
  - { offset: 0xABF92, size: 0x8, addend: 0x0, symName: '__ZN6platon1_79_$LT$impl$u20$pyo3..impl_..pyclass..PyClassImpl$u20$for$u20$platon..PyValue$GT$3doc28_$u7b$$u7b$closure$u7d$$u7d$17hc3e07bcf0730b2a8E', symObjAddr: 0xDF4, symBinAddr: 0x23948, symSize: 0x60 }
  - { offset: 0xABFD7, size: 0x8, addend: 0x0, symName: '__ZN6platon1_79_$LT$impl$u20$pyo3..impl_..pyclass..PyClassImpl$u20$for$u20$platon..VmProxy$GT$3doc28_$u7b$$u7b$closure$u7d$$u7d$17h550ac4aac41ae268E', symObjAddr: 0xE74, symBinAddr: 0x239C8, symSize: 0x60 }
  - { offset: 0xAC01C, size: 0x8, addend: 0x0, symName: '__ZN6platon1_86_$LT$impl$u20$pyo3..impl_..pyclass..PyClassImpl$u20$for$u20$platon..NativeRegistry$GT$3doc28_$u7b$$u7b$closure$u7d$$u7d$17h845b351bcc6f12b5E', symObjAddr: 0xEF4, symBinAddr: 0x23A48, symSize: 0x60 }
  - { offset: 0xAC08A, size: 0x8, addend: 0x0, symName: '__ZN6platon2VM12register_isa28_$u7b$$u7b$closure$u7d$$u7d$17ha953a8df3ba19092E', symObjAddr: 0xF74, symBinAddr: 0x23AC8, symSize: 0x64 }
  - { offset: 0xAC0CA, size: 0x8, addend: 0x0, symName: '__ZN6platon2VM4load28_$u7b$$u7b$closure$u7d$$u7d$17h75126c7d72527affE', symObjAddr: 0xFD8, symBinAddr: 0x23B2C, symSize: 0x64 }
  - { offset: 0xAC165, size: 0x8, addend: 0x0, symName: '__ZN6platon2VM7execute28_$u7b$$u7b$closure$u7d$$u7d$17h52d62201231a9643E', symObjAddr: 0x103C, symBinAddr: 0x23B90, symSize: 0x2C }
  - { offset: 0xAC18F, size: 0x8, addend: 0x0, symName: '__ZN6platon2VM7execute28_$u7b$$u7b$closure$u7d$$u7d$17h58d1aa8ffb3e7176E', symObjAddr: 0x1068, symBinAddr: 0x23BBC, symSize: 0x34 }
  - { offset: 0xAC1C9, size: 0x8, addend: 0x0, symName: '__ZN6platon2VM7execute28_$u7b$$u7b$closure$u7d$$u7d$17hb24cdceb1fe0eafdE', symObjAddr: 0x109C, symBinAddr: 0x23BF0, symSize: 0x10C }
  - { offset: 0xAC292, size: 0x8, addend: 0x0, symName: '__ZN6platon7VMError15type_object_raw28_$u7b$$u7b$closure$u7d$$u7d$17h896a8c53caabbaa3E', symObjAddr: 0x11A8, symBinAddr: 0x23CFC, symSize: 0x70 }
  - { offset: 0xAC339, size: 0x8, addend: 0x0, symName: '__ZN6platon7VmProxy11__getattr__28_$u7b$$u7b$closure$u7d$$u7d$17h999b444f1e340a7cE', symObjAddr: 0x1274, symBinAddr: 0x23DC8, symSize: 0x70 }
  - { offset: 0xAC954, size: 0x8, addend: 0x0, symName: __ZN6platon12TimeoutError7new_err17hbfb190998ec042e2E, symObjAddr: 0x698, symBinAddr: 0x231EC, symSize: 0x28 }
  - { offset: 0xACE78, size: 0x8, addend: 0x0, symName: __ZN6platon7VMError7new_err17hd350a9757c9d9333E, symObjAddr: 0x1218, symBinAddr: 0x23D6C, symSize: 0x28 }
  - { offset: 0xACEA3, size: 0x8, addend: 0x0, symName: __ZN6platon7VMError7new_err17hf5d9bf73a7c2fcd7E, symObjAddr: 0x1240, symBinAddr: 0x23D94, symSize: 0x34 }
  - { offset: 0xAD9D1, size: 0x8, addend: 0x0, symName: __ZN4core5alloc6layout6Layout25from_size_align_unchecked18precondition_check17hd55eb45136c7a16bE, symObjAddr: 0x0, symBinAddr: 0x23E60, symSize: 0xBC }
  - { offset: 0xADDF9, size: 0x8, addend: 0x0, symName: __ZN4core5alloc6layout6Layout25from_size_align_unchecked18precondition_check17hd55eb45136c7a16bE, symObjAddr: 0x0, symBinAddr: 0x23E60, symSize: 0xBC }
  - { offset: 0xAE05C, size: 0x8, addend: 0x0, symName: __ZN4pyo35types10typeobject6PyType11as_type_ptr17h5a9127bbdda15345E, symObjAddr: 0x0, symBinAddr: 0x23F1C, symSize: 0x28 }
  - { offset: 0xAF226, size: 0x8, addend: 0x0, symName: '__ZN75_$LT$pyo3..types..typeobject..PyType$u20$as$u20$core..ops..deref..Deref$GT$5deref17h1eac41ca60287eefE', symObjAddr: 0x4C, symBinAddr: 0x23F68, symSize: 0x14 }
  - { offset: 0xAF73F, size: 0x8, addend: 0x0, symName: __ZN4pyo35types10typeobject6PyType11as_type_ptr17h5a9127bbdda15345E, symObjAddr: 0x0, symBinAddr: 0x23F1C, symSize: 0x28 }
  - { offset: 0xAF799, size: 0x8, addend: 0x0, symName: __ZN4pyo35types10typeobject6PyType13from_type_ptr17hcf35f149e2be93b1E, symObjAddr: 0x28, symBinAddr: 0x23F44, symSize: 0x24 }
  - { offset: 0xAF7FF, size: 0x8, addend: 0x0, symName: '__ZN131_$LT$core..option..Option$LT$T$GT$$u20$as$u20$pyo3..conversion..IntoPy$LT$pyo3..instance..Py$LT$pyo3..types..any..PyAny$GT$$GT$$GT$7into_py28_$u7b$$u7b$closure$u7d$$u7d$17ha7f04a90dab399a0E', symObjAddr: 0x0, symBinAddr: 0x23F7C, symSize: 0x34 }
  - { offset: 0xB0C88, size: 0x8, addend: 0x0, symName: '__ZN131_$LT$core..option..Option$LT$T$GT$$u20$as$u20$pyo3..conversion..IntoPy$LT$pyo3..instance..Py$LT$pyo3..types..any..PyAny$GT$$GT$$GT$7into_py28_$u7b$$u7b$closure$u7d$$u7d$17ha7f04a90dab399a0E', symObjAddr: 0x0, symBinAddr: 0x23F7C, symSize: 0x34 }
  - { offset: 0xB0CDB, size: 0x8, addend: 0x0, symName: '__ZN131_$LT$core..option..Option$LT$T$GT$$u20$as$u20$pyo3..conversion..IntoPy$LT$pyo3..instance..Py$LT$pyo3..types..any..PyAny$GT$$GT$$GT$7into_py28_$u7b$$u7b$closure$u7d$$u7d$17hc7ba87e881048d35E', symObjAddr: 0x34, symBinAddr: 0x23FB0, symSize: 0x20 }
  - { offset: 0xB0D50, size: 0x8, addend: 0x0, symName: '__ZN4pyo310conversion13FromPyPointer26from_borrowed_ptr_or_panic28_$u7b$$u7b$closure$u7d$$u7d$17h2fa25960a6561b60E', symObjAddr: 0x54, symBinAddr: 0x23FD0, symSize: 0x14 }
  - { offset: 0xB0D93, size: 0x8, addend: 0x0, symName: '__ZN4pyo310conversion13FromPyPointer26from_borrowed_ptr_or_panic28_$u7b$$u7b$closure$u7d$$u7d$17hff92445cd3133be6E', symObjAddr: 0x68, symBinAddr: 0x23FE4, symSize: 0x14 }
  - { offset: 0xB0E08, size: 0x8, addend: 0x0, symName: '__ZN53_$LT$T$u20$as$u20$pyo3..conversion..FromPyPointer$GT$24from_borrowed_ptr_or_opt28_$u7b$$u7b$closure$u7d$$u7d$17h0fec11f5a266c98fE', symObjAddr: 0x7C, symBinAddr: 0x23FF8, symSize: 0x6C }
  - { offset: 0xB0E4A, size: 0x8, addend: 0x0, symName: '__ZN53_$LT$T$u20$as$u20$pyo3..conversion..FromPyPointer$GT$24from_borrowed_ptr_or_opt28_$u7b$$u7b$closure$u7d$$u7d$17h400b68ccf48c4b33E', symObjAddr: 0xE8, symBinAddr: 0x24064, symSize: 0x6C }
  - { offset: 0xB0E8C, size: 0x8, addend: 0x0, symName: '__ZN53_$LT$T$u20$as$u20$pyo3..conversion..FromPyPointer$GT$24from_borrowed_ptr_or_opt28_$u7b$$u7b$closure$u7d$$u7d$17h647d4f79a6e0e55cE', symObjAddr: 0x154, symBinAddr: 0x240D0, symSize: 0x6C }
  - { offset: 0xB1C86, size: 0x8, addend: 0x0, symName: __ZN8pyo3_ffi13unicodeobject15PyUnicode_Check17h37e7878a579e83e4E, symObjAddr: 0x0, symBinAddr: 0x2413C, symSize: 0x30 }
  - { offset: 0xB1D03, size: 0x8, addend: 0x0, symName: __ZN8pyo3_ffi13unicodeobject15PyUnicode_Check17h37e7878a579e83e4E, symObjAddr: 0x0, symBinAddr: 0x2413C, symSize: 0x30 }
  - { offset: 0xB3169, size: 0x8, addend: 0x0, symName: '__ZN118_$LT$pyo3..impl_..pyclass..SendablePyClass$LT$T$GT$$u20$as$u20$pyo3..impl_..pyclass..PyClassThreadChecker$LT$T$GT$$GT$3new17h2525302bc3dd73afE', symObjAddr: 0x0, symBinAddr: 0x2416C, symSize: 0x4 }
  - { offset: 0xB49BF, size: 0x8, addend: 0x0, symName: '__ZN118_$LT$pyo3..impl_..pyclass..SendablePyClass$LT$T$GT$$u20$as$u20$pyo3..impl_..pyclass..PyClassThreadChecker$LT$T$GT$$GT$3new17h2525302bc3dd73afE', symObjAddr: 0x0, symBinAddr: 0x2416C, symSize: 0x4 }
  - { offset: 0xB49E3, size: 0x8, addend: 0x0, symName: '__ZN118_$LT$pyo3..impl_..pyclass..SendablePyClass$LT$T$GT$$u20$as$u20$pyo3..impl_..pyclass..PyClassThreadChecker$LT$T$GT$$GT$3new17h5a56dd4dd8ec2a8dE', symObjAddr: 0x4, symBinAddr: 0x24170, symSize: 0x4 }
  - { offset: 0xB4A07, size: 0x8, addend: 0x0, symName: '__ZN118_$LT$pyo3..impl_..pyclass..SendablePyClass$LT$T$GT$$u20$as$u20$pyo3..impl_..pyclass..PyClassThreadChecker$LT$T$GT$$GT$3new17h85a463486cbc61c2E', symObjAddr: 0x8, symBinAddr: 0x24174, symSize: 0x4 }
  - { offset: 0xB4A2B, size: 0x8, addend: 0x0, symName: '__ZN118_$LT$pyo3..impl_..pyclass..SendablePyClass$LT$T$GT$$u20$as$u20$pyo3..impl_..pyclass..PyClassThreadChecker$LT$T$GT$$GT$3new17he0c8becf2b08e319E', symObjAddr: 0xC, symBinAddr: 0x24178, symSize: 0x4 }
  - { offset: 0xB4A4F, size: 0x8, addend: 0x0, symName: '__ZN118_$LT$pyo3..impl_..pyclass..SendablePyClass$LT$T$GT$$u20$as$u20$pyo3..impl_..pyclass..PyClassThreadChecker$LT$T$GT$$GT$6ensure17h1b76f6d1db95e312E', symObjAddr: 0x10, symBinAddr: 0x2417C, symSize: 0x10 }
  - { offset: 0xB4A82, size: 0x8, addend: 0x0, symName: '__ZN118_$LT$pyo3..impl_..pyclass..SendablePyClass$LT$T$GT$$u20$as$u20$pyo3..impl_..pyclass..PyClassThreadChecker$LT$T$GT$$GT$6ensure17h32a8f3ae916e932fE', symObjAddr: 0x20, symBinAddr: 0x2418C, symSize: 0x10 }
  - { offset: 0xB4AB5, size: 0x8, addend: 0x0, symName: '__ZN118_$LT$pyo3..impl_..pyclass..SendablePyClass$LT$T$GT$$u20$as$u20$pyo3..impl_..pyclass..PyClassThreadChecker$LT$T$GT$$GT$6ensure17h4c71e4ee045afc17E', symObjAddr: 0x30, symBinAddr: 0x2419C, symSize: 0x10 }
  - { offset: 0xB4AE8, size: 0x8, addend: 0x0, symName: '__ZN118_$LT$pyo3..impl_..pyclass..SendablePyClass$LT$T$GT$$u20$as$u20$pyo3..impl_..pyclass..PyClassThreadChecker$LT$T$GT$$GT$6ensure17hdde22db9f02ccf00E', symObjAddr: 0x40, symBinAddr: 0x241AC, symSize: 0x10 }
  - { offset: 0xB4B1B, size: 0x8, addend: 0x0, symName: '__ZN118_$LT$pyo3..impl_..pyclass..SendablePyClass$LT$T$GT$$u20$as$u20$pyo3..impl_..pyclass..PyClassThreadChecker$LT$T$GT$$GT$8can_drop17h1b490da640aee6b8E', symObjAddr: 0x50, symBinAddr: 0x241BC, symSize: 0x18 }
  - { offset: 0xB4B6D, size: 0x8, addend: 0x0, symName: '__ZN118_$LT$pyo3..impl_..pyclass..SendablePyClass$LT$T$GT$$u20$as$u20$pyo3..impl_..pyclass..PyClassThreadChecker$LT$T$GT$$GT$8can_drop17h1be5d898a1a7923aE', symObjAddr: 0x68, symBinAddr: 0x241D4, symSize: 0x18 }
  - { offset: 0xB4BBF, size: 0x8, addend: 0x0, symName: '__ZN118_$LT$pyo3..impl_..pyclass..SendablePyClass$LT$T$GT$$u20$as$u20$pyo3..impl_..pyclass..PyClassThreadChecker$LT$T$GT$$GT$8can_drop17h6dab01dfc329f3a0E', symObjAddr: 0x80, symBinAddr: 0x241EC, symSize: 0x18 }
  - { offset: 0xB4C11, size: 0x8, addend: 0x0, symName: '__ZN118_$LT$pyo3..impl_..pyclass..SendablePyClass$LT$T$GT$$u20$as$u20$pyo3..impl_..pyclass..PyClassThreadChecker$LT$T$GT$$GT$8can_drop17hf3403f76efc70f7aE', symObjAddr: 0x98, symBinAddr: 0x24204, symSize: 0x18 }
  - { offset: 0xB4C64, size: 0x8, addend: 0x0, symName: __ZN4pyo35impl_7pyclass10tp_dealloc17h145ee1d6155b1755E, symObjAddr: 0xB0, symBinAddr: 0x2421C, symSize: 0x34 }
  - { offset: 0xB4C97, size: 0x8, addend: 0x0, symName: __ZN4pyo35impl_7pyclass10tp_dealloc17hae47f9dbedc948fcE, symObjAddr: 0xE4, symBinAddr: 0x24250, symSize: 0x34 }
  - { offset: 0xB4CCA, size: 0x8, addend: 0x0, symName: __ZN4pyo35impl_7pyclass10tp_dealloc17hb624b08cbfca312dE, symObjAddr: 0x118, symBinAddr: 0x24284, symSize: 0x34 }
  - { offset: 0xB4CFD, size: 0x8, addend: 0x0, symName: __ZN4pyo35impl_7pyclass10tp_dealloc17hf8dd5d007eb8b0f1E, symObjAddr: 0x14C, symBinAddr: 0x242B8, symSize: 0x34 }
  - { offset: 0xB4D35, size: 0x8, addend: 0x0, symName: __ZN4pyo35impl_7pyclass11PyClassDict10clear_dict17h4847fa0bd7ebabe3E, symObjAddr: 0x180, symBinAddr: 0x242EC, symSize: 0x10 }
  - { offset: 0xB4D85, size: 0x8, addend: 0x0, symName: __ZN4pyo35impl_7pyclass14PyClassWeakRef14clear_weakrefs17h05fbba750349c4a8E, symObjAddr: 0x190, symBinAddr: 0x242FC, symSize: 0x14 }
  - { offset: 0xB4DDE, size: 0x8, addend: 0x0, symName: __ZN4pyo35impl_7pyclass18tp_dealloc_with_gc17h44a04ee4c2e124afE, symObjAddr: 0x1A4, symBinAddr: 0x24310, symSize: 0x4C }
  - { offset: 0xB4E2F, size: 0x8, addend: 0x0, symName: __ZN4pyo35impl_7pyclass18tp_dealloc_with_gc17h4bb2abff720bb33dE, symObjAddr: 0x1F0, symBinAddr: 0x2435C, symSize: 0x4C }
  - { offset: 0xB4E80, size: 0x8, addend: 0x0, symName: __ZN4pyo35impl_7pyclass18tp_dealloc_with_gc17hcacc5d1f5fee08e9E, symObjAddr: 0x23C, symBinAddr: 0x243A8, symSize: 0x4C }
  - { offset: 0xB4ED1, size: 0x8, addend: 0x0, symName: __ZN4pyo35impl_7pyclass18tp_dealloc_with_gc17he1ff9ee7d61cce15E, symObjAddr: 0x288, symBinAddr: 0x243F4, symSize: 0x4C }
  - { offset: 0xB4FF3, size: 0x8, addend: 0x0, symName: __ZN4pyo35impl_7pyclass30PyClass__delattr__SlotFragment11__delattr__17h7cba2823eaa70154E, symObjAddr: 0x2E4, symBinAddr: 0x24450, symSize: 0x78 }
  - { offset: 0xB506C, size: 0x8, addend: 0x0, symName: __ZN4pyo35impl_7pyclass30PyClass__delattr__SlotFragment11__delattr__17ha79d17293fce00d4E, symObjAddr: 0x35C, symBinAddr: 0x244C8, symSize: 0x78 }
  - { offset: 0xB50EB, size: 0x8, addend: 0x0, symName: __ZN4pyo35impl_7pyclass35PyClass__getattribute__SlotFragment16__getattribute__17h3fef29738fe50b83E, symObjAddr: 0x3D4, symBinAddr: 0x24540, symSize: 0xBC }
  - { offset: 0xB517B, size: 0x8, addend: 0x0, symName: __ZN4pyo35impl_7pyclass35PyClass__getattribute__SlotFragment16__getattribute__17h805f9da5755bcaaeE, symObjAddr: 0x490, symBinAddr: 0x245FC, symSize: 0xBC }
  - { offset: 0xB6638, size: 0x8, addend: 0x0, symName: '__ZN4pyo35impl_7pyclass29PyClassImplCollector$LT$T$GT$3new17h0f0f498e19b3b72eE', symObjAddr: 0x2D4, symBinAddr: 0x24440, symSize: 0x4 }
  - { offset: 0xB6655, size: 0x8, addend: 0x0, symName: '__ZN4pyo35impl_7pyclass29PyClassImplCollector$LT$T$GT$3new17h1503ebe782707fdcE', symObjAddr: 0x2D8, symBinAddr: 0x24444, symSize: 0x4 }
  - { offset: 0xB6672, size: 0x8, addend: 0x0, symName: '__ZN4pyo35impl_7pyclass29PyClassImplCollector$LT$T$GT$3new17h997f185971baebe9E', symObjAddr: 0x2DC, symBinAddr: 0x24448, symSize: 0x4 }
  - { offset: 0xB668F, size: 0x8, addend: 0x0, symName: '__ZN4pyo35impl_7pyclass29PyClassImplCollector$LT$T$GT$3new17heed462ef5585c5fbE', symObjAddr: 0x2E0, symBinAddr: 0x2444C, symSize: 0x4 }
  - { offset: 0xB67A5, size: 0x8, addend: 0x0, symName: __ZN4pyo37pyclass18create_type_object18create_type_object17h3d6c24b62bc843d1E, symObjAddr: 0x0, symBinAddr: 0x246B8, symSize: 0x164 }
  - { offset: 0xB8105, size: 0x8, addend: 0x0, symName: __ZN4pyo37pyclass18create_type_object18create_type_object17h3d6c24b62bc843d1E, symObjAddr: 0x0, symBinAddr: 0x246B8, symSize: 0x164 }
  - { offset: 0xB8165, size: 0x8, addend: 0x0, symName: __ZN4pyo37pyclass18create_type_object18create_type_object17h4211cf61113bb237E, symObjAddr: 0x164, symBinAddr: 0x2481C, symSize: 0x164 }
  - { offset: 0xB81C5, size: 0x8, addend: 0x0, symName: __ZN4pyo37pyclass18create_type_object18create_type_object17h8f0289bcd25949c6E, symObjAddr: 0x2C8, symBinAddr: 0x24980, symSize: 0x164 }
  - { offset: 0xB8225, size: 0x8, addend: 0x0, symName: __ZN4pyo37pyclass18create_type_object18create_type_object17hd3bcd242ac55183dE, symObjAddr: 0x42C, symBinAddr: 0x24AE4, symSize: 0x168 }
  - { offset: 0xB9958, size: 0x8, addend: 0x0, symName: __ZN8pyo3_ffi7cpython10listobject15PyList_SET_ITEM17h72df120d3b0afe80E, symObjAddr: 0x0, symBinAddr: 0x24C4C, symSize: 0x110 }
  - { offset: 0xB9F0F, size: 0x8, addend: 0x0, symName: __ZN8pyo3_ffi7cpython10listobject15PyList_SET_ITEM17h72df120d3b0afe80E, symObjAddr: 0x0, symBinAddr: 0x24C4C, symSize: 0x110 }
  - { offset: 0xBAEBD, size: 0x8, addend: 0x0, symName: __ZN4pyo36marker6Python17from_borrowed_ptr17h2fddef46559e4dccE, symObjAddr: 0x0, symBinAddr: 0x24D5C, symSize: 0x24 }
  - { offset: 0xBC817, size: 0x8, addend: 0x0, symName: __ZN4pyo36marker6Python17from_borrowed_ptr17h2fddef46559e4dccE, symObjAddr: 0x0, symBinAddr: 0x24D5C, symSize: 0x24 }
  - { offset: 0xBC86B, size: 0x8, addend: 0x0, symName: __ZN4pyo36marker6Python17from_borrowed_ptr17h42988f183eed8113E, symObjAddr: 0x24, symBinAddr: 0x24D80, symSize: 0x24 }
  - { offset: 0xBC8BF, size: 0x8, addend: 0x0, symName: __ZN4pyo36marker6Python24from_borrowed_ptr_or_opt17hd493cc30e52bda5eE, symObjAddr: 0x48, symBinAddr: 0x24DA4, symSize: 0x24 }
  - { offset: 0xBC913, size: 0x8, addend: 0x0, symName: __ZN4pyo36marker6Python24from_borrowed_ptr_or_opt17hd6628b47fb6f5bc3E, symObjAddr: 0x6C, symBinAddr: 0x24DC8, symSize: 0x24 }
  - { offset: 0xBC95A, size: 0x8, addend: 0x0, symName: __ZN4pyo36marker6Python24from_borrowed_ptr_or_opt17he5ead278fada1c80E, symObjAddr: 0x90, symBinAddr: 0x24DEC, symSize: 0x24 }
  - { offset: 0xBC9AE, size: 0x8, addend: 0x0, symName: __ZN4pyo36marker6Python8get_type17h5cf96ec1ce8dd520E, symObjAddr: 0xB4, symBinAddr: 0x24E10, symSize: 0x1C }
  - { offset: 0xBCA16, size: 0x8, addend: 0x0, symName: __ZN4pyo36marker6Python8get_type17h68a608dcec09a78fE, symObjAddr: 0xD0, symBinAddr: 0x24E2C, symSize: 0x1C }
  - { offset: 0xBCA4E, size: 0x8, addend: 0x0, symName: __ZN4pyo36marker6Python8get_type17hf6a92d6907a297c5E, symObjAddr: 0xEC, symBinAddr: 0x24E48, symSize: 0x1C }
  - { offset: 0xBCAA4, size: 0x8, addend: 0x0, symName: __ZN4core3str8converts19from_utf8_unchecked17h3de0934c1f745b00E, symObjAddr: 0x0, symBinAddr: 0x24E64, symSize: 0x18 }
  - { offset: 0xBCAC0, size: 0x8, addend: 0x0, symName: __ZN4core3str8converts19from_utf8_unchecked17h3de0934c1f745b00E, symObjAddr: 0x0, symBinAddr: 0x24E64, symSize: 0x18 }
  - { offset: 0xBCB60, size: 0x8, addend: 0x0, symName: __ZN4pyo35types8sequence16extract_sequence17h5b54f8df7811341eE, symObjAddr: 0x0, symBinAddr: 0x24E7C, symSize: 0x320 }
  - { offset: 0xBDFB7, size: 0x8, addend: 0x0, symName: __ZN4pyo35types8sequence16extract_sequence17h5b54f8df7811341eE, symObjAddr: 0x0, symBinAddr: 0x24E7C, symSize: 0x320 }
  - { offset: 0xBE870, size: 0x8, addend: 0x0, symName: __ZN9hashbrown7control5group4neon5Group10match_full17h3428796fa2ad5450E, symObjAddr: 0x0, symBinAddr: 0x2519C, symSize: 0x68 }
  - { offset: 0xBE988, size: 0x8, addend: 0x0, symName: __ZN9hashbrown7control5group4neon5Group10match_full17h3428796fa2ad5450E, symObjAddr: 0x0, symBinAddr: 0x2519C, symSize: 0x68 }
  - { offset: 0xBE9C0, size: 0x8, addend: 0x0, symName: __ZN9hashbrown7control5group4neon5Group22match_empty_or_deleted17h997ec2f33cb83f8bE, symObjAddr: 0x68, symBinAddr: 0x25204, symSize: 0x68 }
  - { offset: 0xBE9F8, size: 0x8, addend: 0x0, symName: __ZN9hashbrown7control5group4neon5Group44convert_special_to_empty_and_full_to_deleted17hf4a52e547496dd82E, symObjAddr: 0xD0, symBinAddr: 0x2526C, symSize: 0x88 }
  - { offset: 0xBEA30, size: 0x8, addend: 0x0, symName: __ZN9hashbrown7control5group4neon5Group9match_tag17hf6162240b536c2f5E, symObjAddr: 0x158, symBinAddr: 0x252F4, symSize: 0x7C }
  - { offset: 0xBEA9C, size: 0x8, addend: 0x0, symName: '__ZN50_$LT$T$u20$as$u20$core..convert..Into$LT$U$GT$$GT$4into17hdad89dfea9225940E', symObjAddr: 0x0, symBinAddr: 0x25370, symSize: 0x1C }
  - { offset: 0xBF230, size: 0x8, addend: 0x0, symName: '__ZN50_$LT$T$u20$as$u20$core..convert..Into$LT$U$GT$$GT$4into17hdad89dfea9225940E', symObjAddr: 0x0, symBinAddr: 0x25370, symSize: 0x1C }
  - { offset: 0xC000C, size: 0x8, addend: 0x0, symName: '__ZN56_$LT$T$u20$as$u20$pyo3..impl_..wrap..OkWrap$LT$T$GT$$GT$4wrap17hc297c63d0a624adfE', symObjAddr: 0x0, symBinAddr: 0x2538C, symSize: 0x30 }
  - { offset: 0xC1470, size: 0x8, addend: 0x0, symName: '__ZN56_$LT$T$u20$as$u20$pyo3..impl_..wrap..OkWrap$LT$T$GT$$GT$4wrap17hc297c63d0a624adfE', symObjAddr: 0x0, symBinAddr: 0x2538C, symSize: 0x30 }
  - { offset: 0xC14C9, size: 0x8, addend: 0x0, symName: '__ZN88_$LT$core..result..Result$LT$T$C$E$GT$$u20$as$u20$pyo3..impl_..wrap..OkWrap$LT$T$GT$$GT$4wrap28_$u7b$$u7b$closure$u7d$$u7d$17h645ea7d49632dfa1E', symObjAddr: 0x30, symBinAddr: 0x253BC, symSize: 0x20 }
  - { offset: 0xC1520, size: 0x8, addend: 0x0, symName: '__ZN88_$LT$core..result..Result$LT$T$C$E$GT$$u20$as$u20$pyo3..impl_..wrap..OkWrap$LT$T$GT$$GT$4wrap28_$u7b$$u7b$closure$u7d$$u7d$17hecf0f6775226d216E', symObjAddr: 0x50, symBinAddr: 0x253DC, symSize: 0x34 }
  - { offset: 0xC208A, size: 0x8, addend: 0x0, symName: '__ZN6platon1_140_$LT$impl$u20$pyo3..impl_..pyclass..PyMethods$LT$platon..VM$GT$$u20$for$u20$pyo3..impl_..pyclass..PyClassImplCollector$LT$platon..VM$GT$$GT$10py_methods17hbcf28b6637824289E', symObjAddr: 0x0, symBinAddr: 0x25410, symSize: 0x14 }
  - { offset: 0xC3A23, size: 0x8, addend: 0x0, symName: '__ZN6platon1_140_$LT$impl$u20$pyo3..impl_..pyclass..PyMethods$LT$platon..VM$GT$$u20$for$u20$pyo3..impl_..pyclass..PyClassImplCollector$LT$platon..VM$GT$$GT$10py_methods17hbcf28b6637824289E', symObjAddr: 0x0, symBinAddr: 0x25410, symSize: 0x14 }
  - { offset: 0xC3A6E, size: 0x8, addend: 0x0, symName: '__ZN6platon1_140_$LT$impl$u20$pyo3..impl_..pyclass..PyMethods$LT$platon..VM$GT$$u20$for$u20$pyo3..impl_..pyclass..PyClassImplCollector$LT$platon..VM$GT$$GT$10py_methods5ITEMS10trampoline154_$LT$impl$u20$pyo3..impl_..pyclass..PyClassNewTextSignature$LT$platon..VM$GT$$u20$for$u20$pyo3..impl_..pyclass..PyClassImplCollector$LT$platon..VM$GT$$GT$18new_text_signature17h3379009669fccd15E', symObjAddr: 0x14, symBinAddr: 0x25424, symSize: 0x1C }
  - { offset: 0xC3AA5, size: 0x8, addend: 0x0, symName: '__ZN6platon1_150_$LT$impl$u20$pyo3..impl_..pyclass..PyMethods$LT$platon..PyValue$GT$$u20$for$u20$pyo3..impl_..pyclass..PyClassImplCollector$LT$platon..PyValue$GT$$GT$10py_methods5ITEMS10trampoline164_$LT$impl$u20$pyo3..impl_..pyclass..PyClassNewTextSignature$LT$platon..PyValue$GT$$u20$for$u20$pyo3..impl_..pyclass..PyClassImplCollector$LT$platon..PyValue$GT$$GT$18new_text_signature17hf92cbd3e3bee83a2E', symObjAddr: 0x44, symBinAddr: 0x25454, symSize: 0x1C }
  - { offset: 0xC3AE0, size: 0x8, addend: 0x0, symName: '__ZN6platon1_150_$LT$impl$u20$pyo3..impl_..pyclass..PyMethods$LT$platon..PyValue$GT$$u20$for$u20$pyo3..impl_..pyclass..PyClassImplCollector$LT$platon..PyValue$GT$$GT$10py_methods17h4f6b9f718535d9e5E', symObjAddr: 0x30, symBinAddr: 0x25440, symSize: 0x14 }
  - { offset: 0xC3B17, size: 0x8, addend: 0x0, symName: '__ZN6platon1_171_$LT$impl$u20$pyo3..impl_..pyclass..PyClass__setattr__SlotFragment$LT$platon..VmProxy$GT$$u20$for$u20$pyo3..impl_..pyclass..PyClassImplCollector$LT$platon..VmProxy$GT$$GT$11__setattr__17h655f4ee652666f61E', symObjAddr: 0xEC, symBinAddr: 0x254FC, symSize: 0x34 }
  - { offset: 0xC3B91, size: 0x8, addend: 0x0, symName: '__ZN6platon1_185_$LT$impl$u20$pyo3..impl_..pyclass..PyClass__setattr__SlotFragment$LT$platon..NativeRegistry$GT$$u20$for$u20$pyo3..impl_..pyclass..PyClassImplCollector$LT$platon..NativeRegistry$GT$$GT$11__setattr__17h9fa7b69345c3894cE', symObjAddr: 0x14C, symBinAddr: 0x2555C, symSize: 0x34 }
  - { offset: 0xC3C11, size: 0x8, addend: 0x0, symName: '__ZN6platon1_150_$LT$impl$u20$pyo3..impl_..pyclass..PyMethods$LT$platon..VmProxy$GT$$u20$for$u20$pyo3..impl_..pyclass..PyClassImplCollector$LT$platon..VmProxy$GT$$GT$10py_methods17h84cddedf4cf63597E', symObjAddr: 0x60, symBinAddr: 0x25470, symSize: 0x14 }
  - { offset: 0xC3C5C, size: 0x8, addend: 0x0, symName: '__ZN6platon1_150_$LT$impl$u20$pyo3..impl_..pyclass..PyMethods$LT$platon..VmProxy$GT$$u20$for$u20$pyo3..impl_..pyclass..PyClassImplCollector$LT$platon..VmProxy$GT$$GT$10py_methods5ITEMS10trampoline164_$LT$impl$u20$pyo3..impl_..pyclass..PyClassNewTextSignature$LT$platon..VmProxy$GT$$u20$for$u20$pyo3..impl_..pyclass..PyClassImplCollector$LT$platon..VmProxy$GT$$GT$18new_text_signature17hac0538bafc92a4cfE', symObjAddr: 0x74, symBinAddr: 0x25484, symSize: 0x1C }
  - { offset: 0xC3C93, size: 0x8, addend: 0x0, symName: '__ZN6platon1_164_$LT$impl$u20$pyo3..impl_..pyclass..PyMethods$LT$platon..NativeRegistry$GT$$u20$for$u20$pyo3..impl_..pyclass..PyClassImplCollector$LT$platon..NativeRegistry$GT$$GT$10py_methods5ITEMS10trampoline178_$LT$impl$u20$pyo3..impl_..pyclass..PyClassNewTextSignature$LT$platon..NativeRegistry$GT$$u20$for$u20$pyo3..impl_..pyclass..PyClassImplCollector$LT$platon..NativeRegistry$GT$$GT$18new_text_signature17h133c0083e06dfd9bE', symObjAddr: 0xA4, symBinAddr: 0x254B4, symSize: 0x1C }
  - { offset: 0xC3CCE, size: 0x8, addend: 0x0, symName: '__ZN6platon1_164_$LT$impl$u20$pyo3..impl_..pyclass..PyMethods$LT$platon..NativeRegistry$GT$$u20$for$u20$pyo3..impl_..pyclass..PyClassImplCollector$LT$platon..NativeRegistry$GT$$GT$10py_methods17h40d813b7ecba7d21E', symObjAddr: 0x90, symBinAddr: 0x254A0, symSize: 0x14 }
  - { offset: 0xC3D0B, size: 0x8, addend: 0x0, symName: '__ZN6platon1_171_$LT$impl$u20$pyo3..impl_..pyclass..PyClass__getattr__SlotFragment$LT$platon..VmProxy$GT$$u20$for$u20$pyo3..impl_..pyclass..PyClassImplCollector$LT$platon..VmProxy$GT$$GT$11__getattr__17hf02e29a75073e77dE', symObjAddr: 0xC0, symBinAddr: 0x254D0, symSize: 0x2C }
  - { offset: 0xC3D77, size: 0x8, addend: 0x0, symName: '__ZN6platon1_185_$LT$impl$u20$pyo3..impl_..pyclass..PyClass__getattr__SlotFragment$LT$platon..NativeRegistry$GT$$u20$for$u20$pyo3..impl_..pyclass..PyClassImplCollector$LT$platon..NativeRegistry$GT$$GT$11__getattr__17h7f8fe8eb4b4bb811E', symObjAddr: 0x120, symBinAddr: 0x25530, symSize: 0x2C }
  - { offset: 0xC5651, size: 0x8, addend: 0x0, symName: __ZN4pyo35types8sequence10PySequence3len17h9e096eeba3730d64E, symObjAddr: 0x0, symBinAddr: 0x25590, symSize: 0xC0 }
  - { offset: 0xC69C4, size: 0x8, addend: 0x0, symName: '__ZN77_$LT$pyo3..types..sequence..PySequence$u20$as$u20$core..ops..deref..Deref$GT$5deref17hc51c89daed435ff7E', symObjAddr: 0xC0, symBinAddr: 0x25650, symSize: 0x14 }
  - { offset: 0xC70A0, size: 0x8, addend: 0x0, symName: __ZN4pyo35types8sequence10PySequence3len17h9e096eeba3730d64E, symObjAddr: 0x0, symBinAddr: 0x25590, symSize: 0xC0 }
  - { offset: 0xC7128, size: 0x8, addend: 0x0, symName: '__ZN3std3sys4sync8once_box16OnceBox$LT$T$GT$10initialize17hb2725ed240b89df7E', symObjAddr: 0x0, symBinAddr: 0x9C870, symSize: 0xD8 }
  - { offset: 0xC7884, size: 0x8, addend: 0x0, symName: '__ZN3std3sys4sync8once_box16OnceBox$LT$T$GT$10initialize17hb2725ed240b89df7E', symObjAddr: 0x0, symBinAddr: 0x9C870, symSize: 0xD8 }
  - { offset: 0xC7A5B, size: 0x8, addend: 0x0, symName: '__ZN3std3sys4sync8once_box16OnceBox$LT$T$GT$11get_or_init17h510e681e06230795E', symObjAddr: 0xD8, symBinAddr: 0x25664, symSize: 0xB4 }
  - { offset: 0xC7B3D, size: 0x8, addend: 0x0, symName: __ZN4core4iter6traits8iterator8Iterator3zip17h90fc8efcd8a43bc3E, symObjAddr: 0x0, symBinAddr: 0x25718, symSize: 0xB4 }
  - { offset: 0xC83F3, size: 0x8, addend: 0x0, symName: __ZN4core4iter6traits8iterator8Iterator3zip17h90fc8efcd8a43bc3E, symObjAddr: 0x0, symBinAddr: 0x25718, symSize: 0xB4 }
  - { offset: 0xC8469, size: 0x8, addend: 0x0, symName: __ZN4core4iter6traits8iterator8Iterator4take17hf00721c7e90c6bdcE, symObjAddr: 0xB4, symBinAddr: 0x257CC, symSize: 0x24 }
  - { offset: 0xC936B, size: 0x8, addend: 0x0, symName: '__ZN4pyo35types5tuple76_$LT$impl$u20$pyo3..conversion..FromPyObject$u20$for$u20$$LP$T0$C$T1$RP$$GT$7extract17h704927f0a93268ecE', symObjAddr: 0x130, symBinAddr: 0x25848, symSize: 0x230 }
  - { offset: 0xC947E, size: 0x8, addend: 0x0, symName: __ZN4pyo310conversion13FromPyPointer17from_borrowed_ptr17h9049e404709fe06eE, symObjAddr: 0xD8, symBinAddr: 0x257F0, symSize: 0x24 }
  - { offset: 0xC94D0, size: 0x8, addend: 0x0, symName: __ZN4pyo310conversion13FromPyPointer26from_borrowed_ptr_or_panic17he4423a4a0c31c23eE, symObjAddr: 0xFC, symBinAddr: 0x25814, symSize: 0x34 }
  - { offset: 0xC9528, size: 0x8, addend: 0x0, symName: '__ZN53_$LT$T$u20$as$u20$pyo3..conversion..FromPyPointer$GT$24from_borrowed_ptr_or_opt17hb41084f24d925675E', symObjAddr: 0x360, symBinAddr: 0x25A78, symSize: 0x28 }
  - { offset: 0xC9ED5, size: 0x8, addend: 0x0, symName: __ZN3std4sync6poison4Flag4done17h8f72064b7e1d0d2aE, symObjAddr: 0x0, symBinAddr: 0x25AA0, symSize: 0x8C }
  - { offset: 0xCA20E, size: 0x8, addend: 0x0, symName: __ZN3std4sync6poison4Flag4done17h8f72064b7e1d0d2aE, symObjAddr: 0x0, symBinAddr: 0x25AA0, symSize: 0x8C }
  - { offset: 0xCA2FC, size: 0x8, addend: 0x0, symName: __ZN3std4sync6poison4Flag5guard17h0c9e698c75eb6108E, symObjAddr: 0x8C, symBinAddr: 0x25B2C, symSize: 0xCC }
  - { offset: 0xCA3CA, size: 0x8, addend: 0x0, symName: _PyInit_platon, symObjAddr: 0x0, symBinAddr: 0x25BF8, symSize: 0x34 }
  - { offset: 0xCA3EF, size: 0x8, addend: 0x0, symName: __ZN6platon6platon3DEF17hc9d8b61cc527c2f3E, symObjAddr: 0x50, symBinAddr: 0xFC560, symSize: 0x0 }
  - { offset: 0xCA3FC, size: 0x8, addend: 0x0, symName: _PyInit_platon, symObjAddr: 0x0, symBinAddr: 0x25BF8, symSize: 0x34 }
  - { offset: 0xCC2FD, size: 0x8, addend: 0x0, symName: '__ZN4core5array8equality92_$LT$impl$u20$core..cmp..PartialEq$LT$$u5b$U$u3b$$u20$N$u5d$$GT$$u20$for$u20$$u5b$T$u5d$$GT$2ne17h9d8d686c1dc3d970E', symObjAddr: 0x0, symBinAddr: 0x25C2C, symSize: 0x7C }
  - { offset: 0xCC4A9, size: 0x8, addend: 0x0, symName: '__ZN4core5array8equality92_$LT$impl$u20$core..cmp..PartialEq$LT$$u5b$U$u3b$$u20$N$u5d$$GT$$u20$for$u20$$u5b$T$u5d$$GT$2ne17h9d8d686c1dc3d970E', symObjAddr: 0x0, symBinAddr: 0x25C2C, symSize: 0x7C }
  - { offset: 0xCC619, size: 0x8, addend: 0x0, symName: '__ZN69_$LT$T$u20$as$u20$core..array..equality..SpecArrayEq$LT$U$C$_$GT$$GT$7spec_ne17hc69926bf11131aa2E', symObjAddr: 0x7C, symBinAddr: 0x25CA8, symSize: 0x3C }
  - { offset: 0xCC72A, size: 0x8, addend: 0x0, symName: '__ZN53_$LT$T$u20$as$u20$core..convert..TryInto$LT$U$GT$$GT$8try_into17h1ccac6889348c8c0E', symObjAddr: 0x0, symBinAddr: 0x25CE4, symSize: 0x28 }
  - { offset: 0xCC746, size: 0x8, addend: 0x0, symName: '__ZN53_$LT$T$u20$as$u20$core..convert..TryInto$LT$U$GT$$GT$8try_into17h1ccac6889348c8c0E', symObjAddr: 0x0, symBinAddr: 0x25CE4, symSize: 0x28 }
  - { offset: 0xCC898, size: 0x8, addend: 0x0, symName: __ZN4pyo310conversion13FromPyPointer17from_borrowed_ptr17hfdf4fc6b578870acE, symObjAddr: 0x0, symBinAddr: 0x25D0C, symSize: 0x24 }
  - { offset: 0xCD04A, size: 0x8, addend: 0x0, symName: '__ZN50_$LT$T$u20$as$u20$core..convert..Into$LT$U$GT$$GT$4into17h87d319abc74cf3b8E', symObjAddr: 0x78, symBinAddr: 0x25D84, symSize: 0x24 }
  - { offset: 0xCDB02, size: 0x8, addend: 0x0, symName: __ZN4pyo310conversion13FromPyPointer17from_borrowed_ptr17hfdf4fc6b578870acE, symObjAddr: 0x0, symBinAddr: 0x25D0C, symSize: 0x24 }
  - { offset: 0xCDB54, size: 0x8, addend: 0x0, symName: __ZN4pyo310conversion13FromPyPointer26from_borrowed_ptr_or_panic17h5b7b21086209eb5fE, symObjAddr: 0x24, symBinAddr: 0x25D30, symSize: 0x34 }
  - { offset: 0xCDBAC, size: 0x8, addend: 0x0, symName: '__ZN53_$LT$T$u20$as$u20$pyo3..conversion..FromPyPointer$GT$24from_borrowed_ptr_or_opt17h231c418b46e29e23E', symObjAddr: 0x9C, symBinAddr: 0x25DA8, symSize: 0x28 }
  - { offset: 0xCDC0A, size: 0x8, addend: 0x0, symName: __ZN4pyo38instance12PyNativeType2py17h067931c463d538acE, symObjAddr: 0x58, symBinAddr: 0x25D64, symSize: 0x20 }
  - { offset: 0xCE1D5, size: 0x8, addend: 0x0, symName: '__ZN4pyo34sync20GILOnceCell$LT$T$GT$11get_or_init17h82bc117f9b572cc1E', symObjAddr: 0x0, symBinAddr: 0x25DD0, symSize: 0xC8 }
  - { offset: 0xCFB27, size: 0x8, addend: 0x0, symName: '__ZN4pyo34sync20GILOnceCell$LT$T$GT$11get_or_init28_$u7b$$u7b$closure$u7d$$u7d$17h8ec7bcdb024c501dE', symObjAddr: 0x190, symBinAddr: 0x25F60, symSize: 0x24 }
  - { offset: 0xCFB66, size: 0x8, addend: 0x0, symName: '__ZN4pyo34sync20GILOnceCell$LT$T$GT$11get_or_init28_$u7b$$u7b$closure$u7d$$u7d$17h9402ba02a48ab655E', symObjAddr: 0x1B4, symBinAddr: 0x25F84, symSize: 0x24 }
  - { offset: 0xD05AC, size: 0x8, addend: 0x0, symName: '__ZN4pyo34sync20GILOnceCell$LT$T$GT$11get_or_init17h82bc117f9b572cc1E', symObjAddr: 0x0, symBinAddr: 0x25DD0, symSize: 0xC8 }
  - { offset: 0xD063A, size: 0x8, addend: 0x0, symName: '__ZN4pyo34sync20GILOnceCell$LT$T$GT$11get_or_init17hd37a2cd7897dae6cE', symObjAddr: 0xC8, symBinAddr: 0x25E98, symSize: 0xC8 }
  - { offset: 0xD081A, size: 0x8, addend: 0x0, symName: '__ZN4pyo34sync20GILOnceCell$LT$T$GT$15get_or_try_init17h2f9a438695055affE', symObjAddr: 0x1D8, symBinAddr: 0x25FA8, symSize: 0xB4 }
  - { offset: 0xD0893, size: 0x8, addend: 0x0, symName: '__ZN4pyo34sync20GILOnceCell$LT$T$GT$15get_or_try_init17hc96c6185e40c1070E', symObjAddr: 0x28C, symBinAddr: 0x2605C, symSize: 0xB4 }
  - { offset: 0xD090C, size: 0x8, addend: 0x0, symName: '__ZN4pyo34sync20GILOnceCell$LT$T$GT$15get_or_try_init17hcfc9e63bf9febfc4E', symObjAddr: 0x340, symBinAddr: 0x26110, symSize: 0xB4 }
  - { offset: 0xD0985, size: 0x8, addend: 0x0, symName: '__ZN4pyo34sync20GILOnceCell$LT$T$GT$15get_or_try_init17hfedcac8dc1c1a6d0E', symObjAddr: 0x3F4, symBinAddr: 0x261C4, symSize: 0xB4 }
  - { offset: 0xD09FE, size: 0x8, addend: 0x0, symName: '__ZN4pyo34sync20GILOnceCell$LT$T$GT$3get17hb77038fcca8685c0E', symObjAddr: 0x4A8, symBinAddr: 0x26278, symSize: 0x70 }
  - { offset: 0xD0A7F, size: 0x8, addend: 0x0, symName: '__ZN4pyo34sync20GILOnceCell$LT$T$GT$3set17hd48733b4aa7b6ce8E', symObjAddr: 0x518, symBinAddr: 0x262E8, symSize: 0x194 }
  - { offset: 0xD0B78, size: 0x8, addend: 0x0, symName: '__ZN4pyo34sync20GILOnceCell$LT$T$GT$4init17h40d38b4ad90c1d8bE', symObjAddr: 0x6AC, symBinAddr: 0x9C948, symSize: 0x190 }
  - { offset: 0xD0C79, size: 0x8, addend: 0x0, symName: '__ZN4pyo34sync20GILOnceCell$LT$T$GT$4init17h432400969a28290aE', symObjAddr: 0x83C, symBinAddr: 0x9CAD8, symSize: 0x11C }
  - { offset: 0xD0D2D, size: 0x8, addend: 0x0, symName: '__ZN4pyo34sync20GILOnceCell$LT$T$GT$4init17h50f173ef10a147b5E', symObjAddr: 0x958, symBinAddr: 0x9CBF4, symSize: 0x190 }
  - { offset: 0xD0E03, size: 0x8, addend: 0x0, symName: '__ZN4pyo34sync20GILOnceCell$LT$T$GT$4init17hc01d2e5589c6bcaeE', symObjAddr: 0xAE8, symBinAddr: 0x9CD84, symSize: 0x11C }
  - { offset: 0xD0EB7, size: 0x8, addend: 0x0, symName: '__ZN4pyo34sync20GILOnceCell$LT$T$GT$4init17hda3ee4a701c13088E', symObjAddr: 0xC04, symBinAddr: 0x9CEA0, symSize: 0x190 }
  - { offset: 0xD0F8D, size: 0x8, addend: 0x0, symName: '__ZN4pyo34sync20GILOnceCell$LT$T$GT$4init17he5478630abc94e94E', symObjAddr: 0xD94, symBinAddr: 0x9D030, symSize: 0x190 }
  - { offset: 0xD108E, size: 0x8, addend: 0x0, symName: '__ZN4core3mem13manually_drop21ManuallyDrop$LT$T$GT$4drop17h0de5ac2247320819E', symObjAddr: 0x0, symBinAddr: 0x2647C, symSize: 0x20 }
  - { offset: 0xD365F, size: 0x8, addend: 0x0, symName: '__ZN4core3mem13manually_drop21ManuallyDrop$LT$T$GT$4drop17h0de5ac2247320819E', symObjAddr: 0x0, symBinAddr: 0x2647C, symSize: 0x20 }
  - { offset: 0xD38EC, size: 0x8, addend: 0x0, symName: '__ZN4core3mem13manually_drop21ManuallyDrop$LT$T$GT$4drop17h465d55713ff08802E', symObjAddr: 0x20, symBinAddr: 0x2649C, symSize: 0x20 }
  - { offset: 0xD3925, size: 0x8, addend: 0x0, symName: '__ZN4core3mem13manually_drop21ManuallyDrop$LT$T$GT$4drop17h49868439dd71b1c6E', symObjAddr: 0x40, symBinAddr: 0x264BC, symSize: 0x20 }
  - { offset: 0xD395E, size: 0x8, addend: 0x0, symName: '__ZN4core3mem13manually_drop21ManuallyDrop$LT$T$GT$4drop17h7f58f27ce53100a7E', symObjAddr: 0x60, symBinAddr: 0x264DC, symSize: 0x20 }
  - { offset: 0xD39A8, size: 0x8, addend: 0x0, symName: '__ZN4core3ptr7mut_ptr31_$LT$impl$u20$$BP$mut$u20$T$GT$6offset18precondition_check17h7999b0372a7bbefdE', symObjAddr: 0x0, symBinAddr: 0x264FC, symSize: 0xC4 }
  - { offset: 0xD3A5E, size: 0x8, addend: 0x0, symName: '__ZN4core3ptr7mut_ptr31_$LT$impl$u20$$BP$mut$u20$T$GT$6offset18precondition_check17h7999b0372a7bbefdE', symObjAddr: 0x0, symBinAddr: 0x264FC, symSize: 0xC4 }
  - { offset: 0xD3E51, size: 0x8, addend: 0x0, symName: '__ZN4core3ptr8non_null16NonNull$LT$T$GT$3new17h379f13f860f4decbE', symObjAddr: 0x0, symBinAddr: 0x265C0, symSize: 0x58 }
  - { offset: 0xD56D1, size: 0x8, addend: 0x0, symName: '__ZN4core3ptr8non_null16NonNull$LT$T$GT$3new17h379f13f860f4decbE', symObjAddr: 0x0, symBinAddr: 0x265C0, symSize: 0x58 }
  - { offset: 0xD5748, size: 0x8, addend: 0x0, symName: '__ZN4core3ptr8non_null16NonNull$LT$T$GT$3new17hc130ea54f4748d57E', symObjAddr: 0x58, symBinAddr: 0x26618, symSize: 0x58 }
  - { offset: 0xD57BF, size: 0x8, addend: 0x0, symName: '__ZN4core3ptr8non_null16NonNull$LT$T$GT$3new17hf6793bfa6b11d131E', symObjAddr: 0xB0, symBinAddr: 0x26670, symSize: 0x58 }
  - { offset: 0xD581F, size: 0x8, addend: 0x0, symName: __ZN4pyo35types6string8PyString6to_str17h3865be0dae2622a5E, symObjAddr: 0x0, symBinAddr: 0x266C8, symSize: 0xD0 }
  - { offset: 0xD6B0F, size: 0x8, addend: 0x0, symName: '__ZN73_$LT$pyo3..types..string..PyString$u20$as$u20$core..ops..deref..Deref$GT$5deref17h26e44f5c633a8184E', symObjAddr: 0xD0, symBinAddr: 0x26798, symSize: 0x14 }
  - { offset: 0xD6B41, size: 0x8, addend: 0x0, symName: '__ZN79_$LT$pyo3..types..string..PyString$u20$as$u20$pyo3..type_object..PyTypeInfo$GT$10is_type_of17hcc11fb35ff848746E', symObjAddr: 0xE4, symBinAddr: 0x267AC, symSize: 0x30 }
  - { offset: 0xD7244, size: 0x8, addend: 0x0, symName: __ZN4pyo35types6string8PyString6to_str17h3865be0dae2622a5E, symObjAddr: 0x0, symBinAddr: 0x266C8, symSize: 0xD0 }
  - { offset: 0xD730A, size: 0x8, addend: 0x0, symName: '__ZN4core4cell13Cell$LT$T$GT$3new17h158370f31a56c9bbE', symObjAddr: 0x0, symBinAddr: 0x267DC, symSize: 0x10 }
  - { offset: 0xD73AC, size: 0x8, addend: 0x0, symName: '__ZN4core4cell13Cell$LT$T$GT$3new17h158370f31a56c9bbE', symObjAddr: 0x0, symBinAddr: 0x267DC, symSize: 0x10 }
  - { offset: 0xD73F6, size: 0x8, addend: 0x0, symName: __ZN4pyo311type_object11get_tp_free17h75cd505927254a65E, symObjAddr: 0x0, symBinAddr: 0x267EC, symSize: 0xA0 }
  - { offset: 0xD85AD, size: 0x8, addend: 0x0, symName: __ZN4pyo311type_object11get_tp_free17h75cd505927254a65E, symObjAddr: 0x0, symBinAddr: 0x267EC, symSize: 0xA0 }
  - { offset: 0xD8A24, size: 0x8, addend: 0x0, symName: '__ZN4core5slice29_$LT$impl$u20$$u5b$T$u5d$$GT$18split_at_unchecked18precondition_check17h9eadc2bfed7e3493E', symObjAddr: 0x0, symBinAddr: 0x2688C, symSize: 0x60 }
  - { offset: 0xD8A45, size: 0x8, addend: 0x0, symName: '__ZN4core5slice29_$LT$impl$u20$$u5b$T$u5d$$GT$18split_at_unchecked18precondition_check17h9eadc2bfed7e3493E', symObjAddr: 0x0, symBinAddr: 0x2688C, symSize: 0x60 }
  - { offset: 0xD8AEF, size: 0x8, addend: 0x0, symName: '__ZN71_$LT$T$u20$as$u20$pyo3..impl_..extract_argument..PyFunctionArgument$GT$7extract17hbf571437d5305abaE', symObjAddr: 0x0, symBinAddr: 0x268EC, symSize: 0x28 }
  - { offset: 0xD9DB5, size: 0x8, addend: 0x0, symName: '__ZN71_$LT$T$u20$as$u20$pyo3..impl_..extract_argument..PyFunctionArgument$GT$7extract17hbf571437d5305abaE', symObjAddr: 0x0, symBinAddr: 0x268EC, symSize: 0x28 }
  - { offset: 0xDA504, size: 0x8, addend: 0x0, symName: __ZN4pyo35types4dict6PyDict8set_item17h1672865f32abf5d2E, symObjAddr: 0x0, symBinAddr: 0x26914, symSize: 0xE8 }
  - { offset: 0xDB950, size: 0x8, addend: 0x0, symName: '__ZN50_$LT$T$u20$as$u20$core..convert..Into$LT$U$GT$$GT$4into17hef73d1535bf2783dE', symObjAddr: 0x400, symBinAddr: 0x26D14, symSize: 0x24 }
  - { offset: 0xDB9A6, size: 0x8, addend: 0x0, symName: '__ZN63_$LT$I$u20$as$u20$core..iter..traits..collect..IntoIterator$GT$9into_iter17haf808be512a054d0E', symObjAddr: 0x44C, symBinAddr: 0x26D60, symSize: 0x14 }
  - { offset: 0xDBD49, size: 0x8, addend: 0x0, symName: __ZN4pyo38instance12PyNativeType2py17h66c4e64f9a601e47E, symObjAddr: 0x3E0, symBinAddr: 0x26CF4, symSize: 0x20 }
  - { offset: 0xDBDCB, size: 0x8, addend: 0x0, symName: '__ZN53_$LT$T$u20$as$u20$pyo3..conversion..FromPyPointer$GT$24from_borrowed_ptr_or_opt17hde9b13ce1fe2d088E', symObjAddr: 0x424, symBinAddr: 0x26D38, symSize: 0x28 }
  - { offset: 0xDC44F, size: 0x8, addend: 0x0, symName: __ZN4pyo35types4dict6PyDict8set_item17h1672865f32abf5d2E, symObjAddr: 0x0, symBinAddr: 0x26914, symSize: 0xE8 }
  - { offset: 0xDC4B4, size: 0x8, addend: 0x0, symName: __ZN4pyo35types4dict6PyDict8set_item17h7d5d6b50b9dcf66eE, symObjAddr: 0xE8, symBinAddr: 0x269FC, symSize: 0xE8 }
  - { offset: 0xDC519, size: 0x8, addend: 0x0, symName: __ZN4pyo35types4dict6PyDict8set_item17h82693ea2e52d22fdE, symObjAddr: 0x1D0, symBinAddr: 0x26AE4, symSize: 0x108 }
  - { offset: 0xDC57E, size: 0x8, addend: 0x0, symName: __ZN4pyo35types4dict6PyDict8set_item17hbeee6a5d7ae876f2E, symObjAddr: 0x2D8, symBinAddr: 0x26BEC, symSize: 0x108 }
  - { offset: 0xDC639, size: 0x8, addend: 0x0, symName: __ZN4core3fmt2rt8Argument11new_display17h5572997c59580c7eE, symObjAddr: 0x0, symBinAddr: 0x26D74, symSize: 0x2C }
  - { offset: 0xDCA11, size: 0x8, addend: 0x0, symName: __ZN4core3fmt2rt8Argument11new_display17h5572997c59580c7eE, symObjAddr: 0x0, symBinAddr: 0x26D74, symSize: 0x2C }
  - { offset: 0xDCA49, size: 0x8, addend: 0x0, symName: __ZN4core3fmt2rt8Argument11new_display17h718ef2fff2afef15E, symObjAddr: 0x2C, symBinAddr: 0x26DA0, symSize: 0x2C }
  - { offset: 0xDCA88, size: 0x8, addend: 0x0, symName: __ZN4core3fmt2rt8Argument11new_display17h9b8f7059956d2740E, symObjAddr: 0x58, symBinAddr: 0x26DCC, symSize: 0x2C }
  - { offset: 0xDCAC0, size: 0x8, addend: 0x0, symName: __ZN4core3fmt2rt8Argument11new_display17ha974b3034cd98633E, symObjAddr: 0x84, symBinAddr: 0x26DF8, symSize: 0x2C }
  - { offset: 0xDCAF8, size: 0x8, addend: 0x0, symName: __ZN4core3fmt2rt8Argument11new_display17had0f1e8a37a31856E, symObjAddr: 0xB0, symBinAddr: 0x26E24, symSize: 0x2C }
  - { offset: 0xDCB23, size: 0x8, addend: 0x0, symName: __ZN4core3fmt2rt8Argument13new_upper_hex17h6751ab8f865285d8E, symObjAddr: 0xDC, symBinAddr: 0x26E50, symSize: 0x2C }
  - { offset: 0xDCB6C, size: 0x8, addend: 0x0, symName: '__ZN100_$LT$pyo3..pycell..impl_..MutableClass$u20$as$u20$pyo3..pycell..impl_..GetBorrowChecker$LT$T$GT$$GT$14borrow_checker17h17c76f9af61d049bE', symObjAddr: 0x0, symBinAddr: 0x26E7C, symSize: 0x14 }
  - { offset: 0xDE22C, size: 0x8, addend: 0x0, symName: '__ZN100_$LT$pyo3..pycell..impl_..MutableClass$u20$as$u20$pyo3..pycell..impl_..GetBorrowChecker$LT$T$GT$$GT$14borrow_checker17h17c76f9af61d049bE', symObjAddr: 0x0, symBinAddr: 0x26E7C, symSize: 0x14 }
  - { offset: 0xDE261, size: 0x8, addend: 0x0, symName: '__ZN100_$LT$pyo3..pycell..impl_..MutableClass$u20$as$u20$pyo3..pycell..impl_..GetBorrowChecker$LT$T$GT$$GT$14borrow_checker17h596128ae7ef1b71bE', symObjAddr: 0x14, symBinAddr: 0x26E90, symSize: 0x14 }
  - { offset: 0xDE296, size: 0x8, addend: 0x0, symName: '__ZN100_$LT$pyo3..pycell..impl_..MutableClass$u20$as$u20$pyo3..pycell..impl_..GetBorrowChecker$LT$T$GT$$GT$14borrow_checker17h710a7659f463ddd4E', symObjAddr: 0x28, symBinAddr: 0x26EA4, symSize: 0x14 }
  - { offset: 0xDE2CB, size: 0x8, addend: 0x0, symName: '__ZN100_$LT$pyo3..pycell..impl_..MutableClass$u20$as$u20$pyo3..pycell..impl_..GetBorrowChecker$LT$T$GT$$GT$14borrow_checker17h77db079c6198a562E', symObjAddr: 0x3C, symBinAddr: 0x26EB8, symSize: 0x14 }
  - { offset: 0xDF79B, size: 0x8, addend: 0x0, symName: '__ZN67_$LT$core..array..TryFromSliceError$u20$as$u20$core..fmt..Debug$GT$3fmt17h7615c10f23b62cb6E', symObjAddr: 0x0, symBinAddr: 0x26ECC, symSize: 0x54 }
  - { offset: 0xDF7C5, size: 0x8, addend: 0x0, symName: '__ZN67_$LT$core..array..TryFromSliceError$u20$as$u20$core..fmt..Debug$GT$3fmt17h7615c10f23b62cb6E', symObjAddr: 0x0, symBinAddr: 0x26ECC, symSize: 0x54 }
  - { offset: 0xDF995, size: 0x8, addend: 0x0, symName: '__ZN4core4iter6traits8iterator8Iterator12try_for_each4call28_$u7b$$u7b$closure$u7d$$u7d$17he3d9bce68de21072E', symObjAddr: 0x0, symBinAddr: 0x26F20, symSize: 0x3C }
  - { offset: 0xE015B, size: 0x8, addend: 0x0, symName: '__ZN4core4iter6traits8iterator8Iterator12try_for_each4call28_$u7b$$u7b$closure$u7d$$u7d$17he3d9bce68de21072E', symObjAddr: 0x0, symBinAddr: 0x26F20, symSize: 0x3C }
  - { offset: 0xE01CD, size: 0x8, addend: 0x0, symName: '__ZN4core4iter6traits8iterator8Iterator8for_each4call28_$u7b$$u7b$closure$u7d$$u7d$17h39319191d40fe42aE', symObjAddr: 0x3C, symBinAddr: 0x26F5C, symSize: 0x2C }
  - { offset: 0xE0225, size: 0x8, addend: 0x0, symName: '__ZN4core4iter6traits8iterator8Iterator8for_each4call28_$u7b$$u7b$closure$u7d$$u7d$17h3d5650e208de3572E', symObjAddr: 0x68, symBinAddr: 0x26F88, symSize: 0x2C }
  - { offset: 0xE028E, size: 0x8, addend: 0x0, symName: '__ZN87_$LT$I$u20$as$u20$core..iter..traits..iterator..Iterator..advance_by..SpecAdvanceBy$GT$15spec_advance_by28_$u7b$$u7b$closure$u7d$$u7d$17h7be977286908963eE', symObjAddr: 0x94, symBinAddr: 0x26FB4, symSize: 0x40 }
  - { offset: 0xE1996, size: 0x8, addend: 0x0, symName: '__ZN92_$LT$hashbrown..map..Iter$LT$K$C$V$GT$$u20$as$u20$core..iter..traits..iterator..Iterator$GT$4next17h6759fc7717a7d0e4E', symObjAddr: 0x0, symBinAddr: 0x26FF4, symSize: 0xF0 }
  - { offset: 0xE4120, size: 0x8, addend: 0x0, symName: '__ZN92_$LT$hashbrown..map..Iter$LT$K$C$V$GT$$u20$as$u20$core..iter..traits..iterator..Iterator$GT$4next17h6759fc7717a7d0e4E', symObjAddr: 0x0, symBinAddr: 0x26FF4, symSize: 0xF0 }
  - { offset: 0xE423B, size: 0x8, addend: 0x0, symName: '__ZN92_$LT$hashbrown..map..Iter$LT$K$C$V$GT$$u20$as$u20$core..iter..traits..iterator..Iterator$GT$4next17h6ab46c85ec013bcbE', symObjAddr: 0xF0, symBinAddr: 0x270E4, symSize: 0xF0 }
  - { offset: 0xE4356, size: 0x8, addend: 0x0, symName: '__ZN92_$LT$hashbrown..map..Iter$LT$K$C$V$GT$$u20$as$u20$core..iter..traits..iterator..Iterator$GT$4next17hce9aa17aae985382E', symObjAddr: 0x1E0, symBinAddr: 0x271D4, symSize: 0xF0 }
  - { offset: 0xE44B0, size: 0x8, addend: 0x0, symName: '__ZN9hashbrown3map11make_hasher28_$u7b$$u7b$closure$u7d$$u7d$17h1986dfa670904c67E', symObjAddr: 0x2D0, symBinAddr: 0x272C4, symSize: 0x3C }
  - { offset: 0xE452C, size: 0x8, addend: 0x0, symName: '__ZN9hashbrown3map11make_hasher28_$u7b$$u7b$closure$u7d$$u7d$17h6fd9a2c9b0b0d391E', symObjAddr: 0x30C, symBinAddr: 0x27300, symSize: 0x3C }
  - { offset: 0xE45A8, size: 0x8, addend: 0x0, symName: '__ZN9hashbrown3map11make_hasher28_$u7b$$u7b$closure$u7d$$u7d$17he96ca315beec7e5fE', symObjAddr: 0x348, symBinAddr: 0x2733C, symSize: 0x3C }
  - { offset: 0xE469C, size: 0x8, addend: 0x0, symName: '__ZN9hashbrown3map14equivalent_key28_$u7b$$u7b$closure$u7d$$u7d$17h18753b291fa7f86eE', symObjAddr: 0x384, symBinAddr: 0x27378, symSize: 0x3C }
  - { offset: 0xE46F3, size: 0x8, addend: 0x0, symName: '__ZN9hashbrown3map14equivalent_key28_$u7b$$u7b$closure$u7d$$u7d$17h514fa65e93978504E', symObjAddr: 0x3C0, symBinAddr: 0x273B4, symSize: 0x30 }
  - { offset: 0xE474A, size: 0x8, addend: 0x0, symName: '__ZN9hashbrown3map14equivalent_key28_$u7b$$u7b$closure$u7d$$u7d$17h5de128d457053f1cE', symObjAddr: 0x3F0, symBinAddr: 0x273E4, symSize: 0x30 }
  - { offset: 0xE47A1, size: 0x8, addend: 0x0, symName: '__ZN9hashbrown3map14equivalent_key28_$u7b$$u7b$closure$u7d$$u7d$17h6d757eea483d8369E', symObjAddr: 0x420, symBinAddr: 0x27414, symSize: 0x30 }
  - { offset: 0xE47F8, size: 0x8, addend: 0x0, symName: '__ZN9hashbrown3map14equivalent_key28_$u7b$$u7b$closure$u7d$$u7d$17hf16b8ce0d03aad65E', symObjAddr: 0x450, symBinAddr: 0x27444, symSize: 0x3C }
  - { offset: 0xE5A77, size: 0x8, addend: 0x0, symName: '__ZN9hashbrown3map28HashMap$LT$K$C$V$C$S$C$A$GT$3get17h3c93d5db67b532feE', symObjAddr: 0x48C, symBinAddr: 0x27480, symSize: 0x118 }
  - { offset: 0xE5D4D, size: 0x8, addend: 0x0, symName: '__ZN9hashbrown3map28HashMap$LT$K$C$V$C$S$C$A$GT$3get17hdf317abce22b08abE', symObjAddr: 0x5A4, symBinAddr: 0x27598, symSize: 0x118 }
  - { offset: 0xE6075, size: 0x8, addend: 0x0, symName: '__ZN9hashbrown3map28HashMap$LT$K$C$V$C$S$C$A$GT$4iter17h11687cd7be3d15a2E', symObjAddr: 0x6BC, symBinAddr: 0x276B0, symSize: 0xA8 }
  - { offset: 0xE634E, size: 0x8, addend: 0x0, symName: '__ZN9hashbrown3map28HashMap$LT$K$C$V$C$S$C$A$GT$4iter17h5fe0b5fb5987a89aE', symObjAddr: 0x764, symBinAddr: 0x27758, symSize: 0xA8 }
  - { offset: 0xE6634, size: 0x8, addend: 0x0, symName: '__ZN9hashbrown3map28HashMap$LT$K$C$V$C$S$C$A$GT$4iter17h6cf83049811c7b6aE', symObjAddr: 0x80C, symBinAddr: 0x27800, symSize: 0xA8 }
  - { offset: 0xE6907, size: 0x8, addend: 0x0, symName: '__ZN9hashbrown3map28HashMap$LT$K$C$V$C$S$C$A$GT$6insert17h29ae075c1d8c304eE', symObjAddr: 0x8B4, symBinAddr: 0x278A8, symSize: 0x1C0 }
  - { offset: 0xE6C27, size: 0x8, addend: 0x0, symName: '__ZN9hashbrown3map28HashMap$LT$K$C$V$C$S$C$A$GT$6insert17h9044e48cd4201486E', symObjAddr: 0xA74, symBinAddr: 0x27A68, symSize: 0x1D0 }
  - { offset: 0xE6F53, size: 0x8, addend: 0x0, symName: '__ZN9hashbrown3map28HashMap$LT$K$C$V$C$S$C$A$GT$6insert17hf73d04948d2166e6E', symObjAddr: 0xC44, symBinAddr: 0x27C38, symSize: 0x1D8 }
  - { offset: 0xE718A, size: 0x8, addend: 0x0, symName: __ZN9hashbrown3raw13RawTableInner13drop_elements17h1db4c8e05b0d8099E, symObjAddr: 0x0, symBinAddr: 0x27E10, symSize: 0x15C }
  - { offset: 0xE71B9, size: 0x8, addend: 0x0, symName: '__ZN9hashbrown3raw21RawTable$LT$T$C$A$GT$14reserve_rehash28_$u7b$$u7b$closure$u7d$$u7d$17h155e57b453aa89a8E', symObjAddr: 0x241C, symBinAddr: 0x28B18, symSize: 0x30 }
  - { offset: 0xE7209, size: 0x8, addend: 0x0, symName: '__ZN9hashbrown3raw21RawTable$LT$T$C$A$GT$14reserve_rehash28_$u7b$$u7b$closure$u7d$$u7d$17h2f63216182b63251E', symObjAddr: 0x244C, symBinAddr: 0x28B48, symSize: 0xC0 }
  - { offset: 0xE73E7, size: 0x8, addend: 0x0, symName: '__ZN9hashbrown3raw21RawTable$LT$T$C$A$GT$14reserve_rehash28_$u7b$$u7b$closure$u7d$$u7d$17h527a93fef17fc51aE', symObjAddr: 0x250C, symBinAddr: 0x28C08, symSize: 0xC0 }
  - { offset: 0xE75C5, size: 0x8, addend: 0x0, symName: '__ZN9hashbrown3raw21RawTable$LT$T$C$A$GT$14reserve_rehash28_$u7b$$u7b$closure$u7d$$u7d$17h972b0682e763155eE', symObjAddr: 0x25CC, symBinAddr: 0x28CC8, symSize: 0xC0 }
  - { offset: 0xE77A3, size: 0x8, addend: 0x0, symName: '__ZN9hashbrown3raw21RawTable$LT$T$C$A$GT$14reserve_rehash28_$u7b$$u7b$closure$u7d$$u7d$17ha977a54706b73430E', symObjAddr: 0x268C, symBinAddr: 0x28D88, symSize: 0x30 }
  - { offset: 0xE77F3, size: 0x8, addend: 0x0, symName: '__ZN9hashbrown3raw21RawTable$LT$T$C$A$GT$14reserve_rehash28_$u7b$$u7b$closure$u7d$$u7d$17hb3095622fcfbd4c0E', symObjAddr: 0x26BC, symBinAddr: 0x28DB8, symSize: 0x30 }
  - { offset: 0xE785E, size: 0x8, addend: 0x0, symName: '__ZN9hashbrown3raw21RawTable$LT$T$C$A$GT$25find_or_find_insert_index28_$u7b$$u7b$closure$u7d$$u7d$17h1b652e5fb31644e3E', symObjAddr: 0x2DE4, symBinAddr: 0x294E0, symSize: 0xC4 }
  - { offset: 0xE7A4B, size: 0x8, addend: 0x0, symName: '__ZN9hashbrown3raw21RawTable$LT$T$C$A$GT$25find_or_find_insert_index28_$u7b$$u7b$closure$u7d$$u7d$17h6d3a5ccae4be0f97E', symObjAddr: 0x2EA8, symBinAddr: 0x295A4, symSize: 0xC4 }
  - { offset: 0xE7C38, size: 0x8, addend: 0x0, symName: '__ZN9hashbrown3raw21RawTable$LT$T$C$A$GT$25find_or_find_insert_index28_$u7b$$u7b$closure$u7d$$u7d$17he3f003adedab51a5E', symObjAddr: 0x2F6C, symBinAddr: 0x29668, symSize: 0xC4 }
  - { offset: 0xE7E2B, size: 0x8, addend: 0x0, symName: '__ZN9hashbrown3raw21RawTable$LT$T$C$A$GT$4find28_$u7b$$u7b$closure$u7d$$u7d$17h15e366103f7d02d9E', symObjAddr: 0x3660, symBinAddr: 0x29D5C, symSize: 0xC4 }
  - { offset: 0xE800F, size: 0x8, addend: 0x0, symName: '__ZN9hashbrown3raw21RawTable$LT$T$C$A$GT$4find28_$u7b$$u7b$closure$u7d$$u7d$17hc54ad7855127e389E', symObjAddr: 0x3724, symBinAddr: 0x29E20, symSize: 0xC4 }
  - { offset: 0xE8200, size: 0x8, addend: 0x0, symName: '__ZN9hashbrown3raw21RawTable$LT$T$C$A$GT$5clear28_$u7b$$u7b$closure$u7d$$u7d$17h98a1d76c642480c7E', symObjAddr: 0x3864, symBinAddr: 0x29F60, symSize: 0xD8 }
  - { offset: 0xED594, size: 0x8, addend: 0x0, symName: __ZN9hashbrown3raw13RawTableInner13drop_elements17h1db4c8e05b0d8099E, symObjAddr: 0x0, symBinAddr: 0x27E10, symSize: 0x15C }
  - { offset: 0xED945, size: 0x8, addend: 0x0, symName: __ZN9hashbrown3raw13RawTableInner13drop_elements17h315ba465a843e5b8E, symObjAddr: 0x15C, symBinAddr: 0x27F6C, symSize: 0x15C }
  - { offset: 0xEDCF6, size: 0x8, addend: 0x0, symName: __ZN9hashbrown3raw13RawTableInner13drop_elements17h8a9cf6f7cb096c79E, symObjAddr: 0x2B8, symBinAddr: 0x280C8, symSize: 0x15C }
  - { offset: 0xEE09F, size: 0x8, addend: 0x0, symName: __ZN9hashbrown3raw13RawTableInner16drop_inner_table17h2431d3a2c649cedeE, symObjAddr: 0x414, symBinAddr: 0x28224, symSize: 0xB0 }
  - { offset: 0xEE324, size: 0x8, addend: 0x0, symName: __ZN9hashbrown3raw13RawTableInner16drop_inner_table17h40a35e63c4a30529E, symObjAddr: 0x4C4, symBinAddr: 0x282D4, symSize: 0xB0 }
  - { offset: 0xEE5A9, size: 0x8, addend: 0x0, symName: __ZN9hashbrown3raw13RawTableInner16drop_inner_table17hab6ea852f7a5ce52E, symObjAddr: 0x574, symBinAddr: 0x28384, symSize: 0xB0 }
  - { offset: 0xEE79F, size: 0x8, addend: 0x0, symName: '__ZN9hashbrown3raw21RawIterRange$LT$T$GT$3new17h822fa5e5ceb60793E', symObjAddr: 0x624, symBinAddr: 0x28434, symSize: 0x98 }
  - { offset: 0xEE90C, size: 0x8, addend: 0x0, symName: '__ZN9hashbrown3raw21RawIterRange$LT$T$GT$3new17h93774ddbad8b52deE', symObjAddr: 0x6BC, symBinAddr: 0x284CC, symSize: 0x98 }
  - { offset: 0xEEA79, size: 0x8, addend: 0x0, symName: '__ZN9hashbrown3raw21RawIterRange$LT$T$GT$3new17hd4e7cb1908ae521fE', symObjAddr: 0x754, symBinAddr: 0x28564, symSize: 0x98 }
  - { offset: 0xEED0D, size: 0x8, addend: 0x0, symName: '__ZN9hashbrown3raw21RawIterRange$LT$T$GT$9next_impl17h2a6dce36580d07beE', symObjAddr: 0x7EC, symBinAddr: 0x285FC, symSize: 0x1B4 }
  - { offset: 0xEF158, size: 0x8, addend: 0x0, symName: '__ZN9hashbrown3raw21RawIterRange$LT$T$GT$9next_impl17h92c47865fc889b31E', symObjAddr: 0x9A0, symBinAddr: 0x287B0, symSize: 0x1B4 }
  - { offset: 0xEF5A3, size: 0x8, addend: 0x0, symName: '__ZN9hashbrown3raw21RawIterRange$LT$T$GT$9next_impl17h9cead9f147bf3b87E', symObjAddr: 0xB54, symBinAddr: 0x28964, symSize: 0x1B4 }
  - { offset: 0xEFD88, size: 0x8, addend: 0x0, symName: '__ZN9hashbrown3raw21RawTable$LT$T$C$A$GT$14reserve_rehash17h6c70f2783d1f7cc9E', symObjAddr: 0xD08, symBinAddr: 0x9D1C0, symSize: 0x7B4 }
  - { offset: 0xF064C, size: 0x8, addend: 0x0, symName: '__ZN9hashbrown3raw21RawTable$LT$T$C$A$GT$14reserve_rehash17h92d1b89158064210E', symObjAddr: 0x14BC, symBinAddr: 0x9D974, symSize: 0x7AC }
  - { offset: 0xF0F10, size: 0x8, addend: 0x0, symName: '__ZN9hashbrown3raw21RawTable$LT$T$C$A$GT$14reserve_rehash17hf41c69d017c2d50dE', symObjAddr: 0x1C68, symBinAddr: 0x9E120, symSize: 0x7B4 }
  - { offset: 0xF1D6C, size: 0x8, addend: 0x0, symName: '__ZN9hashbrown3raw21RawTable$LT$T$C$A$GT$22insert_tagged_at_index17h1e2d6955ed010c5fE', symObjAddr: 0x26EC, symBinAddr: 0x28DE8, symSize: 0x124 }
  - { offset: 0xF22AA, size: 0x8, addend: 0x0, symName: '__ZN9hashbrown3raw21RawTable$LT$T$C$A$GT$22insert_tagged_at_index17h49f2ec71f4fc4d1bE', symObjAddr: 0x2810, symBinAddr: 0x28F0C, symSize: 0x11C }
  - { offset: 0xF27DA, size: 0x8, addend: 0x0, symName: '__ZN9hashbrown3raw21RawTable$LT$T$C$A$GT$22insert_tagged_at_index17hb1d0bf38201d724eE', symObjAddr: 0x292C, symBinAddr: 0x29028, symSize: 0x11C }
  - { offset: 0xF2C4A, size: 0x8, addend: 0x0, symName: '__ZN9hashbrown3raw21RawTable$LT$T$C$A$GT$25find_or_find_insert_index17h267b9a42e788b1eeE', symObjAddr: 0x2A48, symBinAddr: 0x29144, symSize: 0x134 }
  - { offset: 0xF2F04, size: 0x8, addend: 0x0, symName: '__ZN9hashbrown3raw21RawTable$LT$T$C$A$GT$25find_or_find_insert_index17hcaad1e270214b7dfE', symObjAddr: 0x2B7C, symBinAddr: 0x29278, symSize: 0x134 }
  - { offset: 0xF31BE, size: 0x8, addend: 0x0, symName: '__ZN9hashbrown3raw21RawTable$LT$T$C$A$GT$25find_or_find_insert_index17hdd29eb16bebed242E', symObjAddr: 0x2CB0, symBinAddr: 0x293AC, symSize: 0x134 }
  - { offset: 0xF3A62, size: 0x8, addend: 0x0, symName: '__ZN9hashbrown3raw21RawTable$LT$T$C$A$GT$4find17h72ec9aebd6a16265E', symObjAddr: 0x3030, symBinAddr: 0x2972C, symSize: 0x318 }
  - { offset: 0xF3FEA, size: 0x8, addend: 0x0, symName: '__ZN9hashbrown3raw21RawTable$LT$T$C$A$GT$4find17hd0fd87631c07aee7E', symObjAddr: 0x3348, symBinAddr: 0x29A44, symSize: 0x318 }
  - { offset: 0xF48F7, size: 0x8, addend: 0x0, symName: '__ZN9hashbrown3raw21RawTable$LT$T$C$A$GT$5clear17h90ff294f1d96c9e5E', symObjAddr: 0x37E8, symBinAddr: 0x29EE4, symSize: 0x7C }
  - { offset: 0xF4AB9, size: 0x8, addend: 0x0, symName: '__ZN9hashbrown3raw21RawTable$LT$T$C$A$GT$7reserve17h09b03efe542d0ca2E', symObjAddr: 0x393C, symBinAddr: 0x2A038, symSize: 0xB0 }
  - { offset: 0xF4BBD, size: 0x8, addend: 0x0, symName: '__ZN9hashbrown3raw21RawTable$LT$T$C$A$GT$7reserve17h233bf20584cacbd2E', symObjAddr: 0x39EC, symBinAddr: 0x2A0E8, symSize: 0xB0 }
  - { offset: 0xF4CC1, size: 0x8, addend: 0x0, symName: '__ZN9hashbrown3raw21RawTable$LT$T$C$A$GT$7reserve17h90a492eeeff4f792E', symObjAddr: 0x3A9C, symBinAddr: 0x2A198, symSize: 0xB0 }
  - { offset: 0xF4DDA, size: 0x8, addend: 0x0, symName: __ZN4pyo310exceptions14PyRuntimeError7new_err17h6a5fedf2e2b78042E, symObjAddr: 0x0, symBinAddr: 0x2A248, symSize: 0x28 }
  - { offset: 0xF638E, size: 0x8, addend: 0x0, symName: __ZN4pyo311type_object10PyTypeInfo11type_object17h8467609dc870fc3aE, symObjAddr: 0x50, symBinAddr: 0x2A298, symSize: 0x20 }
  - { offset: 0xF6915, size: 0x8, addend: 0x0, symName: __ZN4pyo310exceptions14PyRuntimeError7new_err17h6a5fedf2e2b78042E, symObjAddr: 0x0, symBinAddr: 0x2A248, symSize: 0x28 }
  - { offset: 0xF6940, size: 0x8, addend: 0x0, symName: __ZN4pyo310exceptions16PyAttributeError7new_err17hfb0245c232b7b7c3E, symObjAddr: 0x28, symBinAddr: 0x2A270, symSize: 0x28 }
  - { offset: 0xF69CE, size: 0x8, addend: 0x0, symName: '__ZN4core3ptr9const_ptr33_$LT$impl$u20$$BP$const$u20$T$GT$20offset_from_unsigned18precondition_check17h919482ff59d224e0E', symObjAddr: 0x0, symBinAddr: 0x2A2B8, symSize: 0x60 }
  - { offset: 0xF69F4, size: 0x8, addend: 0x0, symName: '__ZN4core3ptr9const_ptr33_$LT$impl$u20$$BP$const$u20$T$GT$20offset_from_unsigned18precondition_check17h919482ff59d224e0E', symObjAddr: 0x0, symBinAddr: 0x2A2B8, symSize: 0x60 }
  - { offset: 0xF6ADD, size: 0x8, addend: 0x0, symName: '__ZN4core3ptr9const_ptr33_$LT$impl$u20$$BP$const$u20$T$GT$6offset18precondition_check17h3da536d83f5e007cE', symObjAddr: 0x60, symBinAddr: 0x2A318, symSize: 0xC4 }
  - { offset: 0xF6EC4, size: 0x8, addend: 0x0, symName: '__ZN6platon6platon4init28_$u7b$$u7b$closure$u7d$$u7d$17h2486eb5798df5f6cE', symObjAddr: 0x0, symBinAddr: 0x2A3DC, symSize: 0x28 }
  - { offset: 0xF8290, size: 0x8, addend: 0x0, symName: '__ZN6platon6platon4init28_$u7b$$u7b$closure$u7d$$u7d$17h2486eb5798df5f6cE', symObjAddr: 0x0, symBinAddr: 0x2A3DC, symSize: 0x28 }
  - { offset: 0xF8AAF, size: 0x8, addend: 0x0, symName: __ZN4pyo35impl_5panic9PanicTrap3new17h4cc1100b582f66d3E, symObjAddr: 0x0, symBinAddr: 0x2A404, symSize: 0x18 }
  - { offset: 0xF8B3E, size: 0x8, addend: 0x0, symName: __ZN4pyo35impl_5panic9PanicTrap3new17h4cc1100b582f66d3E, symObjAddr: 0x0, symBinAddr: 0x2A404, symSize: 0x18 }
  - { offset: 0xF8B60, size: 0x8, addend: 0x0, symName: __ZN4pyo35impl_5panic9PanicTrap6disarm17hdf5cd6406f8b7df9E, symObjAddr: 0x18, symBinAddr: 0x2A41C, symSize: 0x28 }
  - { offset: 0xF8BA0, size: 0x8, addend: 0x0, symName: __ZN4pyo33gil7GILPool3new17h8cd719ddbfc7fa18E, symObjAddr: 0x0, symBinAddr: 0x2A444, symSize: 0x3C }
  - { offset: 0xF8DBD, size: 0x8, addend: 0x0, symName: __ZN4pyo33gil7GILPool3new17h8cd719ddbfc7fa18E, symObjAddr: 0x0, symBinAddr: 0x2A444, symSize: 0x3C }
  - { offset: 0xF8DF3, size: 0x8, addend: 0x0, symName: __ZN4pyo33gil7GILPool6python17h115a8c121d0a1b28E, symObjAddr: 0x3C, symBinAddr: 0x2A480, symSize: 0x20 }
  - { offset: 0xF8E34, size: 0x8, addend: 0x0, symName: '__ZN4pyo35impl_7pyclass16lazy_type_object23LazyTypeObject$LT$T$GT$11get_or_init17h7514d7e8d6286d4fE', symObjAddr: 0x0, symBinAddr: 0x2A4A0, symSize: 0x40 }
  - { offset: 0xFACC4, size: 0x8, addend: 0x0, symName: '__ZN4pyo35impl_7pyclass16lazy_type_object23LazyTypeObject$LT$T$GT$11get_or_init28_$u7b$$u7b$closure$u7d$$u7d$17h677814da9a288a31E', symObjAddr: 0x100, symBinAddr: 0x2A5A0, symSize: 0xA8 }
  - { offset: 0xFAD4D, size: 0x8, addend: 0x0, symName: '__ZN4pyo35impl_7pyclass16lazy_type_object23LazyTypeObject$LT$T$GT$11get_or_init28_$u7b$$u7b$closure$u7d$$u7d$17h82819b5d90c0d0a6E', symObjAddr: 0x1A8, symBinAddr: 0x2A648, symSize: 0xA8 }
  - { offset: 0xFADD6, size: 0x8, addend: 0x0, symName: '__ZN4pyo35impl_7pyclass16lazy_type_object23LazyTypeObject$LT$T$GT$11get_or_init28_$u7b$$u7b$closure$u7d$$u7d$17h93cf7d4dba42a784E', symObjAddr: 0x250, symBinAddr: 0x2A6F0, symSize: 0xA8 }
  - { offset: 0xFAE5F, size: 0x8, addend: 0x0, symName: '__ZN4pyo35impl_7pyclass16lazy_type_object23LazyTypeObject$LT$T$GT$11get_or_init28_$u7b$$u7b$closure$u7d$$u7d$17hc1a14f57190d9ab1E', symObjAddr: 0x2F8, symBinAddr: 0x2A798, symSize: 0xA8 }
  - { offset: 0xFC4A6, size: 0x8, addend: 0x0, symName: '__ZN4pyo35impl_7pyclass16lazy_type_object23LazyTypeObject$LT$T$GT$11get_or_init17h7514d7e8d6286d4fE', symObjAddr: 0x0, symBinAddr: 0x2A4A0, symSize: 0x40 }
  - { offset: 0xFC744, size: 0x8, addend: 0x0, symName: '__ZN4pyo35impl_7pyclass16lazy_type_object23LazyTypeObject$LT$T$GT$11get_or_init17h9d5a20e50ac16800E', symObjAddr: 0x40, symBinAddr: 0x2A4E0, symSize: 0x40 }
  - { offset: 0xFC795, size: 0x8, addend: 0x0, symName: '__ZN4pyo35impl_7pyclass16lazy_type_object23LazyTypeObject$LT$T$GT$11get_or_init17ha798cff8fcebdadeE', symObjAddr: 0x80, symBinAddr: 0x2A520, symSize: 0x40 }
  - { offset: 0xFC7E6, size: 0x8, addend: 0x0, symName: '__ZN4pyo35impl_7pyclass16lazy_type_object23LazyTypeObject$LT$T$GT$11get_or_init17hcb8b5688a393335dE', symObjAddr: 0xC0, symBinAddr: 0x2A560, symSize: 0x40 }
  - { offset: 0xFC82A, size: 0x8, addend: 0x0, symName: '__ZN4pyo35impl_7pyclass16lazy_type_object23LazyTypeObject$LT$T$GT$15get_or_try_init17h65107fecb2fd2c49E', symObjAddr: 0x3A0, symBinAddr: 0x2A840, symSize: 0x58 }
  - { offset: 0xFC86E, size: 0x8, addend: 0x0, symName: '__ZN4pyo35impl_7pyclass16lazy_type_object23LazyTypeObject$LT$T$GT$15get_or_try_init17h828bc1a76d2c4dbcE', symObjAddr: 0x3F8, symBinAddr: 0x2A898, symSize: 0x58 }
  - { offset: 0xFC8B2, size: 0x8, addend: 0x0, symName: '__ZN4pyo35impl_7pyclass16lazy_type_object23LazyTypeObject$LT$T$GT$15get_or_try_init17h9387276f96b44f24E', symObjAddr: 0x450, symBinAddr: 0x2A8F0, symSize: 0x58 }
  - { offset: 0xFC8F6, size: 0x8, addend: 0x0, symName: '__ZN4pyo35impl_7pyclass16lazy_type_object23LazyTypeObject$LT$T$GT$15get_or_try_init17hfe59ae7bba9bf137E', symObjAddr: 0x4A8, symBinAddr: 0x2A948, symSize: 0x58 }
  - { offset: 0xFCA29, size: 0x8, addend: 0x0, symName: __ZN4core3ptr5write17h23c11e60e45f403bE, symObjAddr: 0x0, symBinAddr: 0x2A9A0, symSize: 0x2C }
  - { offset: 0xFD1B8, size: 0x8, addend: 0x0, symName: __ZN4core3ptr5write17h23c11e60e45f403bE, symObjAddr: 0x0, symBinAddr: 0x2A9A0, symSize: 0x2C }
  - { offset: 0xFD1FB, size: 0x8, addend: 0x0, symName: __ZN4core3ptr5write17h62d9b2829af9259fE, symObjAddr: 0x2C, symBinAddr: 0x2A9CC, symSize: 0x2C }
  - { offset: 0xFD23E, size: 0x8, addend: 0x0, symName: __ZN4core3ptr5write17hca5a2764b866cebeE, symObjAddr: 0x58, symBinAddr: 0x2A9F8, symSize: 0x2C }
  - { offset: 0xFD281, size: 0x8, addend: 0x0, symName: __ZN4core3ptr5write17hd9edd25a353ffa2fE, symObjAddr: 0x84, symBinAddr: 0x2AA24, symSize: 0x24 }
  - { offset: 0xFF5B5, size: 0x8, addend: 0x0, symName: __ZN4core3ptr9alignment9Alignment13new_unchecked18precondition_check17h37e6c1df302bdd75E, symObjAddr: 0x0, symBinAddr: 0x2AA48, symSize: 0x70 }
  - { offset: 0xFF621, size: 0x8, addend: 0x0, symName: __ZN4core3ptr9alignment9Alignment13new_unchecked18precondition_check17h37e6c1df302bdd75E, symObjAddr: 0x0, symBinAddr: 0x2AA48, symSize: 0x70 }
  - { offset: 0xFF707, size: 0x8, addend: 0x0, symName: __ZN4pyo36marker6Python19assume_gil_acquired17h44083d0ca9f6f3faE, symObjAddr: 0x0, symBinAddr: 0x2AAB8, symSize: 0x4 }
  - { offset: 0x1009F8, size: 0x8, addend: 0x0, symName: __ZN4pyo36marker6Python19assume_gil_acquired17h44083d0ca9f6f3faE, symObjAddr: 0x0, symBinAddr: 0x2AAB8, symSize: 0x4 }
  - { offset: 0x100E47, size: 0x8, addend: 0x0, symName: __ZN4pyo36marker6Python4None17h5f508650e8064ba5E, symObjAddr: 0x4, symBinAddr: 0x2AABC, symSize: 0x28 }
  - { offset: 0x100E94, size: 0x8, addend: 0x0, symName: '__ZN102_$LT$core..iter..adapters..zip..Zip$LT$A$C$B$GT$$u20$as$u20$core..iter..traits..iterator..Iterator$GT$4next17he3a5c09bdfe11cfbE', symObjAddr: 0x0, symBinAddr: 0x2AAE4, symSize: 0x24 }
  - { offset: 0x101632, size: 0x8, addend: 0x0, symName: '__ZN102_$LT$core..iter..adapters..zip..Zip$LT$A$C$B$GT$$u20$as$u20$core..iter..traits..iterator..Iterator$GT$4next17he3a5c09bdfe11cfbE', symObjAddr: 0x0, symBinAddr: 0x2AAE4, symSize: 0x24 }
  - { offset: 0x101676, size: 0x8, addend: 0x0, symName: '__ZN111_$LT$core..iter..adapters..zip..Zip$LT$A$C$B$GT$$u20$as$u20$core..iter..adapters..zip..ZipImpl$LT$A$C$B$GT$$GT$3new17hcea535acd8c38946E', symObjAddr: 0x24, symBinAddr: 0x2AB08, symSize: 0x3C }
  - { offset: 0x1016C2, size: 0x8, addend: 0x0, symName: '__ZN111_$LT$core..iter..adapters..zip..Zip$LT$A$C$B$GT$$u20$as$u20$core..iter..adapters..zip..ZipImpl$LT$A$C$B$GT$$GT$4next17he213fc753b2caa3dE', symObjAddr: 0x60, symBinAddr: 0x2AB44, symSize: 0xE0 }
  - { offset: 0x1018EF, size: 0x8, addend: 0x0, symName: '__ZN63_$LT$I$u20$as$u20$core..iter..traits..collect..IntoIterator$GT$9into_iter17h7a89591247e9f679E', symObjAddr: 0x140, symBinAddr: 0x2AC24, symSize: 0x30 }
  - { offset: 0x101927, size: 0x8, addend: 0x0, symName: '__ZN63_$LT$I$u20$as$u20$core..iter..traits..collect..IntoIterator$GT$9into_iter17haaf184f039d1d97bE', symObjAddr: 0x170, symBinAddr: 0x2AC54, symSize: 0x30 }
  - { offset: 0x102B79, size: 0x8, addend: 0x0, symName: '__ZN4pyo35types4none120_$LT$impl$u20$pyo3..conversion..IntoPy$LT$pyo3..instance..Py$LT$pyo3..types..any..PyAny$GT$$GT$$u20$for$u20$$LP$$RP$$GT$7into_py17hf70843afd9f4e7a0E', symObjAddr: 0x0, symBinAddr: 0x2AC84, symSize: 0x28 }
  - { offset: 0x103D3B, size: 0x8, addend: 0x0, symName: '__ZN4pyo35types4none120_$LT$impl$u20$pyo3..conversion..IntoPy$LT$pyo3..instance..Py$LT$pyo3..types..any..PyAny$GT$$GT$$u20$for$u20$$LP$$RP$$GT$7into_py17hf70843afd9f4e7a0E', symObjAddr: 0x0, symBinAddr: 0x2AC84, symSize: 0x28 }
  - { offset: 0x10430A, size: 0x8, addend: 0x0, symName: __ZN4pyo35types4none6PyNone3get17h652cee5383db3d33E, symObjAddr: 0x28, symBinAddr: 0x2ACAC, symSize: 0x20 }
  - { offset: 0x104F41, size: 0x8, addend: 0x0, symName: '__ZN44_$LT$$RF$T$u20$as$u20$core..fmt..Display$GT$3fmt17h6382fd38d9269cb3E', symObjAddr: 0x3C, symBinAddr: 0x2ACE0, symSize: 0x30 }
  - { offset: 0x10539F, size: 0x8, addend: 0x0, symName: '__ZN50_$LT$T$u20$as$u20$core..convert..Into$LT$U$GT$$GT$4into17h7273a6d4580762f7E', symObjAddr: 0x7004, symBinAddr: 0x2B0F8, symSize: 0x24 }
  - { offset: 0x105642, size: 0x8, addend: 0x0, symName: '__ZN70_$LT$pyo3..exceptions..PyBaseException$u20$as$u20$core..fmt..Debug$GT$3fmt17hae94dbdf6cb0c536E', symObjAddr: 0xA8BC, symBinAddr: 0x2B11C, symSize: 0xFC }
  - { offset: 0x1056B4, size: 0x8, addend: 0x0, symName: '__ZN72_$LT$pyo3..exceptions..PyBaseException$u20$as$u20$core..fmt..Display$GT$3fmt17h2a1e0ef0bef341a8E', symObjAddr: 0xD8D8, symBinAddr: 0x2B218, symSize: 0x278 }
  - { offset: 0x10578E, size: 0x8, addend: 0x0, symName: '__ZN77_$LT$pyo3..exceptions..PyBaseException$u20$as$u20$core..ops..deref..Deref$GT$5deref17h8f4a7c41adba0610E', symObjAddr: 0x14AB8, symBinAddr: 0x2B490, symSize: 0x14 }
  - { offset: 0x1057C5, size: 0x8, addend: 0x0, symName: '__ZN79_$LT$pyo3..exceptions..PyException$u20$as$u20$pyo3..type_object..PyTypeInfo$GT$15type_object_raw28_$u7b$$u7b$closure$u7d$$u7d$17h868bdd48a930eacaE', symObjAddr: 0x173E8, symBinAddr: 0x2B4A4, symSize: 0x4C }
  - { offset: 0x105818, size: 0x8, addend: 0x0, symName: '__ZN79_$LT$pyo3..exceptions..PyTypeError$u20$as$u20$pyo3..type_object..PyTypeInfo$GT$15type_object_raw17heafc213104a4215cE', symObjAddr: 0x174E0, symBinAddr: 0x2B4F0, symSize: 0x24 }
  - { offset: 0x105854, size: 0x8, addend: 0x0, symName: '__ZN79_$LT$pyo3..exceptions..PyTypeError$u20$as$u20$pyo3..type_object..PyTypeInfo$GT$15type_object_raw28_$u7b$$u7b$closure$u7d$$u7d$17h13eaf53c785ec233E', symObjAddr: 0x17504, symBinAddr: 0x2B514, symSize: 0x4C }
  - { offset: 0x1058A7, size: 0x8, addend: 0x0, symName: '__ZN80_$LT$pyo3..exceptions..PyValueError$u20$as$u20$pyo3..type_object..PyTypeInfo$GT$15type_object_raw17he872526ef42f8a43E', symObjAddr: 0x17964, symBinAddr: 0x2B560, symSize: 0x24 }
  - { offset: 0x1058E3, size: 0x8, addend: 0x0, symName: '__ZN80_$LT$pyo3..exceptions..PyValueError$u20$as$u20$pyo3..type_object..PyTypeInfo$GT$15type_object_raw28_$u7b$$u7b$closure$u7d$$u7d$17h53ae1ccf38019034E', symObjAddr: 0x17988, symBinAddr: 0x2B584, symSize: 0x4C }
  - { offset: 0x105936, size: 0x8, addend: 0x0, symName: '__ZN81_$LT$pyo3..exceptions..PyImportError$u20$as$u20$pyo3..type_object..PyTypeInfo$GT$15type_object_raw17h171e775ee45796a9E', symObjAddr: 0x18084, symBinAddr: 0x2B5D0, symSize: 0x24 }
  - { offset: 0x105972, size: 0x8, addend: 0x0, symName: '__ZN81_$LT$pyo3..exceptions..PyImportError$u20$as$u20$pyo3..type_object..PyTypeInfo$GT$15type_object_raw28_$u7b$$u7b$closure$u7d$$u7d$17h25a516e8cebe9521E', symObjAddr: 0x180A8, symBinAddr: 0x2B5F4, symSize: 0x4C }
  - { offset: 0x1059C5, size: 0x8, addend: 0x0, symName: '__ZN82_$LT$pyo3..exceptions..PyRuntimeError$u20$as$u20$pyo3..type_object..PyTypeInfo$GT$15type_object_raw17he955fc2aacdca43aE', symObjAddr: 0x185F8, symBinAddr: 0x2B640, symSize: 0x24 }
  - { offset: 0x105A01, size: 0x8, addend: 0x0, symName: '__ZN82_$LT$pyo3..exceptions..PyRuntimeError$u20$as$u20$pyo3..type_object..PyTypeInfo$GT$15type_object_raw28_$u7b$$u7b$closure$u7d$$u7d$17hb7d695dca7517b68E', symObjAddr: 0x1861C, symBinAddr: 0x2B664, symSize: 0x4C }
  - { offset: 0x105A54, size: 0x8, addend: 0x0, symName: '__ZN83_$LT$pyo3..exceptions..PyBaseException$u20$as$u20$pyo3..type_object..PyTypeInfo$GT$10is_type_of17h054c56e57fef6922E', symObjAddr: 0x187FC, symBinAddr: 0x2B6B0, symSize: 0x30 }
  - { offset: 0x105A80, size: 0x8, addend: 0x0, symName: '__ZN83_$LT$pyo3..exceptions..PyBaseException$u20$as$u20$pyo3..type_object..PyTypeInfo$GT$15type_object_raw17hf3b829779d6a808cE', symObjAddr: 0x1882C, symBinAddr: 0x2B6E0, symSize: 0x24 }
  - { offset: 0x105ABC, size: 0x8, addend: 0x0, symName: '__ZN83_$LT$pyo3..exceptions..PyBaseException$u20$as$u20$pyo3..type_object..PyTypeInfo$GT$15type_object_raw28_$u7b$$u7b$closure$u7d$$u7d$17hc899bcd899e04103E', symObjAddr: 0x18850, symBinAddr: 0x2B704, symSize: 0x4C }
  - { offset: 0x105B0F, size: 0x8, addend: 0x0, symName: '__ZN83_$LT$pyo3..exceptions..PyOverflowError$u20$as$u20$pyo3..type_object..PyTypeInfo$GT$15type_object_raw17h9a2a1b564a90b194E', symObjAddr: 0x18A14, symBinAddr: 0x2B750, symSize: 0x24 }
  - { offset: 0x105B4B, size: 0x8, addend: 0x0, symName: '__ZN83_$LT$pyo3..exceptions..PyOverflowError$u20$as$u20$pyo3..type_object..PyTypeInfo$GT$15type_object_raw28_$u7b$$u7b$closure$u7d$$u7d$17h5176a2ff0ad78951E', symObjAddr: 0x18A38, symBinAddr: 0x2B774, symSize: 0x4C }
  - { offset: 0x105B9E, size: 0x8, addend: 0x0, symName: '__ZN84_$LT$pyo3..exceptions..PyAttributeError$u20$as$u20$pyo3..type_object..PyTypeInfo$GT$15type_object_raw17h5e0452707e7adddeE', symObjAddr: 0x18C88, symBinAddr: 0x2B7C0, symSize: 0x24 }
  - { offset: 0x105BDA, size: 0x8, addend: 0x0, symName: '__ZN84_$LT$pyo3..exceptions..PyAttributeError$u20$as$u20$pyo3..type_object..PyTypeInfo$GT$15type_object_raw28_$u7b$$u7b$closure$u7d$$u7d$17hc35408e784907f3dE', symObjAddr: 0x18CAC, symBinAddr: 0x2B7E4, symSize: 0x4C }
  - { offset: 0x105CBA, size: 0x8, addend: 0x0, symName: '__ZN49_$LT$T$u20$as$u20$pyo3..conversion..PyTryFrom$GT$18try_from_unchecked17h0b3293bd4aa1cd64E', symObjAddr: 0x12C, symBinAddr: 0x2AD10, symSize: 0x30 }
  - { offset: 0x105CFA, size: 0x8, addend: 0x0, symName: '__ZN49_$LT$T$u20$as$u20$pyo3..conversion..PyTryFrom$GT$8try_from17h4695666212afc319E', symObjAddr: 0x164C, symBinAddr: 0x2AD40, symSize: 0x98 }
  - { offset: 0x105F33, size: 0x8, addend: 0x0, symName: __ZN4pyo38instance12PyNativeType18unchecked_downcast17hd4717e9970d7ca00E, symObjAddr: 0x6B14, symBinAddr: 0x2B068, symSize: 0x70 }
  - { offset: 0x105F68, size: 0x8, addend: 0x0, symName: __ZN4pyo38instance12PyNativeType2py17hb06039e8772395cdE, symObjAddr: 0x6FE4, symBinAddr: 0x2B0D8, symSize: 0x20 }
  - { offset: 0x106029, size: 0x8, addend: 0x0, symName: __ZN4pyo311type_object10PyTypeInfo11type_object17h73509bfb2d61e6d7E, symObjAddr: 0x50C4, symBinAddr: 0x2AF88, symSize: 0x20 }
  - { offset: 0x106069, size: 0x8, addend: 0x0, symName: __ZN4pyo311type_object10PyTypeInfo11type_object17h9dba5b62b8067cb6E, symObjAddr: 0x5124, symBinAddr: 0x2AFA8, symSize: 0x20 }
  - { offset: 0x1060A9, size: 0x8, addend: 0x0, symName: __ZN4pyo311type_object10PyTypeInfo11type_object17habb7932ca1c18f0fE, symObjAddr: 0x5144, symBinAddr: 0x2AFC8, symSize: 0x20 }
  - { offset: 0x1060E9, size: 0x8, addend: 0x0, symName: __ZN4pyo311type_object10PyTypeInfo11type_object17hc6f149d879a9d5daE, symObjAddr: 0x5204, symBinAddr: 0x2AFE8, symSize: 0x20 }
  - { offset: 0x106129, size: 0x8, addend: 0x0, symName: __ZN4pyo311type_object10PyTypeInfo11type_object17hc957f99c8ed786dfE, symObjAddr: 0x5224, symBinAddr: 0x2B008, symSize: 0x20 }
  - { offset: 0x106169, size: 0x8, addend: 0x0, symName: __ZN4pyo311type_object10PyTypeInfo11type_object17hd5154bbd65fc65beE, symObjAddr: 0x5244, symBinAddr: 0x2B028, symSize: 0x20 }
  - { offset: 0x1061A9, size: 0x8, addend: 0x0, symName: __ZN4pyo311type_object10PyTypeInfo11type_object17he5d29ce40c51edffE, symObjAddr: 0x5284, symBinAddr: 0x2B048, symSize: 0x20 }
  - { offset: 0x106E24, size: 0x8, addend: 0x0, symName: __ZN4pyo310exceptions11PyTypeError7new_err17h70e26e86e3895600E, symObjAddr: 0x34AC, symBinAddr: 0x2ADD8, symSize: 0x28 }
  - { offset: 0x106FDA, size: 0x8, addend: 0x0, symName: __ZN4pyo310exceptions11PyTypeError7new_err17hbd28f6ed89545aa2E, symObjAddr: 0x34D4, symBinAddr: 0x2AE00, symSize: 0x34 }
  - { offset: 0x107006, size: 0x8, addend: 0x0, symName: __ZN4pyo310exceptions11PyTypeError7new_err17hf874ede08eece802E, symObjAddr: 0x3508, symBinAddr: 0x2AE34, symSize: 0x34 }
  - { offset: 0x107032, size: 0x8, addend: 0x0, symName: __ZN4pyo310exceptions12PyValueError7new_err17h04ca2a85188fc2b4E, symObjAddr: 0x353C, symBinAddr: 0x2AE68, symSize: 0x28 }
  - { offset: 0x10705D, size: 0x8, addend: 0x0, symName: __ZN4pyo310exceptions12PyValueError7new_err17h8949713a13e204bbE, symObjAddr: 0x35DC, symBinAddr: 0x2AE90, symSize: 0x34 }
  - { offset: 0x107089, size: 0x8, addend: 0x0, symName: __ZN4pyo310exceptions12PyValueError7new_err17h957099e8ea6104eeE, symObjAddr: 0x3610, symBinAddr: 0x2AEC4, symSize: 0x34 }
  - { offset: 0x1070B5, size: 0x8, addend: 0x0, symName: __ZN4pyo310exceptions13PyImportError7new_err17h370124d4f1fd6014E, symObjAddr: 0x3680, symBinAddr: 0x2AEF8, symSize: 0x28 }
  - { offset: 0x1070E0, size: 0x8, addend: 0x0, symName: __ZN4pyo310exceptions14PyRuntimeError7new_err17h9e0f410e7f819281E, symObjAddr: 0x36A8, symBinAddr: 0x2AF20, symSize: 0x34 }
  - { offset: 0x10710C, size: 0x8, addend: 0x0, symName: __ZN4pyo310exceptions15PyOverflowError7new_err17hf8bc4afa2b9a054cE, symObjAddr: 0x3700, symBinAddr: 0x2AF54, symSize: 0x34 }
  - { offset: 0x1072F1, size: 0x8, addend: 0x0, symName: '__ZN136_$LT$core..result..Result$LT$V$C$E$GT$$u20$as$u20$core..iter..traits..collect..FromIterator$LT$core..result..Result$LT$A$C$E$GT$$GT$$GT$9from_iter17hd91f010fbaef62d4E', symObjAddr: 0x0, symBinAddr: 0x2B830, symSize: 0x34 }
  - { offset: 0x108B27, size: 0x8, addend: 0x0, symName: '__ZN136_$LT$core..result..Result$LT$V$C$E$GT$$u20$as$u20$core..iter..traits..collect..FromIterator$LT$core..result..Result$LT$A$C$E$GT$$GT$$GT$9from_iter17hd91f010fbaef62d4E', symObjAddr: 0x0, symBinAddr: 0x2B830, symSize: 0x34 }
  - { offset: 0x108B7F, size: 0x8, addend: 0x0, symName: '__ZN136_$LT$core..result..Result$LT$V$C$E$GT$$u20$as$u20$core..iter..traits..collect..FromIterator$LT$core..result..Result$LT$A$C$E$GT$$GT$$GT$9from_iter28_$u7b$$u7b$closure$u7d$$u7d$17haef2afb4ec132c07E', symObjAddr: 0x34, symBinAddr: 0x2B864, symSize: 0x28 }
  - { offset: 0x108E2A, size: 0x8, addend: 0x0, symName: '__ZN153_$LT$core..result..Result$LT$T$C$F$GT$$u20$as$u20$core..ops..try_trait..FromResidual$LT$core..result..Result$LT$core..convert..Infallible$C$E$GT$$GT$$GT$13from_residual17h0183b0a99867d37fE', symObjAddr: 0x5C, symBinAddr: 0x2B88C, symSize: 0x48 }
  - { offset: 0x108EAF, size: 0x8, addend: 0x0, symName: '__ZN153_$LT$core..result..Result$LT$T$C$F$GT$$u20$as$u20$core..ops..try_trait..FromResidual$LT$core..result..Result$LT$core..convert..Infallible$C$E$GT$$GT$$GT$13from_residual17h071d7c2e91899a3cE', symObjAddr: 0xEC, symBinAddr: 0x2B8D4, symSize: 0x48 }
  - { offset: 0x108F34, size: 0x8, addend: 0x0, symName: '__ZN153_$LT$core..result..Result$LT$T$C$F$GT$$u20$as$u20$core..ops..try_trait..FromResidual$LT$core..result..Result$LT$core..convert..Infallible$C$E$GT$$GT$$GT$13from_residual17h0e27b20d384418a2E', symObjAddr: 0x1C8, symBinAddr: 0x2B91C, symSize: 0x48 }
  - { offset: 0x108FB9, size: 0x8, addend: 0x0, symName: '__ZN153_$LT$core..result..Result$LT$T$C$F$GT$$u20$as$u20$core..ops..try_trait..FromResidual$LT$core..result..Result$LT$core..convert..Infallible$C$E$GT$$GT$$GT$13from_residual17h112f00396002a137E', symObjAddr: 0x2A0, symBinAddr: 0x2B964, symSize: 0x14 }
  - { offset: 0x109002, size: 0x8, addend: 0x0, symName: '__ZN153_$LT$core..result..Result$LT$T$C$F$GT$$u20$as$u20$core..ops..try_trait..FromResidual$LT$core..result..Result$LT$core..convert..Infallible$C$E$GT$$GT$$GT$13from_residual17h120355159b2b43e9E', symObjAddr: 0x2FC, symBinAddr: 0x2B978, symSize: 0x48 }
  - { offset: 0x109087, size: 0x8, addend: 0x0, symName: '__ZN153_$LT$core..result..Result$LT$T$C$F$GT$$u20$as$u20$core..ops..try_trait..FromResidual$LT$core..result..Result$LT$core..convert..Infallible$C$E$GT$$GT$$GT$13from_residual17h3cb0e51356da87b5E', symObjAddr: 0x5FC, symBinAddr: 0x2B9C0, symSize: 0x48 }
  - { offset: 0x10910C, size: 0x8, addend: 0x0, symName: '__ZN153_$LT$core..result..Result$LT$T$C$F$GT$$u20$as$u20$core..ops..try_trait..FromResidual$LT$core..result..Result$LT$core..convert..Infallible$C$E$GT$$GT$$GT$13from_residual17h549f55d9f1e6fce0E', symObjAddr: 0x804, symBinAddr: 0x2BA08, symSize: 0x58 }
  - { offset: 0x109174, size: 0x8, addend: 0x0, symName: '__ZN153_$LT$core..result..Result$LT$T$C$F$GT$$u20$as$u20$core..ops..try_trait..FromResidual$LT$core..result..Result$LT$core..convert..Infallible$C$E$GT$$GT$$GT$13from_residual17h59a9227b1f646b75E', symObjAddr: 0x8A4, symBinAddr: 0x2BA60, symSize: 0x48 }
  - { offset: 0x1091F9, size: 0x8, addend: 0x0, symName: '__ZN153_$LT$core..result..Result$LT$T$C$F$GT$$u20$as$u20$core..ops..try_trait..FromResidual$LT$core..result..Result$LT$core..convert..Infallible$C$E$GT$$GT$$GT$13from_residual17h5e2b178d92098abfE', symObjAddr: 0x8EC, symBinAddr: 0x2BAA8, symSize: 0x48 }
  - { offset: 0x10927E, size: 0x8, addend: 0x0, symName: '__ZN153_$LT$core..result..Result$LT$T$C$F$GT$$u20$as$u20$core..ops..try_trait..FromResidual$LT$core..result..Result$LT$core..convert..Infallible$C$E$GT$$GT$$GT$13from_residual17h60310097f6dc45a4E', symObjAddr: 0x934, symBinAddr: 0x2BAF0, symSize: 0x48 }
  - { offset: 0x109303, size: 0x8, addend: 0x0, symName: '__ZN153_$LT$core..result..Result$LT$T$C$F$GT$$u20$as$u20$core..ops..try_trait..FromResidual$LT$core..result..Result$LT$core..convert..Infallible$C$E$GT$$GT$$GT$13from_residual17h6d2c035c0d35c600E', symObjAddr: 0xA14, symBinAddr: 0x2BB38, symSize: 0x48 }
  - { offset: 0x109388, size: 0x8, addend: 0x0, symName: '__ZN153_$LT$core..result..Result$LT$T$C$F$GT$$u20$as$u20$core..ops..try_trait..FromResidual$LT$core..result..Result$LT$core..convert..Infallible$C$E$GT$$GT$$GT$13from_residual17h6de8413a9bc8adbbE', symObjAddr: 0xA5C, symBinAddr: 0x2BB80, symSize: 0x48 }
  - { offset: 0x10940D, size: 0x8, addend: 0x0, symName: '__ZN153_$LT$core..result..Result$LT$T$C$F$GT$$u20$as$u20$core..ops..try_trait..FromResidual$LT$core..result..Result$LT$core..convert..Infallible$C$E$GT$$GT$$GT$13from_residual17h6e2bf0b6e3a24f51E', symObjAddr: 0xAA4, symBinAddr: 0x2BBC8, symSize: 0x48 }
  - { offset: 0x109492, size: 0x8, addend: 0x0, symName: '__ZN153_$LT$core..result..Result$LT$T$C$F$GT$$u20$as$u20$core..ops..try_trait..FromResidual$LT$core..result..Result$LT$core..convert..Infallible$C$E$GT$$GT$$GT$13from_residual17h795f6473466855b1E', symObjAddr: 0xB34, symBinAddr: 0x2BC10, symSize: 0x48 }
  - { offset: 0x109517, size: 0x8, addend: 0x0, symName: '__ZN153_$LT$core..result..Result$LT$T$C$F$GT$$u20$as$u20$core..ops..try_trait..FromResidual$LT$core..result..Result$LT$core..convert..Infallible$C$E$GT$$GT$$GT$13from_residual17h8dab83b1b81b4141E', symObjAddr: 0xC9C, symBinAddr: 0x2BC58, symSize: 0x48 }
  - { offset: 0x10959C, size: 0x8, addend: 0x0, symName: '__ZN153_$LT$core..result..Result$LT$T$C$F$GT$$u20$as$u20$core..ops..try_trait..FromResidual$LT$core..result..Result$LT$core..convert..Infallible$C$E$GT$$GT$$GT$13from_residual17h927f58cd2eaeb6e1E', symObjAddr: 0xDCC, symBinAddr: 0x2BCA0, symSize: 0x48 }
  - { offset: 0x109621, size: 0x8, addend: 0x0, symName: '__ZN153_$LT$core..result..Result$LT$T$C$F$GT$$u20$as$u20$core..ops..try_trait..FromResidual$LT$core..result..Result$LT$core..convert..Infallible$C$E$GT$$GT$$GT$13from_residual17h9d9b48145076f525E', symObjAddr: 0xEA4, symBinAddr: 0x2BCE8, symSize: 0x58 }
  - { offset: 0x109689, size: 0x8, addend: 0x0, symName: '__ZN153_$LT$core..result..Result$LT$T$C$F$GT$$u20$as$u20$core..ops..try_trait..FromResidual$LT$core..result..Result$LT$core..convert..Infallible$C$E$GT$$GT$$GT$13from_residual17h9eaf62c254e0607eE', symObjAddr: 0xEFC, symBinAddr: 0x2BD40, symSize: 0x58 }
  - { offset: 0x1096F1, size: 0x8, addend: 0x0, symName: '__ZN153_$LT$core..result..Result$LT$T$C$F$GT$$u20$as$u20$core..ops..try_trait..FromResidual$LT$core..result..Result$LT$core..convert..Infallible$C$E$GT$$GT$$GT$13from_residual17hb1cc6606fd9715a5E', symObjAddr: 0x1084, symBinAddr: 0x2BD98, symSize: 0x48 }
  - { offset: 0x109776, size: 0x8, addend: 0x0, symName: '__ZN153_$LT$core..result..Result$LT$T$C$F$GT$$u20$as$u20$core..ops..try_trait..FromResidual$LT$core..result..Result$LT$core..convert..Infallible$C$E$GT$$GT$$GT$13from_residual17hba9d3726601dbb61E', symObjAddr: 0x117C, symBinAddr: 0x2BDE0, symSize: 0x48 }
  - { offset: 0x1097FB, size: 0x8, addend: 0x0, symName: '__ZN153_$LT$core..result..Result$LT$T$C$F$GT$$u20$as$u20$core..ops..try_trait..FromResidual$LT$core..result..Result$LT$core..convert..Infallible$C$E$GT$$GT$$GT$13from_residual17hcdb2efa4a6ef75a6E', symObjAddr: 0x129C, symBinAddr: 0x2BE28, symSize: 0x58 }
  - { offset: 0x109863, size: 0x8, addend: 0x0, symName: '__ZN153_$LT$core..result..Result$LT$T$C$F$GT$$u20$as$u20$core..ops..try_trait..FromResidual$LT$core..result..Result$LT$core..convert..Infallible$C$E$GT$$GT$$GT$13from_residual17hd131afbf9015a819E', symObjAddr: 0x12F4, symBinAddr: 0x2BE80, symSize: 0x48 }
  - { offset: 0x1098E8, size: 0x8, addend: 0x0, symName: '__ZN153_$LT$core..result..Result$LT$T$C$F$GT$$u20$as$u20$core..ops..try_trait..FromResidual$LT$core..result..Result$LT$core..convert..Infallible$C$E$GT$$GT$$GT$13from_residual17hd2781c32e582be5fE', symObjAddr: 0x1384, symBinAddr: 0x2BEC8, symSize: 0x48 }
  - { offset: 0x10996D, size: 0x8, addend: 0x0, symName: '__ZN153_$LT$core..result..Result$LT$T$C$F$GT$$u20$as$u20$core..ops..try_trait..FromResidual$LT$core..result..Result$LT$core..convert..Infallible$C$E$GT$$GT$$GT$13from_residual17hdfb5ea584a18339aE', symObjAddr: 0x1414, symBinAddr: 0x2BF10, symSize: 0x48 }
  - { offset: 0x10B7A9, size: 0x8, addend: 0x0, symName: __ZN4core6result6Result3Err17hb5a215d89d1108efE, symObjAddr: 0x8628, symBinAddr: 0x2CD24, symSize: 0x20 }
  - { offset: 0x10B7EC, size: 0x8, addend: 0x0, symName: '__ZN79_$LT$core..result..Result$LT$T$C$E$GT$$u20$as$u20$core..ops..try_trait..Try$GT$11from_output17hc88d78ba2c3e7200E', symObjAddr: 0x8648, symBinAddr: 0x2CD44, symSize: 0x18 }
  - { offset: 0x10B82C, size: 0x8, addend: 0x0, symName: '__ZN79_$LT$core..result..Result$LT$T$C$E$GT$$u20$as$u20$core..ops..try_trait..Try$GT$6branch17h0f9ce0c56e8c00d3E', symObjAddr: 0x8768, symBinAddr: 0x2CD5C, symSize: 0x94 }
  - { offset: 0x10B8AA, size: 0x8, addend: 0x0, symName: '__ZN79_$LT$core..result..Result$LT$T$C$E$GT$$u20$as$u20$core..ops..try_trait..Try$GT$6branch17h1fad566c35a33e44E', symObjAddr: 0x8960, symBinAddr: 0x2CDF0, symSize: 0x88 }
  - { offset: 0x10B928, size: 0x8, addend: 0x0, symName: '__ZN79_$LT$core..result..Result$LT$T$C$E$GT$$u20$as$u20$core..ops..try_trait..Try$GT$6branch17h3458bf11309b9977E', symObjAddr: 0x8A94, symBinAddr: 0x2CE78, symSize: 0x94 }
  - { offset: 0x10B9A5, size: 0x8, addend: 0x0, symName: '__ZN79_$LT$core..result..Result$LT$T$C$E$GT$$u20$as$u20$core..ops..try_trait..Try$GT$6branch17h3b0a016cde081e34E', symObjAddr: 0x8BBC, symBinAddr: 0x2CF0C, symSize: 0x28 }
  - { offset: 0x10BA03, size: 0x8, addend: 0x0, symName: '__ZN79_$LT$core..result..Result$LT$T$C$E$GT$$u20$as$u20$core..ops..try_trait..Try$GT$6branch17h693a14f5f02af60fE', symObjAddr: 0x8ED8, symBinAddr: 0x2CF34, symSize: 0x8C }
  - { offset: 0x10BA81, size: 0x8, addend: 0x0, symName: '__ZN79_$LT$core..result..Result$LT$T$C$E$GT$$u20$as$u20$core..ops..try_trait..Try$GT$6branch17h6a577beb5fa44b26E', symObjAddr: 0x8FE4, symBinAddr: 0x2CFC0, symSize: 0x94 }
  - { offset: 0x10BAFE, size: 0x8, addend: 0x0, symName: '__ZN79_$LT$core..result..Result$LT$T$C$E$GT$$u20$as$u20$core..ops..try_trait..Try$GT$6branch17h7040f99bbbb8e9edE', symObjAddr: 0x9078, symBinAddr: 0x2D054, symSize: 0x80 }
  - { offset: 0x10BB7C, size: 0x8, addend: 0x0, symName: '__ZN79_$LT$core..result..Result$LT$T$C$E$GT$$u20$as$u20$core..ops..try_trait..Try$GT$6branch17h80eda18f0d32903cE', symObjAddr: 0x9178, symBinAddr: 0x2D0D4, symSize: 0x88 }
  - { offset: 0x10BBFA, size: 0x8, addend: 0x0, symName: '__ZN79_$LT$core..result..Result$LT$T$C$E$GT$$u20$as$u20$core..ops..try_trait..Try$GT$6branch17h85379ce184f14c4dE', symObjAddr: 0x9200, symBinAddr: 0x2D15C, symSize: 0x94 }
  - { offset: 0x10BC77, size: 0x8, addend: 0x0, symName: '__ZN79_$LT$core..result..Result$LT$T$C$E$GT$$u20$as$u20$core..ops..try_trait..Try$GT$6branch17h889c7f5ce5c0a203E', symObjAddr: 0x9294, symBinAddr: 0x2D1F0, symSize: 0x44 }
  - { offset: 0x10BCF3, size: 0x8, addend: 0x0, symName: '__ZN79_$LT$core..result..Result$LT$T$C$E$GT$$u20$as$u20$core..ops..try_trait..Try$GT$6branch17h8e6b49c64e3dee5fE', symObjAddr: 0x92D8, symBinAddr: 0x2D234, symSize: 0x88 }
  - { offset: 0x10BD71, size: 0x8, addend: 0x0, symName: '__ZN79_$LT$core..result..Result$LT$T$C$E$GT$$u20$as$u20$core..ops..try_trait..Try$GT$6branch17h8edb00d051c767b4E', symObjAddr: 0x9360, symBinAddr: 0x2D2BC, symSize: 0x80 }
  - { offset: 0x10BDEF, size: 0x8, addend: 0x0, symName: '__ZN79_$LT$core..result..Result$LT$T$C$E$GT$$u20$as$u20$core..ops..try_trait..Try$GT$6branch17h92a39a7cbe1d08baE', symObjAddr: 0x93E0, symBinAddr: 0x2D33C, symSize: 0x80 }
  - { offset: 0x10BE6D, size: 0x8, addend: 0x0, symName: '__ZN79_$LT$core..result..Result$LT$T$C$E$GT$$u20$as$u20$core..ops..try_trait..Try$GT$6branch17h96ee7253bb4ddcd4E', symObjAddr: 0x94E8, symBinAddr: 0x2D3BC, symSize: 0x80 }
  - { offset: 0x10BEEB, size: 0x8, addend: 0x0, symName: '__ZN79_$LT$core..result..Result$LT$T$C$E$GT$$u20$as$u20$core..ops..try_trait..Try$GT$6branch17h9c193018a3103ffcE', symObjAddr: 0x95E8, symBinAddr: 0x2D43C, symSize: 0x80 }
  - { offset: 0x10BF69, size: 0x8, addend: 0x0, symName: '__ZN79_$LT$core..result..Result$LT$T$C$E$GT$$u20$as$u20$core..ops..try_trait..Try$GT$6branch17ha267aa91fe860639E', symObjAddr: 0x9668, symBinAddr: 0x2D4BC, symSize: 0x28 }
  - { offset: 0x10BFC7, size: 0x8, addend: 0x0, symName: '__ZN79_$LT$core..result..Result$LT$T$C$E$GT$$u20$as$u20$core..ops..try_trait..Try$GT$6branch17haa4dddb75c8a5371E', symObjAddr: 0x9710, symBinAddr: 0x2D4E4, symSize: 0x8C }
  - { offset: 0x10C045, size: 0x8, addend: 0x0, symName: '__ZN79_$LT$core..result..Result$LT$T$C$E$GT$$u20$as$u20$core..ops..try_trait..Try$GT$6branch17hb9773f6ff15b383bE', symObjAddr: 0x98D4, symBinAddr: 0x2D570, symSize: 0xB0 }
  - { offset: 0x10C0C2, size: 0x8, addend: 0x0, symName: '__ZN79_$LT$core..result..Result$LT$T$C$E$GT$$u20$as$u20$core..ops..try_trait..Try$GT$6branch17hbb89d7e7c9ea1aaaE', symObjAddr: 0x9984, symBinAddr: 0x2D620, symSize: 0x80 }
  - { offset: 0x10C140, size: 0x8, addend: 0x0, symName: '__ZN79_$LT$core..result..Result$LT$T$C$E$GT$$u20$as$u20$core..ops..try_trait..Try$GT$6branch17hbcd49cac8215a9a1E', symObjAddr: 0x9A04, symBinAddr: 0x2D6A0, symSize: 0x94 }
  - { offset: 0x10C1BD, size: 0x8, addend: 0x0, symName: '__ZN79_$LT$core..result..Result$LT$T$C$E$GT$$u20$as$u20$core..ops..try_trait..Try$GT$6branch17hc0bbd0be7d8b53a1E', symObjAddr: 0x9A98, symBinAddr: 0x2D734, symSize: 0x8C }
  - { offset: 0x10C23B, size: 0x8, addend: 0x0, symName: '__ZN79_$LT$core..result..Result$LT$T$C$E$GT$$u20$as$u20$core..ops..try_trait..Try$GT$6branch17hc647e92dc967186eE', symObjAddr: 0x9B24, symBinAddr: 0x2D7C0, symSize: 0x8C }
  - { offset: 0x10C2B9, size: 0x8, addend: 0x0, symName: '__ZN79_$LT$core..result..Result$LT$T$C$E$GT$$u20$as$u20$core..ops..try_trait..Try$GT$6branch17he14ec302193f922cE', symObjAddr: 0x9CB0, symBinAddr: 0x2D84C, symSize: 0xB8 }
  - { offset: 0x10C336, size: 0x8, addend: 0x0, symName: '__ZN79_$LT$core..result..Result$LT$T$C$E$GT$$u20$as$u20$core..ops..try_trait..Try$GT$6branch17he871506757c30a24E', symObjAddr: 0x9DF0, symBinAddr: 0x2D904, symSize: 0x80 }
  - { offset: 0x10C3B4, size: 0x8, addend: 0x0, symName: '__ZN79_$LT$core..result..Result$LT$T$C$E$GT$$u20$as$u20$core..ops..try_trait..Try$GT$6branch17heaa3cdfbb91e9f1cE', symObjAddr: 0x9E70, symBinAddr: 0x2D984, symSize: 0x70 }
  - { offset: 0x10C432, size: 0x8, addend: 0x0, symName: '__ZN79_$LT$core..result..Result$LT$T$C$E$GT$$u20$as$u20$core..ops..try_trait..Try$GT$6branch17hededd366c8e8dc30E', symObjAddr: 0x9EE0, symBinAddr: 0x2D9F4, symSize: 0x80 }
  - { offset: 0x10C4B0, size: 0x8, addend: 0x0, symName: '__ZN79_$LT$core..result..Result$LT$T$C$E$GT$$u20$as$u20$core..ops..try_trait..Try$GT$6branch17hf89ef8da914c2375E', symObjAddr: 0x9FE8, symBinAddr: 0x2DA74, symSize: 0x80 }
  - { offset: 0x10C52E, size: 0x8, addend: 0x0, symName: '__ZN79_$LT$core..result..Result$LT$T$C$E$GT$$u20$as$u20$core..ops..try_trait..Try$GT$6branch17hfb9f96e3f8ce8821E', symObjAddr: 0xA068, symBinAddr: 0x2DAF4, symSize: 0x94 }
  - { offset: 0x10F118, size: 0x8, addend: 0x0, symName: '__ZN4core6result19Result$LT$T$C$E$GT$2ok17hb7c991866f8528bfE', symObjAddr: 0x1BEC, symBinAddr: 0x2BF58, symSize: 0x58 }
  - { offset: 0x10F178, size: 0x8, addend: 0x0, symName: '__ZN4core6result19Result$LT$T$C$E$GT$2ok17hff263cb8591c9d75E', symObjAddr: 0x1C44, symBinAddr: 0x2BFB0, symSize: 0x64 }
  - { offset: 0x10F1CC, size: 0x8, addend: 0x0, symName: '__ZN4core6result19Result$LT$T$C$E$GT$2or17h0f111f55721188eeE', symObjAddr: 0x1CA8, symBinAddr: 0x2C014, symSize: 0x70 }
  - { offset: 0x10F245, size: 0x8, addend: 0x0, symName: '__ZN4core6result19Result$LT$T$C$E$GT$3map17h68da70b17806b359E', symObjAddr: 0x1EAC, symBinAddr: 0x2C084, symSize: 0x8C }
  - { offset: 0x10F2E5, size: 0x8, addend: 0x0, symName: '__ZN4core6result19Result$LT$T$C$E$GT$3map17h6927da510e20445bE', symObjAddr: 0x1F38, symBinAddr: 0x2C110, symSize: 0x8C }
  - { offset: 0x10F397, size: 0x8, addend: 0x0, symName: '__ZN4core6result19Result$LT$T$C$E$GT$3map17hbf009961c2fd33a4E', symObjAddr: 0x20D0, symBinAddr: 0x2C19C, symSize: 0x98 }
  - { offset: 0x10F42A, size: 0x8, addend: 0x0, symName: '__ZN4core6result19Result$LT$T$C$E$GT$6expect17h4c48b81cd0224c68E', symObjAddr: 0x23EC, symBinAddr: 0x2C234, symSize: 0xA8 }
  - { offset: 0x10F48D, size: 0x8, addend: 0x0, symName: '__ZN4core6result19Result$LT$T$C$E$GT$6expect17h594216cf0ae66614E', symObjAddr: 0x253C, symBinAddr: 0x2C2DC, symSize: 0xBC }
  - { offset: 0x10F4F0, size: 0x8, addend: 0x0, symName: '__ZN4core6result19Result$LT$T$C$E$GT$6expect17h6276ce4116ba6a10E', symObjAddr: 0x25F8, symBinAddr: 0x2C398, symSize: 0x84 }
  - { offset: 0x10F552, size: 0x8, addend: 0x0, symName: '__ZN4core6result19Result$LT$T$C$E$GT$6expect17h8beb0e2afaefb549E', symObjAddr: 0x267C, symBinAddr: 0x2C41C, symSize: 0x84 }
  - { offset: 0x10F5B4, size: 0x8, addend: 0x0, symName: '__ZN4core6result19Result$LT$T$C$E$GT$6expect17hbc63e605eb53f1bcE', symObjAddr: 0x2700, symBinAddr: 0x2C4A0, symSize: 0x9C }
  - { offset: 0x10F617, size: 0x8, addend: 0x0, symName: '__ZN4core6result19Result$LT$T$C$E$GT$6expect17he2562aa8f314c834E', symObjAddr: 0x28DC, symBinAddr: 0x2C53C, symSize: 0x78 }
  - { offset: 0x10F698, size: 0x8, addend: 0x0, symName: '__ZN4core6result19Result$LT$T$C$E$GT$7map_err17h0cd9bff092fa75bfE', symObjAddr: 0x2F2C, symBinAddr: 0x2C5B4, symSize: 0x30 }
  - { offset: 0x10F70C, size: 0x8, addend: 0x0, symName: '__ZN4core6result19Result$LT$T$C$E$GT$7map_err17h19f67a29c9c4c691E', symObjAddr: 0x3520, symBinAddr: 0x2C5E4, symSize: 0xA4 }
  - { offset: 0x10F7A6, size: 0x8, addend: 0x0, symName: '__ZN4core6result19Result$LT$T$C$E$GT$7map_err17h6ec58cfa712f4272E', symObjAddr: 0x5280, symBinAddr: 0x2C688, symSize: 0xA4 }
  - { offset: 0x10F846, size: 0x8, addend: 0x0, symName: '__ZN4core6result19Result$LT$T$C$E$GT$7map_err17h775051ab3ed1dc24E', symObjAddr: 0x5414, symBinAddr: 0x2C72C, symSize: 0xA4 }
  - { offset: 0x10F8F1, size: 0x8, addend: 0x0, symName: '__ZN4core6result19Result$LT$T$C$E$GT$7map_err17h7b7eb9bd14d488e3E', symObjAddr: 0x54B8, symBinAddr: 0x2C7D0, symSize: 0x88 }
  - { offset: 0x10F98B, size: 0x8, addend: 0x0, symName: '__ZN4core6result19Result$LT$T$C$E$GT$7map_err17h930c9f9dfe3dd849E', symObjAddr: 0x5E90, symBinAddr: 0x2C858, symSize: 0x9C }
  - { offset: 0x10FA1E, size: 0x8, addend: 0x0, symName: '__ZN4core6result19Result$LT$T$C$E$GT$7map_err17h97ac61bd82c80285E', symObjAddr: 0x5FD0, symBinAddr: 0x2C8F4, symSize: 0xBC }
  - { offset: 0x10FABE, size: 0x8, addend: 0x0, symName: '__ZN4core6result19Result$LT$T$C$E$GT$7map_err17ha538f47876b4b8b3E', symObjAddr: 0x65F0, symBinAddr: 0x2C9B0, symSize: 0xB0 }
  - { offset: 0x10FB5E, size: 0x8, addend: 0x0, symName: '__ZN4core6result19Result$LT$T$C$E$GT$7map_err17he7af9d11e09811c2E', symObjAddr: 0x7C78, symBinAddr: 0x2CA60, symSize: 0xA4 }
  - { offset: 0x10FBF1, size: 0x8, addend: 0x0, symName: '__ZN4core6result19Result$LT$T$C$E$GT$7map_err17hef6e29d5ed5d2e19E', symObjAddr: 0x7D1C, symBinAddr: 0x2CB04, symSize: 0x78 }
  - { offset: 0x10FC8A, size: 0x8, addend: 0x0, symName: '__ZN4core6result19Result$LT$T$C$E$GT$7map_err17hfdf7367b1d2dfd69E', symObjAddr: 0x8164, symBinAddr: 0x2CB7C, symSize: 0xB0 }
  - { offset: 0x10FD35, size: 0x8, addend: 0x0, symName: '__ZN4core6result19Result$LT$T$C$E$GT$9unwrap_or17h245924e6fa05636cE', symObjAddr: 0x84BC, symBinAddr: 0x2CC2C, symSize: 0x70 }
  - { offset: 0x10FD79, size: 0x8, addend: 0x0, symName: '__ZN4core6result19Result$LT$T$C$E$GT$9unwrap_or17h6d98a3a938384708E', symObjAddr: 0x852C, symBinAddr: 0x2CC9C, symSize: 0x88 }
  - { offset: 0x1101D7, size: 0x8, addend: 0x0, symName: '__ZN4core3ptr7mut_ptr31_$LT$impl$u20$$BP$mut$u20$T$GT$6offset18precondition_check17h3b1aa2d3b2eab427E', symObjAddr: 0x118C, symBinAddr: 0x2E2FC, symSize: 0xC4 }
  - { offset: 0x111521, size: 0x8, addend: 0x0, symName: '__ZN104_$LT$core..ops..index_range..IndexRange$u20$as$u20$core..slice..index..SliceIndex$LT$$u5b$T$u5d$$GT$$GT$17get_unchecked_mut18precondition_check17hd37e1aca2808ff04E', symObjAddr: 0x14, symBinAddr: 0x2DB88, symSize: 0x60 }
  - { offset: 0x111580, size: 0x8, addend: 0x0, symName: '__ZN75_$LT$usize$u20$as$u20$core..slice..index..SliceIndex$LT$$u5b$T$u5d$$GT$$GT$13get_unchecked18precondition_check17hcbc0eceefbdbaca5E', symObjAddr: 0x64D0, symBinAddr: 0x2F2C0, symSize: 0x60 }
  - { offset: 0x1115D9, size: 0x8, addend: 0x0, symName: '__ZN75_$LT$usize$u20$as$u20$core..slice..index..SliceIndex$LT$$u5b$T$u5d$$GT$$GT$17get_unchecked_mut18precondition_check17hfd8ad66b2d88fcc8E', symObjAddr: 0x6530, symBinAddr: 0x2F320, symSize: 0x60 }
  - { offset: 0x111B17, size: 0x8, addend: 0x0, symName: '__ZN106_$LT$core..iter..adapters..GenericShunt$LT$I$C$R$GT$$u20$as$u20$core..iter..traits..iterator..Iterator$GT$4next17h2755f00bb6b11c25E', symObjAddr: 0x104, symBinAddr: 0x2DC38, symSize: 0x98 }
  - { offset: 0x111BA9, size: 0x8, addend: 0x0, symName: '__ZN106_$LT$core..iter..adapters..GenericShunt$LT$I$C$R$GT$$u20$as$u20$core..iter..traits..iterator..Iterator$GT$8try_fold17hcc28ef4ce3c6ae4dE', symObjAddr: 0x214, symBinAddr: 0x2DCD0, symSize: 0x8C }
  - { offset: 0x111C5A, size: 0x8, addend: 0x0, symName: '__ZN106_$LT$core..iter..adapters..GenericShunt$LT$I$C$R$GT$$u20$as$u20$core..iter..traits..iterator..Iterator$GT$8try_fold28_$u7b$$u7b$closure$u7d$$u7d$17h917bfdf73d6c772eE', symObjAddr: 0x390, symBinAddr: 0x2DD5C, symSize: 0x1F4 }
  - { offset: 0x111D74, size: 0x8, addend: 0x0, symName: '__ZN106_$LT$core..iter..adapters..GenericShunt$LT$I$C$R$GT$$u20$as$u20$core..iter..traits..iterator..Iterator$GT$9size_hint17h29846bcb82445cfdE', symObjAddr: 0x624, symBinAddr: 0x2DF50, symSize: 0x9C }
  - { offset: 0x111EA9, size: 0x8, addend: 0x0, symName: __ZN4core4iter8adapters11try_process17ha182824cc441d0d1E, symObjAddr: 0x18A4, symBinAddr: 0x2E79C, symSize: 0x188 }
  - { offset: 0x111FC6, size: 0x8, addend: 0x0, symName: __ZN4core4iter6traits8iterator8Iterator3map17hfd5bde608a409456E, symObjAddr: 0x16DC, symBinAddr: 0x2E5F8, symSize: 0x50 }
  - { offset: 0x112034, size: 0x8, addend: 0x0, symName: __ZN4core4iter6traits8iterator8Iterator8try_fold17hbea5f21bfd6a9142E, symObjAddr: 0x1750, symBinAddr: 0x2E648, symSize: 0x154 }
  - { offset: 0x11211B, size: 0x8, addend: 0x0, symName: '__ZN63_$LT$I$u20$as$u20$core..iter..traits..collect..IntoIterator$GT$9into_iter17hb471a0fc2c35061fE', symObjAddr: 0x4F34, symBinAddr: 0x2F290, symSize: 0x30 }
  - { offset: 0x1124D5, size: 0x8, addend: 0x0, symName: __ZN4core3str11validations23next_code_point_reverse17hdc399dfcabcae736E, symObjAddr: 0x148C, symBinAddr: 0x2E3C0, symSize: 0x238 }
  - { offset: 0x112DDE, size: 0x8, addend: 0x0, symName: __ZN8pyo3_ffi7cpython11floatobject13_PyFloat_CAST17hd550c09f98e6bc9eE, symObjAddr: 0x6D24, symBinAddr: 0x2F3B0, symSize: 0x8C }
  - { offset: 0x112E53, size: 0x8, addend: 0x0, symName: __ZN8pyo3_ffi7cpython11floatobject17PyFloat_AS_DOUBLE17he4d28657697a2e0bE, symObjAddr: 0x6DB0, symBinAddr: 0x2F43C, symSize: 0x78 }
  - { offset: 0x113053, size: 0x8, addend: 0x0, symName: __ZN8pyo3_ffi10listobject12PyList_Check17h4e960d7c80834d44E, symObjAddr: 0x6CC8, symBinAddr: 0x2F380, symSize: 0x30 }
  - { offset: 0x1130AF, size: 0x8, addend: 0x0, symName: '__ZN105_$LT$std..collections..hash..map..Iter$LT$K$C$V$GT$$u20$as$u20$core..iter..traits..iterator..Iterator$GT$4next17h6670dedc098ee0ecE', symObjAddr: 0x74, symBinAddr: 0x2DBE8, symSize: 0x24 }
  - { offset: 0x1130EF, size: 0x8, addend: 0x0, symName: '__ZN105_$LT$std..collections..hash..map..Iter$LT$K$C$V$GT$$u20$as$u20$core..iter..traits..iterator..Iterator$GT$9size_hint17h8422d61ce6af6f34E', symObjAddr: 0x98, symBinAddr: 0x2DC0C, symSize: 0x2C }
  - { offset: 0x1138E9, size: 0x8, addend: 0x0, symName: '__ZN4pyo311conversions3std3num115_$LT$impl$u20$pyo3..conversion..IntoPy$LT$pyo3..instance..Py$LT$pyo3..types..any..PyAny$GT$$GT$$u20$for$u20$i64$GT$7into_py17h9906a66ae80909adE', symObjAddr: 0x1E7C, symBinAddr: 0x2E924, symSize: 0x24 }
  - { offset: 0x11392F, size: 0x8, addend: 0x0, symName: __ZN4pyo311conversions3std3num20err_if_invalid_value17h6d8ad5e49e66b77bE, symObjAddr: 0x1F60, symBinAddr: 0x2E948, symSize: 0xC8 }
  - { offset: 0x1139AE, size: 0x8, addend: 0x0, symName: __ZN4pyo311conversions3std3num20err_if_invalid_value17hc6e1b60925e76337E, symObjAddr: 0x2028, symBinAddr: 0x2EA10, symSize: 0xC8 }
  - { offset: 0x113A32, size: 0x8, addend: 0x0, symName: '__ZN4pyo311conversions3std3num62_$LT$impl$u20$pyo3..conversion..ToPyObject$u20$for$u20$i64$GT$9to_object17h573deda614adaa30E', symObjAddr: 0x21A4, symBinAddr: 0x2EAD8, symSize: 0x2C }
  - { offset: 0x113A7D, size: 0x8, addend: 0x0, symName: '__ZN4pyo311conversions3std3num62_$LT$impl$u20$pyo3..conversion..ToPyObject$u20$for$u20$u32$GT$9to_object17h9538ad295e9c6f01E', symObjAddr: 0x2200, symBinAddr: 0x2EB04, symSize: 0x30 }
  - { offset: 0x113AC8, size: 0x8, addend: 0x0, symName: '__ZN4pyo311conversions3std3num64_$LT$impl$u20$pyo3..conversion..FromPyObject$u20$for$u20$i64$GT$7extract17h78ec8fb1ce50615eE', symObjAddr: 0x2D74, symBinAddr: 0x2EB34, symSize: 0x28C }
  - { offset: 0x113B9E, size: 0x8, addend: 0x0, symName: '__ZN4pyo311conversions3std3num64_$LT$impl$u20$pyo3..conversion..FromPyObject$u20$for$u20$u32$GT$7extract17h18700939afdfae4eE', symObjAddr: 0x32FC, symBinAddr: 0x2EDC0, symSize: 0x28C }
  - { offset: 0x113C73, size: 0x8, addend: 0x0, symName: '__ZN4pyo311conversions3std3num64_$LT$impl$u20$pyo3..conversion..FromPyObject$u20$for$u20$u32$GT$7extract28_$u7b$$u7b$closure$u7d$$u7d$17h60a8b6beb702ef6bE', symObjAddr: 0x3588, symBinAddr: 0x2F04C, symSize: 0x38 }
  - { offset: 0x113CC2, size: 0x8, addend: 0x0, symName: '__ZN4pyo311conversions3std3num64_$LT$impl$u20$pyo3..conversion..FromPyObject$u20$for$u20$u64$GT$7extract17h511cd0eed2797a4dE', symObjAddr: 0x35C0, symBinAddr: 0x2F084, symSize: 0x20C }
  - { offset: 0x114A8E, size: 0x8, addend: 0x0, symName: '__ZN3std11collections4hash3map18Entry$LT$K$C$V$GT$10or_default17h84a0dd63cbfc4fdbE', symObjAddr: 0x774, symBinAddr: 0x2DFEC, symSize: 0x190 }
  - { offset: 0x114CEC, size: 0x8, addend: 0x0, symName: '__ZN3std11collections4hash3map20HashMap$LT$K$C$V$GT$3new17h471da494287b764eE', symObjAddr: 0x904, symBinAddr: 0x2E17C, symSize: 0x7C }
  - { offset: 0x114E06, size: 0x8, addend: 0x0, symName: '__ZN3std11collections4hash3map28HashMap$LT$K$C$V$C$S$C$A$GT$3len17he38bdd4de362130aE', symObjAddr: 0x980, symBinAddr: 0x2E1F8, symSize: 0x18 }
  - { offset: 0x114E78, size: 0x8, addend: 0x0, symName: '__ZN3std11collections4hash3map28HashMap$LT$K$C$V$C$S$C$A$GT$4iter17haff60c635a2b8010E', symObjAddr: 0x998, symBinAddr: 0x2E210, symSize: 0x44 }
  - { offset: 0x114ECC, size: 0x8, addend: 0x0, symName: '__ZN3std11collections4hash3map28HashMap$LT$K$C$V$C$S$C$A$GT$5entry17h419169fb77aa47ceE', symObjAddr: 0x9DC, symBinAddr: 0x2E254, symSize: 0xA8 }
  - { offset: 0x11511A, size: 0x8, addend: 0x0, symName: '__ZN100_$LT$core..iter..adapters..take..Take$LT$I$GT$$u20$as$u20$core..iter..traits..iterator..Iterator$GT$4next17h2bb35351da52c26eE', symObjAddr: 0x0, symBinAddr: 0x2F4B4, symSize: 0x58 }
  - { offset: 0x115156, size: 0x8, addend: 0x0, symName: '__ZN11parking_lot4once4Once15call_once_force28_$u7b$$u7b$closure$u7d$$u7d$17h36a97a01837a262aE', symObjAddr: 0x730, symBinAddr: 0x2F98C, symSize: 0x3C }
  - { offset: 0x115198, size: 0x8, addend: 0x0, symName: '__ZN11parking_lot4once4Once15call_once_force28_$u7b$$u7b$closure$u7d$$u7d$17he988e2c089624145E', symObjAddr: 0x76C, symBinAddr: 0x2F9C8, symSize: 0x3C }
  - { offset: 0x1161C6, size: 0x8, addend: 0x0, symName: __ZN4core3ptr10swap_chunk17h84baed92be5d9c5aE, symObjAddr: 0x1224, symBinAddr: 0x2FCD4, symSize: 0x3C }
  - { offset: 0x1161FF, size: 0x8, addend: 0x0, symName: __ZN4core3ptr10swap_chunk17hb5e5d208a5c24e17E, symObjAddr: 0x1260, symBinAddr: 0x2FD10, symSize: 0x3C }
  - { offset: 0x116238, size: 0x8, addend: 0x0, symName: __ZN4core3ptr10swap_chunk17hf54dae2caf6a9992E, symObjAddr: 0x129C, symBinAddr: 0x2FD4C, symSize: 0x3C }
  - { offset: 0x116271, size: 0x8, addend: 0x0, symName: __ZN4core3ptr10swap_chunk17hfc38ace672505be9E, symObjAddr: 0x12D8, symBinAddr: 0x2FD88, symSize: 0x3C }
  - { offset: 0x1162AF, size: 0x8, addend: 0x0, symName: __ZN4core3ptr11write_bytes18precondition_check17h94fd76febc242c9bE, symObjAddr: 0x1314, symBinAddr: 0x2FDC4, symSize: 0x9C }
  - { offset: 0x1164A6, size: 0x8, addend: 0x0, symName: __ZN4core3ptr14read_unaligned17h4bf1f375f39df9f3E, symObjAddr: 0x13B0, symBinAddr: 0x2FE60, symSize: 0x9C }
  - { offset: 0x1165F1, size: 0x8, addend: 0x0, symName: __ZN4core3ptr15write_unaligned17hd782dc4ba96fc939E, symObjAddr: 0x144C, symBinAddr: 0x2FEFC, symSize: 0x78 }
  - { offset: 0x11667C, size: 0x8, addend: 0x0, symName: __ZN4core3ptr19copy_nonoverlapping18precondition_check17h2c7b57f4c0cf29d9E, symObjAddr: 0x14C4, symBinAddr: 0x2FF74, symSize: 0x168 }
  - { offset: 0x11690A, size: 0x8, addend: 0x0, symName: __ZN4core3ptr25swap_nonoverlapping_bytes17ha976ff9af349a1aaE, symObjAddr: 0x1870, symBinAddr: 0x300DC, symSize: 0xD8 }
  - { offset: 0x116AB3, size: 0x8, addend: 0x0, symName: __ZN4core3ptr25swap_nonoverlapping_bytes25swap_nonoverlapping_short17h7499f57621296ab8E, symObjAddr: 0x1948, symBinAddr: 0x301B4, symSize: 0x11C }
  - { offset: 0x116C3F, size: 0x8, addend: 0x0, symName: __ZN4core3ptr25swap_nonoverlapping_bytes26swap_nonoverlapping_chunks17hf2e11a379fba6f90E, symObjAddr: 0x1A64, symBinAddr: 0x302D0, symSize: 0xC0 }
  - { offset: 0x116DC2, size: 0x8, addend: 0x0, symName: __ZN4core3ptr4copy18precondition_check17hd2b6993c7fce3d65E, symObjAddr: 0x1B24, symBinAddr: 0x30390, symSize: 0x130 }
  - { offset: 0x116F0E, size: 0x8, addend: 0x0, symName: __ZN4core3ptr7replace18precondition_check17h5db7ebed81b98d0aE, symObjAddr: 0x1C70, symBinAddr: 0x304C0, symSize: 0x9C }
  - { offset: 0x117209, size: 0x8, addend: 0x0, symName: '__ZN100_$LT$core..iter..adapters..take..Take$LT$I$GT$$u20$as$u20$core..iter..traits..iterator..Iterator$GT$4next17h2bb35351da52c26eE', symObjAddr: 0x0, symBinAddr: 0x2F4B4, symSize: 0x58 }
  - { offset: 0x11723E, size: 0x8, addend: 0x0, symName: '__ZN100_$LT$core..iter..adapters..take..Take$LT$I$GT$$u20$as$u20$core..iter..traits..iterator..Iterator$GT$4next17hcfdc001f68bd5de7E', symObjAddr: 0x58, symBinAddr: 0x2F50C, symSize: 0x58 }
  - { offset: 0x117273, size: 0x8, addend: 0x0, symName: '__ZN100_$LT$core..iter..adapters..take..Take$LT$I$GT$$u20$as$u20$core..iter..traits..iterator..Iterator$GT$9size_hint17h3fd2d4af2ef0e29bE', symObjAddr: 0xB0, symBinAddr: 0x2F564, symSize: 0x100 }
  - { offset: 0x117383, size: 0x8, addend: 0x0, symName: '__ZN115_$LT$core..iter..adapters..filter_map..FilterMap$LT$I$C$F$GT$$u20$as$u20$core..iter..traits..iterator..Iterator$GT$4next17h5216dc58c999dc8eE', symObjAddr: 0x34C, symBinAddr: 0x2F664, symSize: 0x2C }
  - { offset: 0x1173CA, size: 0x8, addend: 0x0, symName: '__ZN115_$LT$core..iter..adapters..filter_map..FilterMap$LT$I$C$F$GT$$u20$as$u20$core..iter..traits..iterator..Iterator$GT$4next17hf1edcd8f9ce6ec66E', symObjAddr: 0x378, symBinAddr: 0x2F690, symSize: 0x2C }
  - { offset: 0x117411, size: 0x8, addend: 0x0, symName: '__ZN115_$LT$core..iter..adapters..filter_map..FilterMap$LT$I$C$F$GT$$u20$as$u20$core..iter..traits..iterator..Iterator$GT$9size_hint17h1945873f4698e8f4E', symObjAddr: 0x3A4, symBinAddr: 0x2F6BC, symSize: 0x4C }
  - { offset: 0x117475, size: 0x8, addend: 0x0, symName: '__ZN115_$LT$core..iter..adapters..filter_map..FilterMap$LT$I$C$F$GT$$u20$as$u20$core..iter..traits..iterator..Iterator$GT$9size_hint17h76e02ef486fd20e2E', symObjAddr: 0x3F0, symBinAddr: 0x2F708, symSize: 0x4C }
  - { offset: 0x1176B6, size: 0x8, addend: 0x0, symName: __ZN4core4iter6traits8iterator8Iterator3zip17hde525d147aef17d6E, symObjAddr: 0x2240, symBinAddr: 0x30658, symSize: 0xB0 }
  - { offset: 0x11772C, size: 0x8, addend: 0x0, symName: __ZN4core4iter6traits8iterator8Iterator7collect17h89958d2f91e75052E, symObjAddr: 0x22F0, symBinAddr: 0x30708, symSize: 0x14 }
  - { offset: 0x11776D, size: 0x8, addend: 0x0, symName: __ZN4core4iter6traits8iterator8Iterator7collect17he282198ff77c4bfdE, symObjAddr: 0x2304, symBinAddr: 0x3071C, symSize: 0x14 }
  - { offset: 0x1177BA, size: 0x8, addend: 0x0, symName: '__ZN63_$LT$I$u20$as$u20$core..iter..traits..collect..IntoIterator$GT$9into_iter17hc7db836938d18dceE', symObjAddr: 0x565C, symBinAddr: 0x30C4C, symSize: 0x30 }
  - { offset: 0x1177F2, size: 0x8, addend: 0x0, symName: '__ZN63_$LT$I$u20$as$u20$core..iter..traits..collect..IntoIterator$GT$9into_iter17hd2700a51e33d766cE', symObjAddr: 0x568C, symBinAddr: 0x30C7C, symSize: 0x18 }
  - { offset: 0x117829, size: 0x8, addend: 0x0, symName: '__ZN63_$LT$I$u20$as$u20$core..iter..traits..collect..IntoIterator$GT$9into_iter17hf29c42cea4de9aadE', symObjAddr: 0x56A4, symBinAddr: 0x30C94, symSize: 0x30 }
  - { offset: 0x117DC7, size: 0x8, addend: 0x0, symName: '__ZN185_$LT$core..ops..control_flow..ControlFlow$LT$B$C$C$GT$$u20$as$u20$core..ops..try_trait..FromResidual$LT$core..ops..control_flow..ControlFlow$LT$B$C$core..convert..Infallible$GT$$GT$$GT$13from_residual17h28e4aa054c87a2b1E', symObjAddr: 0x914, symBinAddr: 0x2FA50, symSize: 0x18 }
  - { offset: 0x117E05, size: 0x8, addend: 0x0, symName: '__ZN185_$LT$core..ops..control_flow..ControlFlow$LT$B$C$C$GT$$u20$as$u20$core..ops..try_trait..FromResidual$LT$core..ops..control_flow..ControlFlow$LT$B$C$core..convert..Infallible$GT$$GT$$GT$13from_residual17h3c3c0c8740258e3dE', symObjAddr: 0x92C, symBinAddr: 0x2FA68, symSize: 0x58 }
  - { offset: 0x117E44, size: 0x8, addend: 0x0, symName: '__ZN185_$LT$core..ops..control_flow..ControlFlow$LT$B$C$C$GT$$u20$as$u20$core..ops..try_trait..FromResidual$LT$core..ops..control_flow..ControlFlow$LT$B$C$core..convert..Infallible$GT$$GT$$GT$13from_residual17h9f01fc0fffc10d27E', symObjAddr: 0x998, symBinAddr: 0x2FAC0, symSize: 0x48 }
  - { offset: 0x117E8E, size: 0x8, addend: 0x0, symName: __ZN4core3ops12control_flow11ControlFlow5Break17he1c6c664ab03f4fdE, symObjAddr: 0x11E8, symBinAddr: 0x2FC98, symSize: 0x3C }
  - { offset: 0x117ED0, size: 0x8, addend: 0x0, symName: '__ZN95_$LT$core..ops..control_flow..ControlFlow$LT$B$C$C$GT$$u20$as$u20$core..ops..try_trait..Try$GT$11from_output17h8ea417d32ffccad6E', symObjAddr: 0x7DE8, symBinAddr: 0x30DDC, symSize: 0x10 }
  - { offset: 0x117F0E, size: 0x8, addend: 0x0, symName: '__ZN95_$LT$core..ops..control_flow..ControlFlow$LT$B$C$C$GT$$u20$as$u20$core..ops..try_trait..Try$GT$11from_output17ha57160535c053b82E', symObjAddr: 0x7DF8, symBinAddr: 0x30DEC, symSize: 0x18 }
  - { offset: 0x117F4C, size: 0x8, addend: 0x0, symName: '__ZN95_$LT$core..ops..control_flow..ControlFlow$LT$B$C$C$GT$$u20$as$u20$core..ops..try_trait..Try$GT$11from_output17hac059b5429781cd2E', symObjAddr: 0x7E10, symBinAddr: 0x30E04, symSize: 0x10 }
  - { offset: 0x117F8A, size: 0x8, addend: 0x0, symName: '__ZN95_$LT$core..ops..control_flow..ControlFlow$LT$B$C$C$GT$$u20$as$u20$core..ops..try_trait..Try$GT$6branch17hb4e1cdf5b1612376E', symObjAddr: 0x7E34, symBinAddr: 0x30E14, symSize: 0x88 }
  - { offset: 0x118003, size: 0x8, addend: 0x0, symName: '__ZN95_$LT$core..ops..control_flow..ControlFlow$LT$B$C$C$GT$$u20$as$u20$core..ops..try_trait..Try$GT$6branch17hcbb5ad45147bf4a5E', symObjAddr: 0x7EBC, symBinAddr: 0x30E9C, symSize: 0x54 }
  - { offset: 0x11807B, size: 0x8, addend: 0x0, symName: '__ZN95_$LT$core..ops..control_flow..ControlFlow$LT$B$C$C$GT$$u20$as$u20$core..ops..try_trait..Try$GT$6branch17hd32ee1bef0a19f1bE', symObjAddr: 0x7F10, symBinAddr: 0x30EF0, symSize: 0x90 }
  - { offset: 0x118590, size: 0x8, addend: 0x0, symName: '__ZN118_$LT$$u5b$core..mem..maybe_uninit..MaybeUninit$LT$T$GT$$u5d$$u20$as$u20$core..array..iter..iter_inner..PartialDrop$GT$12partial_drop17he2657cad3122fb44E', symObjAddr: 0x4F8, symBinAddr: 0x2F754, symSize: 0xA0 }
  - { offset: 0x118690, size: 0x8, addend: 0x0, symName: '__ZN129_$LT$$u5b$core..mem..maybe_uninit..MaybeUninit$LT$T$GT$$u3b$$u20$N$u5d$$u20$as$u20$core..array..iter..iter_inner..PartialDrop$GT$12partial_drop17hea5e4c77dc698fa5E', symObjAddr: 0x8C8, symBinAddr: 0x2FA04, symSize: 0x4C }
  - { offset: 0x118A10, size: 0x8, addend: 0x0, symName: '__ZN4core3str21_$LT$impl$u20$str$GT$16trim_end_matches17hc51efd7ee9419c9aE', symObjAddr: 0x1E0C, symBinAddr: 0x3055C, symSize: 0xE0 }
  - { offset: 0x118B93, size: 0x8, addend: 0x0, symName: '__ZN4core3str21_$LT$impl$u20$str$GT$3len17head057469001d6ccE', symObjAddr: 0x1FD0, symBinAddr: 0x3063C, symSize: 0x1C }
  - { offset: 0x1190CB, size: 0x8, addend: 0x0, symName: __ZN4pyo38instance12PyNativeType18unchecked_downcast17h9efabca94fd61fcaE, symObjAddr: 0x51CC, symBinAddr: 0x309DC, symSize: 0x70 }
  - { offset: 0x119100, size: 0x8, addend: 0x0, symName: __ZN4pyo38instance12PyNativeType18unchecked_downcast17heaa3655cdcd65133E, symObjAddr: 0x531C, symBinAddr: 0x30A4C, symSize: 0x70 }
  - { offset: 0x119300, size: 0x8, addend: 0x0, symName: __ZN4pyo35types4list6PyList6append5inner17hf50a75c88012c705E, symObjAddr: 0x4A7C, symBinAddr: 0x30888, symSize: 0xBC }
  - { offset: 0x119341, size: 0x8, addend: 0x0, symName: '__ZN69_$LT$pyo3..types..list..PyList$u20$as$u20$core..ops..deref..Deref$GT$5deref17h3b574c7f86edbb03E', symObjAddr: 0x5CC0, symBinAddr: 0x30CC4, symSize: 0x14 }
  - { offset: 0x119373, size: 0x8, addend: 0x0, symName: '__ZN74_$LT$pyo3..types..list..PyList$u20$as$u20$pyo3..conversion..ToPyObject$GT$9to_object17h1e3abd2abf8b95eeE', symObjAddr: 0x5F1C, symBinAddr: 0x30CEC, symSize: 0x2C }
  - { offset: 0x1193BE, size: 0x8, addend: 0x0, symName: '__ZN75_$LT$pyo3..types..list..PyList$u20$as$u20$pyo3..type_object..PyTypeInfo$GT$10is_type_of17h739417cd8ba012d4E', symObjAddr: 0x6254, symBinAddr: 0x30D18, symSize: 0x30 }
  - { offset: 0x1194AA, size: 0x8, addend: 0x0, symName: '__ZN71_$LT$pyo3..types..bytes..PyBytes$u20$as$u20$core..ops..deref..Deref$GT$5deref17h2a4b9f4610c8c6faE', symObjAddr: 0x5CD4, symBinAddr: 0x30CD8, symSize: 0x14 }
  - { offset: 0x1194DC, size: 0x8, addend: 0x0, symName: '__ZN77_$LT$pyo3..types..bytes..PyBytes$u20$as$u20$pyo3..type_object..PyTypeInfo$GT$10is_type_of17h36d59cbb40ac65ccE', symObjAddr: 0x66B8, symBinAddr: 0x30D48, symSize: 0x30 }
  - { offset: 0x11950E, size: 0x8, addend: 0x0, symName: '__ZN82_$LT$$RF$pyo3..types..bytes..PyBytes$u20$as$u20$pyo3..conversion..FromPyObject$GT$7extract17h0c582e502ab1da4eE', symObjAddr: 0x7058, symBinAddr: 0x30D78, symSize: 0x3C }
  - { offset: 0x119547, size: 0x8, addend: 0x0, symName: '__ZN49_$LT$T$u20$as$u20$pyo3..conversion..PyTryFrom$GT$18try_from_unchecked17h701b6bab07328199E', symObjAddr: 0xA10, symBinAddr: 0x2FB08, symSize: 0x30 }
  - { offset: 0x119587, size: 0x8, addend: 0x0, symName: '__ZN49_$LT$T$u20$as$u20$pyo3..conversion..PyTryFrom$GT$18try_from_unchecked17ha19b55fec592073cE', symObjAddr: 0xAD0, symBinAddr: 0x2FB38, symSize: 0x30 }
  - { offset: 0x1195C7, size: 0x8, addend: 0x0, symName: '__ZN49_$LT$T$u20$as$u20$pyo3..conversion..PyTryFrom$GT$8try_from17h3fc843e4ae4a06f8E', symObjAddr: 0xCF0, symBinAddr: 0x2FB68, symSize: 0x98 }
  - { offset: 0x119625, size: 0x8, addend: 0x0, symName: '__ZN49_$LT$T$u20$as$u20$pyo3..conversion..PyTryFrom$GT$8try_from17hb178935135c95f39E', symObjAddr: 0x1080, symBinAddr: 0x2FC00, symSize: 0x98 }
  - { offset: 0x119689, size: 0x8, addend: 0x0, symName: __ZN4pyo310conversion13FromPyPointer14from_owned_ptr17h1370fedaf1cbd161E, symObjAddr: 0x2864, symBinAddr: 0x30730, symSize: 0x24 }
  - { offset: 0x1196DB, size: 0x8, addend: 0x0, symName: __ZN4pyo310conversion13FromPyPointer14from_owned_ptr17ha43c50461e4ad1b3E, symObjAddr: 0x2888, symBinAddr: 0x30754, symSize: 0x24 }
  - { offset: 0x11972D, size: 0x8, addend: 0x0, symName: __ZN4pyo310conversion13FromPyPointer23from_owned_ptr_or_panic17h54c88315729cc329E, symObjAddr: 0x28E0, symBinAddr: 0x30778, symSize: 0x34 }
  - { offset: 0x11977F, size: 0x8, addend: 0x0, symName: __ZN4pyo310conversion13FromPyPointer23from_owned_ptr_or_panic17hc33560d633fa9e2eE, symObjAddr: 0x2914, symBinAddr: 0x307AC, symSize: 0x34 }
  - { offset: 0x1197D7, size: 0x8, addend: 0x0, symName: '__ZN53_$LT$T$u20$as$u20$pyo3..conversion..FromPyPointer$GT$21from_owned_ptr_or_opt17hc16faea0a6bcab51E', symObjAddr: 0x53D0, symBinAddr: 0x30ABC, symSize: 0xB4 }
  - { offset: 0x119847, size: 0x8, addend: 0x0, symName: '__ZN53_$LT$T$u20$as$u20$pyo3..conversion..FromPyPointer$GT$21from_owned_ptr_or_opt17hca57d1908678b152E', symObjAddr: 0x5484, symBinAddr: 0x30B70, symSize: 0xB4 }
  - { offset: 0x1198BD, size: 0x8, addend: 0x0, symName: '__ZN54_$LT$$RF$T$u20$as$u20$pyo3..conversion..ToPyObject$GT$9to_object17hcd3420096eba66b3E', symObjAddr: 0x5538, symBinAddr: 0x30C24, symSize: 0x28 }
  - { offset: 0x11A20C, size: 0x8, addend: 0x0, symName: __ZN8pyo3_ffi10modsupport15PyModule_Create17hd53a95f872168a06E, symObjAddr: 0x7C40, symBinAddr: 0x30DB4, symSize: 0x28 }
  - { offset: 0x11A80A, size: 0x8, addend: 0x0, symName: __ZN11parking_lot4once4Once15call_once_force17ha911987fa4aa190bE, symObjAddr: 0x598, symBinAddr: 0x2F7F4, symSize: 0xCC }
  - { offset: 0x11A860, size: 0x8, addend: 0x0, symName: __ZN11parking_lot4once4Once15call_once_force17hc4cf44da8f372f56E, symObjAddr: 0x664, symBinAddr: 0x2F8C0, symSize: 0xCC }
  - { offset: 0x11AB59, size: 0x8, addend: 0x0, symName: __ZN4pyo35types4list6PyList5empty17hbd6101f965a825ceE, symObjAddr: 0x49D4, symBinAddr: 0x307E0, symSize: 0x24 }
  - { offset: 0x11AB86, size: 0x8, addend: 0x0, symName: __ZN4pyo35types4list6PyList6append17hadb64e7284e69eb8E, symObjAddr: 0x49F8, symBinAddr: 0x30804, symSize: 0x84 }
  - { offset: 0x11ABD9, size: 0x8, addend: 0x0, symName: __ZN4pyo35types5bytes7PyBytes8as_bytes17h3d50c01396fbaf80E, symObjAddr: 0x4ED8, symBinAddr: 0x30944, symSize: 0x98 }
  - { offset: 0x11AFCB, size: 0x8, addend: 0x0, symName: '__ZN101_$LT$pyo3..types..floatob..PyFloat$u20$as$u20$core..convert..AsRef$LT$pyo3..types..any..PyAny$GT$$GT$6as_ref17h3545c93b552c6abcE', symObjAddr: 0x0, symBinAddr: 0x30F80, symSize: 0x14 }
  - { offset: 0x11B027, size: 0x8, addend: 0x0, symName: '__ZN45_$LT$T$u20$as$u20$alloc..string..ToString$GT$9to_string17h4a30c44d0cacc12aE', symObjAddr: 0x2F0, symBinAddr: 0x310A8, symSize: 0x24 }
  - { offset: 0x11B05E, size: 0x8, addend: 0x0, symName: '__ZN45_$LT$T$u20$as$u20$alloc..string..ToString$GT$9to_string17h8237d69e1f69da21E', symObjAddr: 0x314, symBinAddr: 0x310CC, symSize: 0x24 }
  - { offset: 0x11B09B, size: 0x8, addend: 0x0, symName: '__ZN49_$LT$T$u20$as$u20$alloc..string..SpecToString$GT$14spec_to_string17h9f313b4fcb13292bE', symObjAddr: 0x338, symBinAddr: 0x310F0, symSize: 0xF4 }
  - { offset: 0x11B165, size: 0x8, addend: 0x0, symName: '__ZN49_$LT$T$u20$as$u20$alloc..string..SpecToString$GT$14spec_to_string17hf251172d4421fc76E', symObjAddr: 0x42C, symBinAddr: 0x311E4, symSize: 0xF4 }
  - { offset: 0x11B49E, size: 0x8, addend: 0x0, symName: '__ZN59_$LT$alloc..alloc..Global$u20$as$u20$core..clone..Clone$GT$5clone17h02590d85caa5ee45E', symObjAddr: 0x7628, symBinAddr: 0x35D2C, symSize: 0x10 }
  - { offset: 0x11B4F7, size: 0x8, addend: 0x0, symName: '__ZN63_$LT$alloc..alloc..Global$u20$as$u20$core..alloc..Allocator$GT$10deallocate17h686b1fca8021d60cE', symObjAddr: 0x787C, symBinAddr: 0x35F80, symSize: 0x58 }
  - { offset: 0x11B5C5, size: 0x8, addend: 0x0, symName: '__ZN63_$LT$alloc..alloc..Global$u20$as$u20$core..alloc..Allocator$GT$8allocate17hc9a2012bd23c91b0E', symObjAddr: 0x78D4, symBinAddr: 0x35FD8, symSize: 0x40 }
  - { offset: 0x11B631, size: 0x8, addend: 0x0, symName: __ZN5alloc5alloc15exchange_malloc17h614a1916f1d184bfE, symObjAddr: 0x7638, symBinAddr: 0x35D3C, symSize: 0xB0 }
  - { offset: 0x11DE2F, size: 0x8, addend: 0x0, symName: __ZN4core4char7methods15encode_utf8_raw8do_panic7runtime17hb6680818b091aca2E, symObjAddr: 0x9D8, symBinAddr: 0x31568, symSize: 0xC4 }
  - { offset: 0x11DF2C, size: 0x8, addend: 0x0, symName: __ZN4core4char7methods15encode_utf8_raw17h7c8a5720e5ce4a8eE, symObjAddr: 0x8D8, symBinAddr: 0x31468, symSize: 0x100 }
  - { offset: 0x11E066, size: 0x8, addend: 0x0, symName: __ZN4core4char7methods25encode_utf8_raw_unchecked17h7755ac0a73739243E, symObjAddr: 0xC58, symBinAddr: 0x3162C, symSize: 0x188 }
  - { offset: 0x11E289, size: 0x8, addend: 0x0, symName: '__ZN53_$LT$T$u20$as$u20$core..slice..cmp..SliceContains$GT$14slice_contains28_$u7b$$u7b$closure$u7d$$u7d$17ha8d750f7abc3d72cE', symObjAddr: 0x71A4, symBinAddr: 0x359C8, symSize: 0x38 }
  - { offset: 0x11E2D9, size: 0x8, addend: 0x0, symName: '__ZN73_$LT$$u5b$A$u5d$$u20$as$u20$core..slice..cmp..SlicePartialEq$LT$B$GT$$GT$5equal17hf24ff40c3e4c9a65E', symObjAddr: 0x85C0, symBinAddr: 0x360DC, symSize: 0x88 }
  - { offset: 0x11F178, size: 0x8, addend: 0x0, symName: __ZN4core4hash11BuildHasher8hash_one17h20d389ee61a92f20E, symObjAddr: 0xDE0, symBinAddr: 0x317B4, symSize: 0x84 }
  - { offset: 0x11F1E8, size: 0x8, addend: 0x0, symName: '__ZN4core4hash5impls50_$LT$impl$u20$core..hash..Hash$u20$for$u20$str$GT$4hash17h9d6badf5c25bdb3dE', symObjAddr: 0xE64, symBinAddr: 0x31838, symSize: 0x48 }
  - { offset: 0x11F230, size: 0x8, addend: 0x0, symName: '__ZN4core4hash5impls52_$LT$impl$u20$core..hash..Hash$u20$for$u20$$RF$T$GT$4hash17h93f2dababc3770f6E', symObjAddr: 0xEAC, symBinAddr: 0x31880, symSize: 0x3C }
  - { offset: 0x11F27B, size: 0x8, addend: 0x0, symName: '__ZN4core4hash5impls52_$LT$impl$u20$core..hash..Hash$u20$for$u20$$RF$T$GT$4hash17hc4564dd8d556fcc5E', symObjAddr: 0xEE8, symBinAddr: 0x318BC, symSize: 0x30 }
  - { offset: 0x11F417, size: 0x8, addend: 0x0, symName: __ZN4core4hint21unreachable_unchecked18precondition_check17hf492ecfba918daabE, symObjAddr: 0xF70, symBinAddr: 0x318EC, symSize: 0x3C }
  - { offset: 0x11F48B, size: 0x8, addend: 0x0, symName: __ZN4core9core_arch10arm_shared4neon9generated13vget_lane_u6417h82bd0d755aff0d89E, symObjAddr: 0xFAC, symBinAddr: 0x31928, symSize: 0x18 }
  - { offset: 0x11F4BA, size: 0x8, addend: 0x0, symName: __ZN4core9core_arch10arm_shared4neon9generated18vreinterpret_s8_u817h8f53cd95019a0b40E, symObjAddr: 0xFC4, symBinAddr: 0x31940, symSize: 0xC }
  - { offset: 0x11F4E8, size: 0x8, addend: 0x0, symName: __ZN4core9core_arch10arm_shared4neon9generated19vreinterpret_u64_u817h2e600ae7d7f5be2bE, symObjAddr: 0xFD0, symBinAddr: 0x3194C, symSize: 0xC }
  - { offset: 0x11F516, size: 0x8, addend: 0x0, symName: __ZN4core9core_arch10arm_shared4neon9generated7vceq_u817h5638e761d908c278E, symObjAddr: 0xFDC, symBinAddr: 0x31958, symSize: 0x14 }
  - { offset: 0x11F553, size: 0x8, addend: 0x0, symName: __ZN4core9core_arch10arm_shared4neon9generated7vorr_u817hecedc3854cba375cE, symObjAddr: 0xFF0, symBinAddr: 0x3196C, symSize: 0x14 }
  - { offset: 0x11F590, size: 0x8, addend: 0x0, symName: __ZN4core9core_arch10arm_shared4neon9generated9vdup_n_u817hdd94b0b5c2eae2d5E, symObjAddr: 0x1004, symBinAddr: 0x31980, symSize: 0x2C }
  - { offset: 0x11F709, size: 0x8, addend: 0x0, symName: '__ZN50_$LT$T$u20$as$u20$core..convert..Into$LT$U$GT$$GT$4into17h2c4faf989aab3c3dE', symObjAddr: 0x7138, symBinAddr: 0x3595C, symSize: 0x24 }
  - { offset: 0x11F749, size: 0x8, addend: 0x0, symName: '__ZN50_$LT$T$u20$as$u20$core..convert..Into$LT$U$GT$$GT$4into17he44f574d4bc8af72E', symObjAddr: 0x715C, symBinAddr: 0x35980, symSize: 0x24 }
  - { offset: 0x11F789, size: 0x8, addend: 0x0, symName: '__ZN50_$LT$T$u20$as$u20$core..convert..Into$LT$U$GT$$GT$4into17hf0922f9e87da810cE', symObjAddr: 0x7180, symBinAddr: 0x359A4, symSize: 0x24 }
  - { offset: 0x11FAC3, size: 0x8, addend: 0x0, symName: '__ZN4pyo33err9err_state10PyErrState4lazy28_$u7b$$u7b$closure$u7d$$u7d$17hce996e101baa9ee4E', symObjAddr: 0x2138, symBinAddr: 0x31E2C, symSize: 0x70 }
  - { offset: 0x11FB25, size: 0x8, addend: 0x0, symName: __ZN4pyo33err9err_state10raise_lazy17haee483783af887c0E, symObjAddr: 0x26F4, symBinAddr: 0x323E8, symSize: 0x140 }
  - { offset: 0x11FBED, size: 0x8, addend: 0x0, symName: '__ZN4pyo33err9err_state20PyErrStateNormalized10ptraceback28_$u7b$$u7b$closure$u7d$$u7d$17hd8bf91de7f4961cfE', symObjAddr: 0x2860, symBinAddr: 0x32554, symSize: 0x30 }
  - { offset: 0x11FC47, size: 0x8, addend: 0x0, symName: __ZN4pyo33err9err_state30lazy_into_normalized_ffi_tuple17h8003539aa9700a62E, symObjAddr: 0x29C0, symBinAddr: 0x326B4, symSize: 0x84 }
  - { offset: 0x11FCE8, size: 0x8, addend: 0x0, symName: '__ZN58_$LT$T$u20$as$u20$pyo3..err..err_state..PyErrArguments$GT$9arguments17h275436e6835cb121E', symObjAddr: 0x75D8, symBinAddr: 0x35CDC, symSize: 0x28 }
  - { offset: 0x11FD36, size: 0x8, addend: 0x0, symName: '__ZN58_$LT$T$u20$as$u20$pyo3..err..err_state..PyErrArguments$GT$9arguments17hd2aa275deaa97151E', symObjAddr: 0x7600, symBinAddr: 0x35D04, symSize: 0x28 }
  - { offset: 0x11FD8A, size: 0x8, addend: 0x0, symName: '__ZN81_$LT$pyo3..err..err_state..PyErrStateNormalized$u20$as$u20$core..clone..Clone$GT$5clone17h827b685079c41774E', symObjAddr: 0x8A78, symBinAddr: 0x362C4, symSize: 0xC0 }
  - { offset: 0x11FED7, size: 0x8, addend: 0x0, symName: __ZN4pyo38instance12PyNativeType18unchecked_downcast17h0dfb9fd36efd2a7cE, symObjAddr: 0x6F38, symBinAddr: 0x3583C, symSize: 0x70 }
  - { offset: 0x11FF0C, size: 0x8, addend: 0x0, symName: __ZN4pyo38instance12PyNativeType18unchecked_downcast17ha6a53a2326af49c5E, symObjAddr: 0x7088, symBinAddr: 0x358AC, symSize: 0x70 }
  - { offset: 0x11FF41, size: 0x8, addend: 0x0, symName: __ZN4pyo38instance12PyNativeType2py17h6a3f1e75297185e1E, symObjAddr: 0x70F8, symBinAddr: 0x3591C, symSize: 0x20 }
  - { offset: 0x11FF72, size: 0x8, addend: 0x0, symName: __ZN4pyo38instance12PyNativeType2py17h798e4e5aa2938d80E, symObjAddr: 0x7118, symBinAddr: 0x3593C, symSize: 0x20 }
  - { offset: 0x12002F, size: 0x8, addend: 0x0, symName: '__ZN101_$LT$pyo3..types..floatob..PyFloat$u20$as$u20$core..convert..AsRef$LT$pyo3..types..any..PyAny$GT$$GT$6as_ref17h3545c93b552c6abcE', symObjAddr: 0x0, symBinAddr: 0x30F80, symSize: 0x14 }
  - { offset: 0x120061, size: 0x8, addend: 0x0, symName: '__ZN4pyo35types7floatob62_$LT$impl$u20$pyo3..conversion..ToPyObject$u20$for$u20$f64$GT$9to_object17he642450c26031575E', symObjAddr: 0x3EDC, symBinAddr: 0x32D38, symSize: 0x34 }
  - { offset: 0x1200AC, size: 0x8, addend: 0x0, symName: '__ZN4pyo35types7floatob64_$LT$impl$u20$pyo3..conversion..FromPyObject$u20$for$u20$f64$GT$7extract17h3e25fdd4e6e55edfE', symObjAddr: 0x3FB0, symBinAddr: 0x32D6C, symSize: 0x130 }
  - { offset: 0x12016A, size: 0x8, addend: 0x0, symName: '__ZN73_$LT$pyo3..types..floatob..PyFloat$u20$as$u20$core..ops..deref..Deref$GT$5deref17ha6e73fb072854a15E', symObjAddr: 0x8648, symBinAddr: 0x36164, symSize: 0x14 }
  - { offset: 0x12019C, size: 0x8, addend: 0x0, symName: '__ZN79_$LT$pyo3..types..floatob..PyFloat$u20$as$u20$pyo3..type_object..PyTypeInfo$GT$15type_object_raw17h24da0f6dfc4faf0cE', symObjAddr: 0x8A0C, symBinAddr: 0x36258, symSize: 0x24 }
  - { offset: 0x1201D8, size: 0x8, addend: 0x0, symName: '__ZN79_$LT$pyo3..types..floatob..PyFloat$u20$as$u20$pyo3..type_object..PyTypeInfo$GT$15type_object_raw28_$u7b$$u7b$closure$u7d$$u7d$17h3ebbee86e25ece48E', symObjAddr: 0x8A30, symBinAddr: 0x3627C, symSize: 0x18 }
  - { offset: 0x12022D, size: 0x8, addend: 0x0, symName: '__ZN101_$LT$pyo3..types..string..PyString$u20$as$u20$core..convert..AsRef$LT$pyo3..types..any..PyAny$GT$$GT$6as_ref17h8ace1535cd15ada0E', symObjAddr: 0x14, symBinAddr: 0x30F94, symSize: 0x14 }
  - { offset: 0x12025F, size: 0x8, addend: 0x0, symName: '__ZN141_$LT$$RF$pyo3..types..string..PyString$u20$as$u20$pyo3..conversion..IntoPy$LT$pyo3..instance..Py$LT$pyo3..types..string..PyString$GT$$GT$$GT$7into_py17h7c77e76c6cf41c24E', symObjAddr: 0x1F0, symBinAddr: 0x30FA8, symSize: 0x2C }
  - { offset: 0x120429, size: 0x8, addend: 0x0, symName: '__ZN73_$LT$pyo3..types..string..PyString$u20$as$u20$core..ops..deref..Deref$GT$5deref17hd7b325d5fe828360E', symObjAddr: 0x88D4, symBinAddr: 0x36178, symSize: 0x14 }
  - { offset: 0x12045B, size: 0x8, addend: 0x0, symName: '__ZN79_$LT$pyo3..types..string..PyString$u20$as$u20$pyo3..type_object..PyTypeInfo$GT$10is_type_of17hc062db423dc5bb79E', symObjAddr: 0x8A48, symBinAddr: 0x36294, symSize: 0x30 }
  - { offset: 0x120551, size: 0x8, addend: 0x0, symName: '__ZN49_$LT$T$u20$as$u20$pyo3..conversion..PyTryFrom$GT$14try_from_exact17hdaba765c40bb3f8dE', symObjAddr: 0x520, symBinAddr: 0x312D8, symSize: 0x98 }
  - { offset: 0x1205AF, size: 0x8, addend: 0x0, symName: '__ZN49_$LT$T$u20$as$u20$pyo3..conversion..PyTryFrom$GT$18try_from_unchecked17h5e6fc579583722d1E', symObjAddr: 0x5E8, symBinAddr: 0x31370, symSize: 0x30 }
  - { offset: 0x1205EF, size: 0x8, addend: 0x0, symName: '__ZN49_$LT$T$u20$as$u20$pyo3..conversion..PyTryFrom$GT$18try_from_unchecked17hf44a36086ecb2803E', symObjAddr: 0x648, symBinAddr: 0x313A0, symSize: 0x30 }
  - { offset: 0x12062F, size: 0x8, addend: 0x0, symName: '__ZN49_$LT$T$u20$as$u20$pyo3..conversion..PyTryFrom$GT$8try_from17h70a42f7b5c498fc5E', symObjAddr: 0x7A8, symBinAddr: 0x313D0, symSize: 0x98 }
  - { offset: 0x120693, size: 0x8, addend: 0x0, symName: __ZN4pyo310conversion13FromPyPointer14from_owned_ptr17h20db771930a3dd87E, symObjAddr: 0x1030, symBinAddr: 0x319AC, symSize: 0x24 }
  - { offset: 0x1206E5, size: 0x8, addend: 0x0, symName: __ZN4pyo310conversion13FromPyPointer14from_owned_ptr17hc0a49afcad932acbE, symObjAddr: 0x1054, symBinAddr: 0x319D0, symSize: 0x24 }
  - { offset: 0x120737, size: 0x8, addend: 0x0, symName: __ZN4pyo310conversion13FromPyPointer21from_owned_ptr_or_err17h6c660cecf4613a0aE, symObjAddr: 0x10AC, symBinAddr: 0x319F4, symSize: 0x34 }
  - { offset: 0x12078E, size: 0x8, addend: 0x0, symName: '__ZN4pyo310conversion13FromPyPointer21from_owned_ptr_or_err28_$u7b$$u7b$closure$u7d$$u7d$17h384b021a6a0b4f7cE', symObjAddr: 0x1140, symBinAddr: 0x31A28, symSize: 0x20 }
  - { offset: 0x1207D1, size: 0x8, addend: 0x0, symName: '__ZN4pyo310conversion13FromPyPointer21from_owned_ptr_or_err28_$u7b$$u7b$closure$u7d$$u7d$17h7d10a1a604f40ff0E', symObjAddr: 0x11E0, symBinAddr: 0x31A48, symSize: 0x20 }
  - { offset: 0x12083B, size: 0x8, addend: 0x0, symName: __ZN4pyo310conversion13FromPyPointer23from_owned_ptr_or_panic17h153e3c1f05f37c3dE, symObjAddr: 0x12E0, symBinAddr: 0x31A68, symSize: 0x34 }
  - { offset: 0x12088D, size: 0x8, addend: 0x0, symName: __ZN4pyo310conversion13FromPyPointer23from_owned_ptr_or_panic17h181f1ace61a2344bE, symObjAddr: 0x1314, symBinAddr: 0x31A9C, symSize: 0x34 }
  - { offset: 0x1208E4, size: 0x8, addend: 0x0, symName: '__ZN4pyo310conversion13FromPyPointer23from_owned_ptr_or_panic28_$u7b$$u7b$closure$u7d$$u7d$17h048f7c007cecc051E', symObjAddr: 0x1348, symBinAddr: 0x31AD0, symSize: 0x14 }
  - { offset: 0x120927, size: 0x8, addend: 0x0, symName: '__ZN4pyo310conversion13FromPyPointer23from_owned_ptr_or_panic28_$u7b$$u7b$closure$u7d$$u7d$17h341ec7de01f47221E', symObjAddr: 0x1370, symBinAddr: 0x31AE4, symSize: 0x14 }
  - { offset: 0x12096A, size: 0x8, addend: 0x0, symName: '__ZN4pyo310conversion13FromPyPointer23from_owned_ptr_or_panic28_$u7b$$u7b$closure$u7d$$u7d$17h656d4187499743e7E', symObjAddr: 0x1384, symBinAddr: 0x31AF8, symSize: 0x14 }
  - { offset: 0x1209AD, size: 0x8, addend: 0x0, symName: '__ZN4pyo310conversion13FromPyPointer23from_owned_ptr_or_panic28_$u7b$$u7b$closure$u7d$$u7d$17h8625568d9514c316E', symObjAddr: 0x1398, symBinAddr: 0x31B0C, symSize: 0x14 }
  - { offset: 0x1209F0, size: 0x8, addend: 0x0, symName: '__ZN4pyo310conversion13FromPyPointer23from_owned_ptr_or_panic28_$u7b$$u7b$closure$u7d$$u7d$17h915d8064230e6658E', symObjAddr: 0x13D4, symBinAddr: 0x31B20, symSize: 0x14 }
  - { offset: 0x120A33, size: 0x8, addend: 0x0, symName: '__ZN4pyo310conversion13FromPyPointer23from_owned_ptr_or_panic28_$u7b$$u7b$closure$u7d$$u7d$17hc615794f4a44a530E', symObjAddr: 0x1424, symBinAddr: 0x31B34, symSize: 0x14 }
  - { offset: 0x120AEE, size: 0x8, addend: 0x0, symName: '__ZN4pyo310conversion13FromPyPointer26from_borrowed_ptr_or_panic28_$u7b$$u7b$closure$u7d$$u7d$17h7ccc894b6abd7d2dE', symObjAddr: 0x1480, symBinAddr: 0x31B48, symSize: 0x14 }
  - { offset: 0x120B31, size: 0x8, addend: 0x0, symName: '__ZN4pyo310conversion13FromPyPointer26from_borrowed_ptr_or_panic28_$u7b$$u7b$closure$u7d$$u7d$17hc662829a40ca7df2E', symObjAddr: 0x1494, symBinAddr: 0x31B5C, symSize: 0x14 }
  - { offset: 0x120B74, size: 0x8, addend: 0x0, symName: '__ZN4pyo310conversion13FromPyPointer26from_borrowed_ptr_or_panic28_$u7b$$u7b$closure$u7d$$u7d$17hfb00c32574ef1767E', symObjAddr: 0x14A8, symBinAddr: 0x31B70, symSize: 0x14 }
  - { offset: 0x120BF7, size: 0x8, addend: 0x0, symName: '__ZN53_$LT$T$u20$as$u20$pyo3..conversion..FromPyPointer$GT$21from_owned_ptr_or_opt17h41613d211101e23bE', symObjAddr: 0x71DC, symBinAddr: 0x35A00, symSize: 0xB4 }
  - { offset: 0x120C67, size: 0x8, addend: 0x0, symName: '__ZN53_$LT$T$u20$as$u20$pyo3..conversion..FromPyPointer$GT$21from_owned_ptr_or_opt17h78f18e0f2d78d2a2E', symObjAddr: 0x7290, symBinAddr: 0x35AB4, symSize: 0xB4 }
  - { offset: 0x120CDC, size: 0x8, addend: 0x0, symName: '__ZN53_$LT$T$u20$as$u20$pyo3..conversion..FromPyPointer$GT$24from_borrowed_ptr_or_opt28_$u7b$$u7b$closure$u7d$$u7d$17h1e710079b5184421E', symObjAddr: 0x73F8, symBinAddr: 0x35B68, symSize: 0x6C }
  - { offset: 0x120D1E, size: 0x8, addend: 0x0, symName: '__ZN53_$LT$T$u20$as$u20$pyo3..conversion..FromPyPointer$GT$24from_borrowed_ptr_or_opt28_$u7b$$u7b$closure$u7d$$u7d$17h7057807fb2197f69E', symObjAddr: 0x7464, symBinAddr: 0x35BD4, symSize: 0x6C }
  - { offset: 0x120D60, size: 0x8, addend: 0x0, symName: '__ZN53_$LT$T$u20$as$u20$pyo3..conversion..FromPyPointer$GT$24from_borrowed_ptr_or_opt28_$u7b$$u7b$closure$u7d$$u7d$17h881d3597e2bd53cdE', symObjAddr: 0x753C, symBinAddr: 0x35C40, symSize: 0x6C }
  - { offset: 0x120DBE, size: 0x8, addend: 0x0, symName: '__ZN54_$LT$$RF$T$u20$as$u20$pyo3..conversion..ToPyObject$GT$9to_object17hc138410f88369273E', symObjAddr: 0x75A8, symBinAddr: 0x35CAC, symSize: 0x30 }
  - { offset: 0x120E18, size: 0x8, addend: 0x0, symName: '__ZN66_$LT$pyo3..pycell..PyBorrowError$u20$as$u20$core..fmt..Display$GT$3fmt17hda5680946b0a2100E', symObjAddr: 0x7964, symBinAddr: 0x36018, symSize: 0x3C }
  - { offset: 0x120E5B, size: 0x8, addend: 0x0, symName: '__ZN69_$LT$pyo3..pycell..PyBorrowMutError$u20$as$u20$core..fmt..Display$GT$3fmt17hb7f82b2646124ca1E', symObjAddr: 0x80C8, symBinAddr: 0x36054, symSize: 0x3C }
  - { offset: 0x120ECE, size: 0x8, addend: 0x0, symName: __ZN4pyo311type_object10PyTypeInfo16is_exact_type_of17h7fed18c720e003ceE, symObjAddr: 0x1E90, symBinAddr: 0x31B84, symSize: 0x50 }
  - { offset: 0x12101E, size: 0x8, addend: 0x0, symName: '__ZN4pyo35impl_8pymodule9ModuleDef11make_module28_$u7b$$u7b$closure$u7d$$u7d$17h15581b6f85c6cc53E', symObjAddr: 0x2BC0, symBinAddr: 0x328B4, symSize: 0x190 }
  - { offset: 0x1210CE, size: 0x8, addend: 0x0, symName: '__ZN4pyo35impl_8pymodule9ModuleDef11make_module28_$u7b$$u7b$closure$u7d$$u7d$17h90166357052e7e75E', symObjAddr: 0x2D50, symBinAddr: 0x32A44, symSize: 0x30 }
  - { offset: 0x121476, size: 0x8, addend: 0x0, symName: __ZN4pyo37pyclass18create_type_object13GetSetDefType21create_py_get_set_def13getset_getter17he5355a51ab052649E, symObjAddr: 0x45E8, symBinAddr: 0x32EEC, symSize: 0x88 }
  - { offset: 0x1214D6, size: 0x8, addend: 0x0, symName: '__ZN4pyo37pyclass18create_type_object13GetSetDefType21create_py_get_set_def13getset_getter28_$u7b$$u7b$closure$u7d$$u7d$17h446bdabef26b5514E', symObjAddr: 0x4670, symBinAddr: 0x32F74, symSize: 0x34 }
  - { offset: 0x121535, size: 0x8, addend: 0x0, symName: __ZN4pyo37pyclass18create_type_object13GetSetDefType21create_py_get_set_def13getset_setter17h7bf96210190a50f3E, symObjAddr: 0x46A4, symBinAddr: 0x32FA8, symSize: 0xA0 }
  - { offset: 0x1215A4, size: 0x8, addend: 0x0, symName: '__ZN4pyo37pyclass18create_type_object13GetSetDefType21create_py_get_set_def13getset_setter28_$u7b$$u7b$closure$u7d$$u7d$17h9dc2b1c12e196264E', symObjAddr: 0x4744, symBinAddr: 0x33048, symSize: 0x38 }
  - { offset: 0x121612, size: 0x8, addend: 0x0, symName: __ZN4pyo37pyclass18create_type_object13GetSetDefType21create_py_get_set_def6getter17he404052265177036E, symObjAddr: 0x48D4, symBinAddr: 0x331D8, symSize: 0x48 }
  - { offset: 0x121672, size: 0x8, addend: 0x0, symName: '__ZN4pyo37pyclass18create_type_object13GetSetDefType21create_py_get_set_def6getter28_$u7b$$u7b$closure$u7d$$u7d$17h8e4b33ae07e25615E', symObjAddr: 0x491C, symBinAddr: 0x33220, symSize: 0x34 }
  - { offset: 0x1216D1, size: 0x8, addend: 0x0, symName: __ZN4pyo37pyclass18create_type_object13GetSetDefType21create_py_get_set_def6setter17hdad3123f9f23ce2dE, symObjAddr: 0x4950, symBinAddr: 0x33254, symSize: 0x5C }
  - { offset: 0x121740, size: 0x8, addend: 0x0, symName: '__ZN4pyo37pyclass18create_type_object13GetSetDefType21create_py_get_set_def6setter28_$u7b$$u7b$closure$u7d$$u7d$17h62c4c7404ad495f8E', symObjAddr: 0x49AC, symBinAddr: 0x332B0, symSize: 0x38 }
  - { offset: 0x121B90, size: 0x8, addend: 0x0, symName: '__ZN4pyo37pyclass18create_type_object13PyTypeBuilder31finalize_methods_and_properties28_$u7b$$u7b$closure$u7d$$u7d$17h9a3b3289af9db485E', symObjAddr: 0x56F8, symBinAddr: 0x33FFC, symSize: 0x1BC }
  - { offset: 0x121C8D, size: 0x8, addend: 0x0, symName: __ZN4pyo37pyclass18create_type_object18create_type_object5inner17hb5f17739c941b881E, symObjAddr: 0x6AC0, symBinAddr: 0x353C4, symSize: 0x2A0 }
  - { offset: 0x121D8A, size: 0x8, addend: 0x0, symName: __ZN4pyo37pyclass18create_type_object22no_constructor_defined17hf229539e58ab7302E, symObjAddr: 0x6D60, symBinAddr: 0x35664, symSize: 0x38 }
  - { offset: 0x121DDB, size: 0x8, addend: 0x0, symName: '__ZN4pyo37pyclass18create_type_object22no_constructor_defined28_$u7b$$u7b$closure$u7d$$u7d$17h9f0f606befea73eaE', symObjAddr: 0x6D98, symBinAddr: 0x3569C, symSize: 0x50 }
  - { offset: 0x121E18, size: 0x8, addend: 0x0, symName: __ZN4pyo37pyclass18create_type_object23py_class_qualified_name17he5df8b806f84e7c8E, symObjAddr: 0x6DE8, symBinAddr: 0x356EC, symSize: 0x150 }
  - { offset: 0x121ED7, size: 0x8, addend: 0x0, symName: '__ZN94_$LT$pyo3..pyclass..create_type_object..GetSetDefBuilder$u20$as$u20$core..default..Default$GT$7default17h709b32cadfbeb677E', symObjAddr: 0x8CE4, symBinAddr: 0x36384, symSize: 0x54 }
  - { offset: 0x122C4D, size: 0x8, addend: 0x0, symName: __ZN3std3sys12thread_local20abort_on_dtor_unwind17hfcb5b762db324a97E, symObjAddr: 0x21C, symBinAddr: 0x30FD4, symSize: 0x50 }
  - { offset: 0x122CE4, size: 0x8, addend: 0x0, symName: '__ZN3std4hash6random11RandomState3new28_$u7b$$u7b$closure$u7d$$u7d$17h3108c53cc6e86292E', symObjAddr: 0x26C, symBinAddr: 0x31024, symSize: 0x2C }
  - { offset: 0x122DA0, size: 0x8, addend: 0x0, symName: __ZN3std4hash6random11RandomState3new4KEYS27__rust_std_internal_init_fn17h4f04bdb500b420dbE, symObjAddr: 0x298, symBinAddr: 0x31050, symSize: 0x24 }
  - { offset: 0x122DC2, size: 0x8, addend: 0x0, symName: '__ZN3std4hash6random11RandomState3new4KEYS29_$u7b$$u7b$constant$u7d$$u7d$28_$u7b$$u7b$closure$u7d$$u7d$17h3928c2ff27fa7197E', symObjAddr: 0x2BC, symBinAddr: 0x31074, symSize: 0x34 }
  - { offset: 0x122E30, size: 0x8, addend: 0x0, symName: '__ZN71_$LT$std..hash..random..DefaultHasher$u20$as$u20$core..hash..Hasher$GT$6finish17h4d789308f654f8f1E', symObjAddr: 0x82FC, symBinAddr: 0x36090, symSize: 0x20 }
  - { offset: 0x122E78, size: 0x8, addend: 0x0, symName: '__ZN71_$LT$std..hash..random..DefaultHasher$u20$as$u20$core..hash..Hasher$GT$9write_str17h0ab400fc7169c784E', symObjAddr: 0x831C, symBinAddr: 0x360B0, symSize: 0x2C }
  - { offset: 0x122ED8, size: 0x8, addend: 0x0, symName: '__ZN74_$LT$std..hash..random..RandomState$u20$as$u20$core..hash..BuildHasher$GT$12build_hasher17h1de134f748e90d5bE', symObjAddr: 0x88E8, symBinAddr: 0x3618C, symSize: 0xCC }
  - { offset: 0x1232FC, size: 0x8, addend: 0x0, symName: __ZN4pyo33err9err_state10PyErrState10normalized17hb6b57c81c61c262fE, symObjAddr: 0x1EE0, symBinAddr: 0x31BD4, symSize: 0x12C }
  - { offset: 0x123338, size: 0x8, addend: 0x0, symName: __ZN4pyo33err9err_state10PyErrState4lazy17h90111aa6516ea97cE, symObjAddr: 0x200C, symBinAddr: 0x31D00, symSize: 0x12C }
  - { offset: 0x1233E4, size: 0x8, addend: 0x0, symName: __ZN4pyo33err9err_state10PyErrState7restore17h532df82d5a34d91bE, symObjAddr: 0x21A8, symBinAddr: 0x31E9C, symSize: 0x308 }
  - { offset: 0x123522, size: 0x8, addend: 0x0, symName: __ZN4pyo33err9err_state10PyErrState9normalize17ha2438076927fd59fE, symObjAddr: 0x24B0, symBinAddr: 0x321A4, symSize: 0x244 }
  - { offset: 0x123697, size: 0x8, addend: 0x0, symName: __ZN4pyo33err9err_state20PyErrStateNormalized10ptraceback17h434956bb005b061cE, symObjAddr: 0x2834, symBinAddr: 0x32528, symSize: 0x2C }
  - { offset: 0x1236D2, size: 0x8, addend: 0x0, symName: __ZN4pyo33err9err_state20PyErrStateNormalized25from_normalized_ffi_tuple17hcec9f9fa35f78c49E, symObjAddr: 0x2890, symBinAddr: 0x32584, symSize: 0x10C }
  - { offset: 0x123736, size: 0x8, addend: 0x0, symName: __ZN4pyo33err9err_state20PyErrStateNormalized5ptype17h34efb513c7f86c78E, symObjAddr: 0x299C, symBinAddr: 0x32690, symSize: 0x24 }
  - { offset: 0x12382B, size: 0x8, addend: 0x0, symName: __ZN4pyo35impl_8pymodule9ModuleDef11make_module17h69e26eb819b783bfE, symObjAddr: 0x2A44, symBinAddr: 0x32738, symSize: 0x17C }
  - { offset: 0x12395D, size: 0x8, addend: 0x0, symName: __ZN4pyo35types6string8PyString15to_string_lossy17hb6078c7f05528fdbE, symObjAddr: 0x39C0, symBinAddr: 0x32A74, symSize: 0x128 }
  - { offset: 0x1239B9, size: 0x8, addend: 0x0, symName: __ZN4pyo35types6string8PyString3new17h6d8fad31c590f11bE, symObjAddr: 0x3AE8, symBinAddr: 0x32B9C, symSize: 0x54 }
  - { offset: 0x123A2E, size: 0x8, addend: 0x0, symName: __ZN4pyo35types6string8PyString6intern17h20b1747b49e26831E, symObjAddr: 0x3CF8, symBinAddr: 0x32BF0, symSize: 0x78 }
  - { offset: 0x123AC0, size: 0x8, addend: 0x0, symName: __ZN4pyo35types6string8PyString6to_str17hb009eef25bce3c0dE, symObjAddr: 0x3D70, symBinAddr: 0x32C68, symSize: 0xD0 }
  - { offset: 0x123B44, size: 0x8, addend: 0x0, symName: __ZN4pyo35types7floatob7PyFloat3new17h5a974007494fb2b7E, symObjAddr: 0x40E0, symBinAddr: 0x32E9C, symSize: 0x24 }
  - { offset: 0x123B7F, size: 0x8, addend: 0x0, symName: __ZN4pyo35types7floatob7PyFloat5value17h4faa384012f35175E, symObjAddr: 0x4104, symBinAddr: 0x32EC0, symSize: 0x2C }
  - { offset: 0x123C07, size: 0x8, addend: 0x0, symName: __ZN4pyo37pyclass18create_type_object13GetSetDefType21create_py_get_set_def17hb98f364dd7aa794eE, symObjAddr: 0x477C, symBinAddr: 0x33080, symSize: 0x158 }
  - { offset: 0x123E77, size: 0x8, addend: 0x0, symName: __ZN4pyo37pyclass18create_type_object13PyTypeBuilder11class_items17h2572c3c5c9583ed5E, symObjAddr: 0x49E4, symBinAddr: 0x332E8, symSize: 0x234 }
  - { offset: 0x123FDB, size: 0x8, addend: 0x0, symName: __ZN4pyo37pyclass18create_type_object13PyTypeBuilder12pymethod_def17h0853a696880b1be5E, symObjAddr: 0x4C18, symBinAddr: 0x3351C, symSize: 0x2C8 }
  - { offset: 0x1240BD, size: 0x8, addend: 0x0, symName: __ZN4pyo37pyclass18create_type_object13PyTypeBuilder15set_is_basetype17hf14982d6e103e86aE, symObjAddr: 0x4EE0, symBinAddr: 0x337E4, symSize: 0x54 }
  - { offset: 0x12416E, size: 0x8, addend: 0x0, symName: __ZN4pyo37pyclass18create_type_object13PyTypeBuilder17push_raw_vec_slot17h2f0db67b59cabba1E, symObjAddr: 0x4F34, symBinAddr: 0x33838, symSize: 0x1A8 }
  - { offset: 0x124360, size: 0x8, addend: 0x0, symName: __ZN4pyo37pyclass18create_type_object13PyTypeBuilder17push_raw_vec_slot17hb54c913017bf3045E, symObjAddr: 0x50DC, symBinAddr: 0x339E0, symSize: 0x194 }
  - { offset: 0x124549, size: 0x8, addend: 0x0, symName: __ZN4pyo37pyclass18create_type_object13PyTypeBuilder17push_raw_vec_slot17hc6fdcd5f466fe9baE, symObjAddr: 0x5270, symBinAddr: 0x33B74, symSize: 0x1A8 }
  - { offset: 0x1246BD, size: 0x8, addend: 0x0, symName: __ZN4pyo37pyclass18create_type_object13PyTypeBuilder31finalize_methods_and_properties17h013fd6ff7b7280e5E, symObjAddr: 0x5418, symBinAddr: 0x33D1C, symSize: 0x2E0 }
  - { offset: 0x124801, size: 0x8, addend: 0x0, symName: __ZN4pyo37pyclass18create_type_object13PyTypeBuilder5build17haf93b2ec6c3c3231E, symObjAddr: 0x58B4, symBinAddr: 0x341B8, symSize: 0x75C }
  - { offset: 0x124A95, size: 0x8, addend: 0x0, symName: __ZN4pyo37pyclass18create_type_object13PyTypeBuilder7offsets17h26e08b9fdec9b1dfE, symObjAddr: 0x6010, symBinAddr: 0x34914, symSize: 0x1DC }
  - { offset: 0x124B69, size: 0x8, addend: 0x0, symName: __ZN4pyo37pyclass18create_type_object13PyTypeBuilder8type_doc17he2b314eeadbc836eE, symObjAddr: 0x61EC, symBinAddr: 0x34AF0, symSize: 0xE0 }
  - { offset: 0x124BB2, size: 0x8, addend: 0x0, symName: __ZN4pyo37pyclass18create_type_object13PyTypeBuilder9push_slot17h5443f18cc2d6a538E, symObjAddr: 0x62CC, symBinAddr: 0x34BD0, symSize: 0x108 }
  - { offset: 0x124BF9, size: 0x8, addend: 0x0, symName: __ZN4pyo37pyclass18create_type_object13PyTypeBuilder9push_slot17h6cccac38e909520fE, symObjAddr: 0x63D4, symBinAddr: 0x34CD8, symSize: 0x108 }
  - { offset: 0x124C40, size: 0x8, addend: 0x0, symName: __ZN4pyo37pyclass18create_type_object13PyTypeBuilder9push_slot17hfbbc115dc1b79395E, symObjAddr: 0x64DC, symBinAddr: 0x34DE0, symSize: 0x108 }
  - { offset: 0x124CA1, size: 0x8, addend: 0x0, symName: __ZN4pyo37pyclass18create_type_object16GetSetDefBuilder10add_getter17hc971bb266f44d934E, symObjAddr: 0x65E4, symBinAddr: 0x34EE8, symSize: 0x64 }
  - { offset: 0x124CE0, size: 0x8, addend: 0x0, symName: __ZN4pyo37pyclass18create_type_object16GetSetDefBuilder10add_setter17habbdd3b641d4f8f8E, symObjAddr: 0x6648, symBinAddr: 0x34F4C, symSize: 0x64 }
  - { offset: 0x124D3D, size: 0x8, addend: 0x0, symName: __ZN4pyo37pyclass18create_type_object16GetSetDefBuilder14as_get_set_def17haf8564b66dc8956cE, symObjAddr: 0x66AC, symBinAddr: 0x34FB0, symSize: 0x414 }
  - { offset: 0x12508E, size: 0x8, addend: 0x0, symName: __ZN5alloc5alloc6Global18alloc_impl_runtime17he89fce3731a1e824E, symObjAddr: 0x76E8, symBinAddr: 0x35DEC, symSize: 0x194 }
  - { offset: 0x1257F7, size: 0x8, addend: 0x0, symName: __ZN4pyo35panic14PanicException15type_object_raw11TYPE_OBJECT17h690906651727d92bE, symObjAddr: 0x36780, symBinAddr: 0xFD2F8, symSize: 0x0 }
  - { offset: 0x125804, size: 0x8, addend: 0x0, symName: '__ZN4pyo35panic14PanicException15type_object_raw28_$u7b$$u7b$closure$u7d$$u7d$17h8c9c0122da5df00dE', symObjAddr: 0x13F8, symBinAddr: 0x36F00, symSize: 0x74 }
  - { offset: 0x1258D0, size: 0x8, addend: 0x0, symName: '__ZN77_$LT$pyo3..panic..PanicException$u20$as$u20$pyo3..type_object..PyTypeInfo$GT$15type_object_raw17hfdd63c16727834f8E', symObjAddr: 0x6AF0, symBinAddr: 0x375CC, symSize: 0x1C }
  - { offset: 0x1259FD, size: 0x8, addend: 0x0, symName: __ZN4pyo38instance12PyNativeType18unchecked_downcast17h34589695e6e15ff3E, symObjAddr: 0x3110, symBinAddr: 0x37264, symSize: 0x70 }
  - { offset: 0x125A32, size: 0x8, addend: 0x0, symName: __ZN4pyo38instance12PyNativeType2py17h0ed772107769aeb4E, symObjAddr: 0x33B0, symBinAddr: 0x372D4, symSize: 0x20 }
  - { offset: 0x125C74, size: 0x8, addend: 0x0, symName: __ZN4pyo35types4dict6PyDict8set_item5inner17h5dbf89862b6c567cE, symObjAddr: 0x2574, symBinAddr: 0x37148, symSize: 0xFC }
  - { offset: 0x125CC3, size: 0x8, addend: 0x0, symName: '__ZN69_$LT$pyo3..types..dict..PyDict$u20$as$u20$core..ops..deref..Deref$GT$5deref17h68e7f5645fe5b15cE', symObjAddr: 0x5D14, symBinAddr: 0x374AC, symSize: 0x14 }
  - { offset: 0x125CF5, size: 0x8, addend: 0x0, symName: '__ZN75_$LT$pyo3..types..dict..PyDict$u20$as$u20$pyo3..type_object..PyTypeInfo$GT$10is_type_of17hf34dfd86f24cefaeE', symObjAddr: 0x6AAC, symBinAddr: 0x3759C, symSize: 0x30 }
  - { offset: 0x125D27, size: 0x8, addend: 0x0, symName: '__ZN80_$LT$$RF$pyo3..types..dict..PyDict$u20$as$u20$pyo3..conversion..FromPyObject$GT$7extract17hf29a13cafd51fe9aE', symObjAddr: 0x6B8C, symBinAddr: 0x375E8, symSize: 0x3C }
  - { offset: 0x125D59, size: 0x8, addend: 0x0, symName: '__ZN91_$LT$$RF$pyo3..types..dict..PyDict$u20$as$u20$core..iter..traits..collect..IntoIterator$GT$9into_iter17hac81718d95ba6e41E', symObjAddr: 0x6E8C, symBinAddr: 0x37624, symSize: 0x58 }
  - { offset: 0x125E0E, size: 0x8, addend: 0x0, symName: '__ZN97_$LT$pyo3..types..none..PyNone$u20$as$u20$core..convert..AsRef$LT$pyo3..types..any..PyAny$GT$$GT$6as_ref17h3bf07ad87c9dd6daE', symObjAddr: 0x6EE4, symBinAddr: 0x3767C, symSize: 0x14 }
  - { offset: 0x125E82, size: 0x8, addend: 0x0, symName: '__ZN114_$LT$pyo3..pyclass_init..PyNativeTypeInitializer$LT$T$GT$$u20$as$u20$pyo3..pyclass_init..PyObjectInit$LT$T$GT$$GT$15into_new_object5inner17h5c2ef3279a5fb6aaE', symObjAddr: 0x18, symBinAddr: 0x363D8, symSize: 0x1D8 }
  - { offset: 0x125F4B, size: 0x8, addend: 0x0, symName: '__ZN49_$LT$T$u20$as$u20$pyo3..conversion..PyTryFrom$GT$18try_from_unchecked17h200093c5313f9159E', symObjAddr: 0x2F4, symBinAddr: 0x36654, symSize: 0x30 }
  - { offset: 0x125F8B, size: 0x8, addend: 0x0, symName: '__ZN49_$LT$T$u20$as$u20$pyo3..conversion..PyTryFrom$GT$8try_from17ha549e939e93fbf57E', symObjAddr: 0x70C, symBinAddr: 0x36684, symSize: 0x98 }
  - { offset: 0x125FEF, size: 0x8, addend: 0x0, symName: __ZN4pyo310conversion13FromPyPointer14from_owned_ptr17h981d3028642a2899E, symObjAddr: 0x1210, symBinAddr: 0x36E04, symSize: 0x24 }
  - { offset: 0x126041, size: 0x8, addend: 0x0, symName: __ZN4pyo310conversion13FromPyPointer17from_borrowed_ptr17hdb5d7a37b457d55eE, symObjAddr: 0x1234, symBinAddr: 0x36E28, symSize: 0x24 }
  - { offset: 0x126093, size: 0x8, addend: 0x0, symName: __ZN4pyo310conversion13FromPyPointer23from_owned_ptr_or_panic17h84235e9cd2c1cdf8E, symObjAddr: 0x12F4, symBinAddr: 0x36E4C, symSize: 0x34 }
  - { offset: 0x1260E5, size: 0x8, addend: 0x0, symName: __ZN4pyo310conversion13FromPyPointer26from_borrowed_ptr_or_panic17hbf3f649806b8fa5eE, symObjAddr: 0x1328, symBinAddr: 0x36E80, symSize: 0x34 }
  - { offset: 0x12613D, size: 0x8, addend: 0x0, symName: '__ZN53_$LT$T$u20$as$u20$pyo3..conversion..FromPyPointer$GT$21from_owned_ptr_or_opt17hac72675db00c7ebbE', symObjAddr: 0x355C, symBinAddr: 0x37318, symSize: 0xB4 }
  - { offset: 0x1261AD, size: 0x8, addend: 0x0, symName: '__ZN53_$LT$T$u20$as$u20$pyo3..conversion..FromPyPointer$GT$24from_borrowed_ptr_or_opt17hfbd31bf7f7223fd1E', symObjAddr: 0x3610, symBinAddr: 0x373CC, symSize: 0x28 }
  - { offset: 0x12622C, size: 0x8, addend: 0x0, symName: __ZN4pyo311type_object10PyTypeInfo11type_object17h083f7e4fad705bb3E, symObjAddr: 0x13AC, symBinAddr: 0x36EB4, symSize: 0x20 }
  - { offset: 0x1268EC, size: 0x8, addend: 0x0, symName: '__ZN74_$LT$core..cell..RefMut$LT$T$GT$$u20$as$u20$core..ops..deref..DerefMut$GT$9deref_mut17h418d1675b962f1caE', symObjAddr: 0x67B8, symBinAddr: 0x3756C, symSize: 0x18 }
  - { offset: 0x126938, size: 0x8, addend: 0x0, symName: '__ZN74_$LT$core..cell..RefMut$LT$T$GT$$u20$as$u20$core..ops..deref..DerefMut$GT$9deref_mut17h57c48c5cc4fa51a6E', symObjAddr: 0x67D0, symBinAddr: 0x37584, symSize: 0x18 }
  - { offset: 0x1269A8, size: 0x8, addend: 0x0, symName: '__ZN63_$LT$core..cell..BorrowRef$u20$as$u20$core..ops..drop..Drop$GT$4drop17h051e0db9f8f650b2E', symObjAddr: 0x4D38, symBinAddr: 0x37444, symSize: 0x28 }
  - { offset: 0x126A18, size: 0x8, addend: 0x0, symName: '__ZN66_$LT$core..cell..BorrowRefMut$u20$as$u20$core..ops..drop..Drop$GT$4drop17hde9a5e5c8c2d1e02E', symObjAddr: 0x534C, symBinAddr: 0x3746C, symSize: 0x28 }
  - { offset: 0x126A88, size: 0x8, addend: 0x0, symName: '__ZN68_$LT$core..cell..Ref$LT$T$GT$$u20$as$u20$core..ops..deref..Deref$GT$5deref17hb6d262af93e1ed75E', symObjAddr: 0x588C, symBinAddr: 0x37494, symSize: 0x18 }
  - { offset: 0x126B35, size: 0x8, addend: 0x0, symName: '__ZN71_$LT$core..cell..RefMut$LT$T$GT$$u20$as$u20$core..ops..deref..Deref$GT$5deref17h24306c1cc3b58fe6E', symObjAddr: 0x6520, symBinAddr: 0x3753C, symSize: 0x18 }
  - { offset: 0x126B81, size: 0x8, addend: 0x0, symName: '__ZN71_$LT$core..cell..RefMut$LT$T$GT$$u20$as$u20$core..ops..deref..Deref$GT$5deref17h9b4f72287c791e62E', symObjAddr: 0x6538, symBinAddr: 0x37554, symSize: 0x18 }
  - { offset: 0x12821A, size: 0x8, addend: 0x0, symName: __ZN4core3cmp3Ord3max17h40c48fd63dbfabe0E, symObjAddr: 0x8D4, symBinAddr: 0x3671C, symSize: 0x74 }
  - { offset: 0x128288, size: 0x8, addend: 0x0, symName: __ZN4core3cmp3Ord3min17h6f36141d08bc48d4E, symObjAddr: 0x9BC, symBinAddr: 0x36790, symSize: 0x74 }
  - { offset: 0x1282FD, size: 0x8, addend: 0x0, symName: __ZN4core3mem4drop17hb5c12e28ffaddd9dE, symObjAddr: 0xA60, symBinAddr: 0x36804, symSize: 0x28 }
  - { offset: 0x128363, size: 0x8, addend: 0x0, symName: __ZN4core3mem4take17h38f70a5dcb3c3813E, symObjAddr: 0xA88, symBinAddr: 0x3682C, symSize: 0x58 }
  - { offset: 0x1283F3, size: 0x8, addend: 0x0, symName: __ZN4core3mem4take17h7107e03113cc0f7fE, symObjAddr: 0xAE0, symBinAddr: 0x36884, symSize: 0x54 }
  - { offset: 0x128483, size: 0x8, addend: 0x0, symName: __ZN4core3mem4take17ha9467214a3e1d373E, symObjAddr: 0xB34, symBinAddr: 0x368D8, symSize: 0x54 }
  - { offset: 0x1284E0, size: 0x8, addend: 0x0, symName: __ZN4core3mem6forget17h06f0fc3a1b5b2ed0E, symObjAddr: 0xB98, symBinAddr: 0x3692C, symSize: 0x10 }
  - { offset: 0x128511, size: 0x8, addend: 0x0, symName: __ZN4core3mem6forget17h16dfc0c87d68602dE, symObjAddr: 0xBA8, symBinAddr: 0x3693C, symSize: 0x4 }
  - { offset: 0x12853F, size: 0x8, addend: 0x0, symName: __ZN4core3mem6forget17h66629005f7af1be8E, symObjAddr: 0xBCC, symBinAddr: 0x36940, symSize: 0x10 }
  - { offset: 0x128570, size: 0x8, addend: 0x0, symName: __ZN4core3mem6forget17h7d5bda4797fc3edfE, symObjAddr: 0xBF0, symBinAddr: 0x36950, symSize: 0x14 }
  - { offset: 0x1285A1, size: 0x8, addend: 0x0, symName: __ZN4core3mem6forget17h9cdb91b949204ba1E, symObjAddr: 0xC04, symBinAddr: 0x36964, symSize: 0x14 }
  - { offset: 0x1285D2, size: 0x8, addend: 0x0, symName: __ZN4core3mem6forget17hcfb5aebcb44f5dd6E, symObjAddr: 0xC2C, symBinAddr: 0x36978, symSize: 0x10 }
  - { offset: 0x128603, size: 0x8, addend: 0x0, symName: __ZN4core3mem6forget17hdf3342a9b5521273E, symObjAddr: 0xC3C, symBinAddr: 0x36988, symSize: 0x10 }
  - { offset: 0x128634, size: 0x8, addend: 0x0, symName: __ZN4core3mem6forget17hfe0920529e87e64bE, symObjAddr: 0xC4C, symBinAddr: 0x36998, symSize: 0x10 }
  - { offset: 0x128D19, size: 0x8, addend: 0x0, symName: __ZN4core5alloc6layout6Layout25from_size_align_unchecked18precondition_check17h2093aa64c3adecceE, symObjAddr: 0xFDC, symBinAddr: 0x36D04, symSize: 0xBC }
  - { offset: 0x128E33, size: 0x8, addend: 0x0, symName: '__ZN4core5slice29_$LT$impl$u20$$u5b$T$u5d$$GT$4iter17h90567e831344b374E', symObjAddr: 0x11CC, symBinAddr: 0x36DC0, symSize: 0x28 }
  - { offset: 0x128E6A, size: 0x8, addend: 0x0, symName: '__ZN4core5slice29_$LT$impl$u20$$u5b$T$u5d$$GT$8is_empty17h6b01c94100175122E', symObjAddr: 0x11F4, symBinAddr: 0x36DE8, symSize: 0x1C }
  - { offset: 0x128F05, size: 0x8, addend: 0x0, symName: '__ZN50_$LT$T$u20$as$u20$core..convert..Into$LT$U$GT$$GT$4into17hbce19a377eb2bb6aE', symObjAddr: 0x33D0, symBinAddr: 0x372F4, symSize: 0x24 }
  - { offset: 0x129B5D, size: 0x8, addend: 0x0, symName: __ZN15portable_atomic5utils32assert_compare_exchange_ordering17h2bf454c4b55053c6E, symObjAddr: 0x1F0, symBinAddr: 0x365B0, symSize: 0xA4 }
  - { offset: 0x12A0B9, size: 0x8, addend: 0x0, symName: '__ZN5alloc3str56_$LT$impl$u20$alloc..borrow..ToOwned$u20$for$u20$str$GT$8to_owned17h2aadb5ac5f5233f6E', symObjAddr: 0x4700, symBinAddr: 0x373F4, symSize: 0x50 }
  - { offset: 0x12A2C6, size: 0x8, addend: 0x0, symName: '__ZN71_$LT$alloc..sync..Arc$LT$T$C$A$GT$$u20$as$u20$core..ops..drop..Drop$GT$4drop17h993a5757513ad312E', symObjAddr: 0x64A4, symBinAddr: 0x374C0, symSize: 0x7C }
  - { offset: 0x12A53B, size: 0x8, addend: 0x0, symName: '__ZN4core4cell13Cell$LT$T$GT$3get17had543fd2b66a1e76E', symObjAddr: 0xC5C, symBinAddr: 0x369A8, symSize: 0x18 }
  - { offset: 0x12A574, size: 0x8, addend: 0x0, symName: '__ZN4core4cell13Cell$LT$T$GT$3get17hda58a4fcd04c7b2aE', symObjAddr: 0xC74, symBinAddr: 0x369C0, symSize: 0x18 }
  - { offset: 0x12A5C8, size: 0x8, addend: 0x0, symName: '__ZN4core4cell13Cell$LT$T$GT$3set17h4ba2f640ae2dcf54E', symObjAddr: 0xC8C, symBinAddr: 0x369D8, symSize: 0x1C }
  - { offset: 0x12A666, size: 0x8, addend: 0x0, symName: '__ZN4core4cell13Cell$LT$T$GT$3set17h81a83c16cc8781eaE', symObjAddr: 0xCA8, symBinAddr: 0x369F4, symSize: 0x1C }
  - { offset: 0x12A838, size: 0x8, addend: 0x0, symName: '__ZN4core4cell16RefCell$LT$T$GT$10borrow_mut17h6bf854705fc8ed51E', symObjAddr: 0xCE8, symBinAddr: 0x36A10, symSize: 0xAC }
  - { offset: 0x12AB2A, size: 0x8, addend: 0x0, symName: '__ZN4core4cell16RefCell$LT$T$GT$10borrow_mut17he08d243bac5ae1aeE', symObjAddr: 0xD94, symBinAddr: 0x36ABC, symSize: 0xAC }
  - { offset: 0x12AD2D, size: 0x8, addend: 0x0, symName: '__ZN4core4cell16RefCell$LT$T$GT$6borrow17h9b549c209be0fd45E', symObjAddr: 0xE40, symBinAddr: 0x36B68, symSize: 0xC0 }
  - { offset: 0x12AEDD, size: 0x8, addend: 0x0, symName: '__ZN4core4cell16RefCell$LT$T$GT$7replace17hc5e5669b192bd48fE', symObjAddr: 0xF00, symBinAddr: 0x36C28, symSize: 0xDC }
  - { offset: 0x12B048, size: 0x8, addend: 0x0, symName: __ZN4pyo35panic14PanicException15type_object_raw17h1e4d1d35dd5d62c7E, symObjAddr: 0x13CC, symBinAddr: 0x36ED4, symSize: 0x2C }
  - { offset: 0x12B0EB, size: 0x8, addend: 0x0, symName: __ZN4pyo35panic14PanicException18from_panic_payload17h61d886910d07a141E, symObjAddr: 0x146C, symBinAddr: 0x9E8D4, symSize: 0x144 }
  - { offset: 0x12B14A, size: 0x8, addend: 0x0, symName: __ZN4pyo35panic14PanicException7new_err17h45cae3255fde0c42E, symObjAddr: 0x15B0, symBinAddr: 0x36F74, symSize: 0x34 }
  - { offset: 0x12B189, size: 0x8, addend: 0x0, symName: __ZN4pyo35panic14PanicException7new_err17h5e52de36ae5edb8eE, symObjAddr: 0x15E4, symBinAddr: 0x36FA8, symSize: 0x28 }
  - { offset: 0x12B1F9, size: 0x8, addend: 0x0, symName: __ZN4pyo35types4dict14PyDictIterator14next_unchecked17hbf262b2476b12d13E, symObjAddr: 0x1CE8, symBinAddr: 0x36FD0, symSize: 0xB0 }
  - { offset: 0x12B283, size: 0x8, addend: 0x0, symName: __ZN4pyo35types4dict6PyDict3new17h90113a6f9e226485E, symObjAddr: 0x1F9C, symBinAddr: 0x37080, symSize: 0x20 }
  - { offset: 0x12B2B0, size: 0x8, addend: 0x0, symName: __ZN4pyo35types4dict6PyDict4_len17hf25fb0ada3942cd0E, symObjAddr: 0x1FBC, symBinAddr: 0x370A0, symSize: 0x84 }
  - { offset: 0x12B2D2, size: 0x8, addend: 0x0, symName: __ZN4pyo35types4dict6PyDict4iter17h99b38ddb86c7685cE, symObjAddr: 0x2088, symBinAddr: 0x37124, symSize: 0x24 }
  - { offset: 0x12B30F, size: 0x8, addend: 0x0, symName: __ZN4pyo35types4none6PyNone3get17h75e192722aed57afE, symObjAddr: 0x269C, symBinAddr: 0x37244, symSize: 0x20 }
  - { offset: 0x12B7DB, size: 0x8, addend: 0x0, symName: '__ZN5alloc6string94_$LT$impl$u20$core..convert..From$LT$$RF$str$GT$$u20$for$u20$alloc..borrow..Cow$LT$str$GT$$GT$4from17haf4593f588d444c2E', symObjAddr: 0x5C70, symBinAddr: 0x38F44, symSize: 0x2C }
  - { offset: 0x12BB6E, size: 0x8, addend: 0x0, symName: '__ZN5alloc5slice29_$LT$impl$u20$$u5b$T$u5d$$GT$6to_vec17h553fcebca2774954E', symObjAddr: 0x5C48, symBinAddr: 0x38F1C, symSize: 0x28 }
  - { offset: 0x12BBD5, size: 0x8, addend: 0x0, symName: '__ZN87_$LT$T$u20$as$u20$alloc..slice..$LT$impl$u20$$u5b$T$u5d$$GT$..to_vec_in..ConvertVec$GT$6to_vec17hfadf3fee3a878e2fE', symObjAddr: 0x6660, symBinAddr: 0x3922C, symSize: 0xF4 }
  - { offset: 0x12BE89, size: 0x8, addend: 0x0, symName: '__ZN66_$LT$alloc..borrow..Cow$LT$B$GT$$u20$as$u20$core..fmt..Display$GT$3fmt17h211fc51da364f35eE', symObjAddr: 0x5C9C, symBinAddr: 0x38F70, symSize: 0x84 }
  - { offset: 0x12BF41, size: 0x8, addend: 0x0, symName: '__ZN71_$LT$alloc..borrow..Cow$LT$B$GT$$u20$as$u20$core..ops..deref..Deref$GT$5deref17h4dac52d3c77b1da7E', symObjAddr: 0x5F9C, symBinAddr: 0x390EC, symSize: 0x70 }
  - { offset: 0x12BF96, size: 0x8, addend: 0x0, symName: '__ZN71_$LT$alloc..borrow..Cow$LT$B$GT$$u20$as$u20$core..ops..deref..Deref$GT$5deref17hea20c304d99496c3E', symObjAddr: 0x600C, symBinAddr: 0x3915C, symSize: 0x78 }
  - { offset: 0x12CEAA, size: 0x8, addend: 0x0, symName: '__ZN145_$LT$core..option..Option$LT$T$GT$$u20$as$u20$core..ops..try_trait..FromResidual$LT$core..option..Option$LT$core..convert..Infallible$GT$$GT$$GT$13from_residual17h253faf19943fbec4E', symObjAddr: 0xE8, symBinAddr: 0x37690, symSize: 0x10 }
  - { offset: 0x12CEDD, size: 0x8, addend: 0x0, symName: '__ZN145_$LT$core..option..Option$LT$T$GT$$u20$as$u20$core..ops..try_trait..FromResidual$LT$core..option..Option$LT$core..convert..Infallible$GT$$GT$$GT$13from_residual17h29d1db17d1a0533cE', symObjAddr: 0xF8, symBinAddr: 0x376A0, symSize: 0x10 }
  - { offset: 0x12CF10, size: 0x8, addend: 0x0, symName: '__ZN145_$LT$core..option..Option$LT$T$GT$$u20$as$u20$core..ops..try_trait..FromResidual$LT$core..option..Option$LT$core..convert..Infallible$GT$$GT$$GT$13from_residual17h2d706aca37d196edE', symObjAddr: 0x108, symBinAddr: 0x376B0, symSize: 0x10 }
  - { offset: 0x12CF43, size: 0x8, addend: 0x0, symName: '__ZN145_$LT$core..option..Option$LT$T$GT$$u20$as$u20$core..ops..try_trait..FromResidual$LT$core..option..Option$LT$core..convert..Infallible$GT$$GT$$GT$13from_residual17h48499c9a7499054fE', symObjAddr: 0x128, symBinAddr: 0x376C0, symSize: 0x10 }
  - { offset: 0x12CF76, size: 0x8, addend: 0x0, symName: '__ZN145_$LT$core..option..Option$LT$T$GT$$u20$as$u20$core..ops..try_trait..FromResidual$LT$core..option..Option$LT$core..convert..Infallible$GT$$GT$$GT$13from_residual17h5635073f499cfe89E', symObjAddr: 0x148, symBinAddr: 0x376D0, symSize: 0x10 }
  - { offset: 0x12CFA9, size: 0x8, addend: 0x0, symName: '__ZN145_$LT$core..option..Option$LT$T$GT$$u20$as$u20$core..ops..try_trait..FromResidual$LT$core..option..Option$LT$core..convert..Infallible$GT$$GT$$GT$13from_residual17hb7351efa253c53beE', symObjAddr: 0x1F8, symBinAddr: 0x376E0, symSize: 0x10 }
  - { offset: 0x12CFDC, size: 0x8, addend: 0x0, symName: '__ZN145_$LT$core..option..Option$LT$T$GT$$u20$as$u20$core..ops..try_trait..FromResidual$LT$core..option..Option$LT$core..convert..Infallible$GT$$GT$$GT$13from_residual17hde8c38d5342ff10bE', symObjAddr: 0x230, symBinAddr: 0x376F0, symSize: 0x10 }
  - { offset: 0x12F4BA, size: 0x8, addend: 0x0, symName: '__ZN66_$LT$core..option..Option$LT$T$GT$$u20$as$u20$core..fmt..Debug$GT$3fmt17h148b2a02e2ce85bdE', symObjAddr: 0x5D20, symBinAddr: 0x38FF4, symSize: 0x9C }
  - { offset: 0x12F524, size: 0x8, addend: 0x0, symName: '__ZN68_$LT$core..option..Option$LT$T$GT$$u20$as$u20$core..clone..Clone$GT$5clone17h328de39e43d347d7E', symObjAddr: 0x5F14, symBinAddr: 0x39090, symSize: 0x5C }
  - { offset: 0x12F57F, size: 0x8, addend: 0x0, symName: '__ZN72_$LT$core..option..Option$LT$T$GT$$u20$as$u20$core..default..Default$GT$7default17h16e4af88a7aaed1dE', symObjAddr: 0x6084, symBinAddr: 0x391D4, symSize: 0x8 }
  - { offset: 0x12F5A7, size: 0x8, addend: 0x0, symName: '__ZN72_$LT$core..option..Option$LT$T$GT$$u20$as$u20$core..default..Default$GT$7default17h58ee0516b75f6602E', symObjAddr: 0x608C, symBinAddr: 0x391DC, symSize: 0x8 }
  - { offset: 0x12F5CF, size: 0x8, addend: 0x0, symName: '__ZN72_$LT$core..option..Option$LT$T$GT$$u20$as$u20$core..default..Default$GT$7default17h6e3f39c7bb7e64a2E', symObjAddr: 0x6094, symBinAddr: 0x391E4, symSize: 0x8 }
  - { offset: 0x12F5FD, size: 0x8, addend: 0x0, symName: '__ZN75_$LT$core..option..Option$LT$T$GT$$u20$as$u20$core..ops..try_trait..Try$GT$6branch17hcffa77382935fa84E', symObjAddr: 0x648C, symBinAddr: 0x391EC, symSize: 0x40 }
  - { offset: 0x12F7B2, size: 0x8, addend: 0x0, symName: '__ZN4core5slice4iter87_$LT$impl$u20$core..iter..traits..collect..IntoIterator$u20$for$u20$$RF$$u5b$T$u5d$$GT$9into_iter17hfd1ba33d613b1b8aE', symObjAddr: 0x11C4, symBinAddr: 0x37754, symSize: 0x50 }
  - { offset: 0x12F95A, size: 0x8, addend: 0x0, symName: '__ZN50_$LT$T$u20$as$u20$core..convert..Into$LT$U$GT$$GT$4into17h3df70c379943006fE', symObjAddr: 0x5B38, symBinAddr: 0x38F08, symSize: 0x14 }
  - { offset: 0x130223, size: 0x8, addend: 0x0, symName: __ZN4core10intrinsics11rotate_left17h87bd0e02c934c747E, symObjAddr: 0xFB8, symBinAddr: 0x37700, symSize: 0x54 }
  - { offset: 0x13159E, size: 0x8, addend: 0x0, symName: __ZN8pyo3_ffi13unicodeobject15PyUnicode_Check17hb8c96cd418e7b4d9E, symObjAddr: 0x67B8, symBinAddr: 0x39320, symSize: 0x30 }
  - { offset: 0x131CD9, size: 0x8, addend: 0x0, symName: '__ZN4core6option15Option$LT$T$GT$10ok_or_else17h2477a3c6cc652e00E', symObjAddr: 0x1300, symBinAddr: 0x377A4, symSize: 0x80 }
  - { offset: 0x131D51, size: 0x8, addend: 0x0, symName: '__ZN4core6option15Option$LT$T$GT$10ok_or_else17h82e879e4fc709ceaE', symObjAddr: 0x1580, symBinAddr: 0x37824, symSize: 0x80 }
  - { offset: 0x131E08, size: 0x8, addend: 0x0, symName: '__ZN4core6option15Option$LT$T$GT$11map_or_else17ha8fc95752938809aE', symObjAddr: 0x1B00, symBinAddr: 0x378A4, symSize: 0xC0 }
  - { offset: 0x131EC3, size: 0x8, addend: 0x0, symName: '__ZN4core6option15Option$LT$T$GT$14unwrap_or_else17h018dd3e3c8eae5aeE', symObjAddr: 0x1C90, symBinAddr: 0x37964, symSize: 0x58 }
  - { offset: 0x131F07, size: 0x8, addend: 0x0, symName: '__ZN4core6option15Option$LT$T$GT$14unwrap_or_else17h3c20aff6f2eb0f16E', symObjAddr: 0x1D40, symBinAddr: 0x379BC, symSize: 0x58 }
  - { offset: 0x131F58, size: 0x8, addend: 0x0, symName: '__ZN4core6option15Option$LT$T$GT$14unwrap_or_else17h3d07b534ff202b4eE', symObjAddr: 0x1DF0, symBinAddr: 0x37A14, symSize: 0x58 }
  - { offset: 0x131F9C, size: 0x8, addend: 0x0, symName: '__ZN4core6option15Option$LT$T$GT$14unwrap_or_else17h43a6053970cabc0cE', symObjAddr: 0x1E48, symBinAddr: 0x37A6C, symSize: 0x58 }
  - { offset: 0x131FED, size: 0x8, addend: 0x0, symName: '__ZN4core6option15Option$LT$T$GT$14unwrap_or_else17h9d9abf8b28bf2715E', symObjAddr: 0x1FA4, symBinAddr: 0x37AC4, symSize: 0x58 }
  - { offset: 0x132031, size: 0x8, addend: 0x0, symName: '__ZN4core6option15Option$LT$T$GT$14unwrap_or_else17hbad518e82eedaadbE', symObjAddr: 0x20AC, symBinAddr: 0x37B1C, symSize: 0x58 }
  - { offset: 0x132075, size: 0x8, addend: 0x0, symName: '__ZN4core6option15Option$LT$T$GT$14unwrap_or_else17he1398e5c37cef0d1E', symObjAddr: 0x21B4, symBinAddr: 0x37B74, symSize: 0x58 }
  - { offset: 0x1320B9, size: 0x8, addend: 0x0, symName: '__ZN4core6option15Option$LT$T$GT$14unwrap_or_else17he250b77a4012a11eE', symObjAddr: 0x220C, symBinAddr: 0x37BCC, symSize: 0x60 }
  - { offset: 0x13210B, size: 0x8, addend: 0x0, symName: '__ZN4core6option15Option$LT$T$GT$14unwrap_or_else17he2bb503b2ec12c0eE', symObjAddr: 0x226C, symBinAddr: 0x37C2C, symSize: 0x58 }
  - { offset: 0x13215C, size: 0x8, addend: 0x0, symName: '__ZN4core6option15Option$LT$T$GT$14unwrap_or_else17hedbb0e1bf58e3340E', symObjAddr: 0x22C4, symBinAddr: 0x37C84, symSize: 0x58 }
  - { offset: 0x1321CB, size: 0x8, addend: 0x0, symName: '__ZN4core6option15Option$LT$T$GT$3map17h1151c45c2a429617E', symObjAddr: 0x23D0, symBinAddr: 0x37CDC, symSize: 0x50 }
  - { offset: 0x132236, size: 0x8, addend: 0x0, symName: '__ZN4core6option15Option$LT$T$GT$3map17h23f297b0ef144368E', symObjAddr: 0x2420, symBinAddr: 0x37D2C, symSize: 0x50 }
  - { offset: 0x1322FE, size: 0x8, addend: 0x0, symName: '__ZN4core6option15Option$LT$T$GT$3map17h275207bc194803acE', symObjAddr: 0x2470, symBinAddr: 0x37D7C, symSize: 0x7C }
  - { offset: 0x132369, size: 0x8, addend: 0x0, symName: '__ZN4core6option15Option$LT$T$GT$3map17h2b13a9193a77df55E', symObjAddr: 0x24EC, symBinAddr: 0x37DF8, symSize: 0x74 }
  - { offset: 0x1323D5, size: 0x8, addend: 0x0, symName: '__ZN4core6option15Option$LT$T$GT$3map17h3157baec5166ec5fE', symObjAddr: 0x25CC, symBinAddr: 0x37E6C, symSize: 0x5C }
  - { offset: 0x13244D, size: 0x8, addend: 0x0, symName: '__ZN4core6option15Option$LT$T$GT$3map17h389d389707f3eaf0E', symObjAddr: 0x2628, symBinAddr: 0x37EC8, symSize: 0x50 }
  - { offset: 0x1324B8, size: 0x8, addend: 0x0, symName: '__ZN4core6option15Option$LT$T$GT$3map17h3d37e1cd854d0376E', symObjAddr: 0x2678, symBinAddr: 0x37F18, symSize: 0x5C }
  - { offset: 0x132523, size: 0x8, addend: 0x0, symName: '__ZN4core6option15Option$LT$T$GT$3map17h4aad55c9d55c581aE', symObjAddr: 0x27AC, symBinAddr: 0x37F74, symSize: 0x50 }
  - { offset: 0x13259B, size: 0x8, addend: 0x0, symName: '__ZN4core6option15Option$LT$T$GT$3map17h609348f0c89d2cadE', symObjAddr: 0x28C4, symBinAddr: 0x37FC4, symSize: 0x5C }
  - { offset: 0x132606, size: 0x8, addend: 0x0, symName: '__ZN4core6option15Option$LT$T$GT$3map17h81caf62df06b4012E', symObjAddr: 0x2A54, symBinAddr: 0x38020, symSize: 0x50 }
  - { offset: 0x132689, size: 0x8, addend: 0x0, symName: '__ZN4core6option15Option$LT$T$GT$3map17h8864d2cb6b5e18f6E', symObjAddr: 0x2B10, symBinAddr: 0x38070, symSize: 0x70 }
  - { offset: 0x13270C, size: 0x8, addend: 0x0, symName: '__ZN4core6option15Option$LT$T$GT$3map17ha88cb232594a52e1E', symObjAddr: 0x2C58, symBinAddr: 0x380E0, symSize: 0x5C }
  - { offset: 0x13278F, size: 0x8, addend: 0x0, symName: '__ZN4core6option15Option$LT$T$GT$3map17hbd2f971e8caabe00E', symObjAddr: 0x2E14, symBinAddr: 0x3813C, symSize: 0x64 }
  - { offset: 0x1327FA, size: 0x8, addend: 0x0, symName: '__ZN4core6option15Option$LT$T$GT$3map17hc2c9e45e5c2f90bfE', symObjAddr: 0x2E78, symBinAddr: 0x381A0, symSize: 0x6C }
  - { offset: 0x132865, size: 0x8, addend: 0x0, symName: '__ZN4core6option15Option$LT$T$GT$3map17hc93e38cbea07e08dE', symObjAddr: 0x2F34, symBinAddr: 0x3820C, symSize: 0x50 }
  - { offset: 0x1328E8, size: 0x8, addend: 0x0, symName: '__ZN4core6option15Option$LT$T$GT$3map17hcb1bba296fd68d7dE', symObjAddr: 0x2F84, symBinAddr: 0x3825C, symSize: 0x88 }
  - { offset: 0x132954, size: 0x8, addend: 0x0, symName: '__ZN4core6option15Option$LT$T$GT$3map17hcc8d4384a4d082fbE', symObjAddr: 0x300C, symBinAddr: 0x382E4, symSize: 0x5C }
  - { offset: 0x1329CC, size: 0x8, addend: 0x0, symName: '__ZN4core6option15Option$LT$T$GT$3map17hdfa0aa9f02030df3E', symObjAddr: 0x30D4, symBinAddr: 0x38340, symSize: 0x50 }
  - { offset: 0x132A37, size: 0x8, addend: 0x0, symName: '__ZN4core6option15Option$LT$T$GT$3map17hed91727bf206e46dE', symObjAddr: 0x3124, symBinAddr: 0x38390, symSize: 0x5C }
  - { offset: 0x132AAF, size: 0x8, addend: 0x0, symName: '__ZN4core6option15Option$LT$T$GT$4take17h197a09d57581e89bE', symObjAddr: 0x31EC, symBinAddr: 0x383EC, symSize: 0x3C }
  - { offset: 0x132B06, size: 0x8, addend: 0x0, symName: '__ZN4core6option15Option$LT$T$GT$4take17h19f75afee1225b04E', symObjAddr: 0x3228, symBinAddr: 0x38428, symSize: 0x20 }
  - { offset: 0x132B5D, size: 0x8, addend: 0x0, symName: '__ZN4core6option15Option$LT$T$GT$4take17h96baa1a7f5cd30ceE', symObjAddr: 0x3248, symBinAddr: 0x38448, symSize: 0x20 }
  - { offset: 0x132BC1, size: 0x8, addend: 0x0, symName: '__ZN4core6option15Option$LT$T$GT$6as_ref17h5ae65bd6cf2aa84aE', symObjAddr: 0x32E8, symBinAddr: 0x38468, symSize: 0x4C }
  - { offset: 0x132C18, size: 0x8, addend: 0x0, symName: '__ZN4core6option15Option$LT$T$GT$6as_ref17h87bd901eb360ad56E', symObjAddr: 0x3334, symBinAddr: 0x384B4, symSize: 0x48 }
  - { offset: 0x132C7C, size: 0x8, addend: 0x0, symName: '__ZN4core6option15Option$LT$T$GT$6as_ref17h90b1b922cd788092E', symObjAddr: 0x337C, symBinAddr: 0x384FC, symSize: 0x4C }
  - { offset: 0x132CE0, size: 0x8, addend: 0x0, symName: '__ZN4core6option15Option$LT$T$GT$6as_ref17hd7b2b2bc2d0dde37E', symObjAddr: 0x33C8, symBinAddr: 0x38548, symSize: 0x4C }
  - { offset: 0x132D44, size: 0x8, addend: 0x0, symName: '__ZN4core6option15Option$LT$T$GT$6as_ref17hda0b26dfee17733aE', symObjAddr: 0x3414, symBinAddr: 0x38594, symSize: 0x4C }
  - { offset: 0x132D9B, size: 0x8, addend: 0x0, symName: '__ZN4core6option15Option$LT$T$GT$6as_ref17he590fe8df7a451abE', symObjAddr: 0x3460, symBinAddr: 0x385E0, symSize: 0x4C }
  - { offset: 0x132DFF, size: 0x8, addend: 0x0, symName: '__ZN4core6option15Option$LT$T$GT$6as_ref17hf7ed06aabcd3e285E', symObjAddr: 0x34AC, symBinAddr: 0x3862C, symSize: 0x4C }
  - { offset: 0x132EAF, size: 0x8, addend: 0x0, symName: '__ZN4core6option15Option$LT$T$GT$6as_ref17hfa7e259650b9d899E', symObjAddr: 0x34F8, symBinAddr: 0x38678, symSize: 0x50 }
  - { offset: 0x132EF9, size: 0x8, addend: 0x0, symName: '__ZN4core6option15Option$LT$T$GT$6expect17h22bb61b567c15f69E', symObjAddr: 0x3548, symBinAddr: 0x386C8, symSize: 0x70 }
  - { offset: 0x132F35, size: 0x8, addend: 0x0, symName: '__ZN4core6option15Option$LT$T$GT$6expect17hc476e737ba3b0003E', symObjAddr: 0x35B8, symBinAddr: 0x38738, symSize: 0x5C }
  - { offset: 0x132F70, size: 0x8, addend: 0x0, symName: '__ZN4core6option15Option$LT$T$GT$6expect17hf9c7a1805076f76bE', symObjAddr: 0x3614, symBinAddr: 0x38794, symSize: 0x5C }
  - { offset: 0x132FAB, size: 0x8, addend: 0x0, symName: '__ZN4core6option15Option$LT$T$GT$6map_or17h035b8094fd163ddcE', symObjAddr: 0x3670, symBinAddr: 0x387F0, symSize: 0x9C }
  - { offset: 0x133035, size: 0x8, addend: 0x0, symName: '__ZN4core6option15Option$LT$T$GT$6map_or17h39e147a4b6c2b740E', symObjAddr: 0x370C, symBinAddr: 0x3888C, symSize: 0x9C }
  - { offset: 0x1330BF, size: 0x8, addend: 0x0, symName: '__ZN4core6option15Option$LT$T$GT$6map_or17h90986fa9211837e0E', symObjAddr: 0x3844, symBinAddr: 0x38928, symSize: 0x9C }
  - { offset: 0x133150, size: 0x8, addend: 0x0, symName: '__ZN4core6option15Option$LT$T$GT$6map_or17hb2f8102e99078b53E', symObjAddr: 0x3A28, symBinAddr: 0x389C4, symSize: 0xA8 }
  - { offset: 0x1331DA, size: 0x8, addend: 0x0, symName: '__ZN4core6option15Option$LT$T$GT$6map_or17hcaa4a70548513154E', symObjAddr: 0x3AD0, symBinAddr: 0x38A6C, symSize: 0x9C }
  - { offset: 0x133268, size: 0x8, addend: 0x0, symName: '__ZN4core6option15Option$LT$T$GT$7is_none17h11efb6462584911eE', symObjAddr: 0x3CA4, symBinAddr: 0x38B08, symSize: 0x28 }
  - { offset: 0x1332CE, size: 0x8, addend: 0x0, symName: '__ZN4core6option15Option$LT$T$GT$7is_none17hd44eee6003b29a25E', symObjAddr: 0x3CCC, symBinAddr: 0x38B30, symSize: 0x28 }
  - { offset: 0x133341, size: 0x8, addend: 0x0, symName: '__ZN4core6option15Option$LT$T$GT$7is_none17hdd6dc5b4c3fddd87E', symObjAddr: 0x3CF4, symBinAddr: 0x38B58, symSize: 0x28 }
  - { offset: 0x133398, size: 0x8, addend: 0x0, symName: '__ZN4core6option15Option$LT$T$GT$7is_some17h40e18abf86020293E', symObjAddr: 0x3D1C, symBinAddr: 0x38B80, symSize: 0x20 }
  - { offset: 0x1333C4, size: 0x8, addend: 0x0, symName: '__ZN4core6option15Option$LT$T$GT$7is_some17h41d0dd8c32dd70f5E', symObjAddr: 0x3D3C, symBinAddr: 0x38BA0, symSize: 0x28 }
  - { offset: 0x1333F0, size: 0x8, addend: 0x0, symName: '__ZN4core6option15Option$LT$T$GT$7is_some17h4af4ecf874134592E', symObjAddr: 0x3D64, symBinAddr: 0x38BC8, symSize: 0x28 }
  - { offset: 0x13341C, size: 0x8, addend: 0x0, symName: '__ZN4core6option15Option$LT$T$GT$7is_some17h61614edb1adc1927E', symObjAddr: 0x3D8C, symBinAddr: 0x38BF0, symSize: 0x24 }
  - { offset: 0x133448, size: 0x8, addend: 0x0, symName: '__ZN4core6option15Option$LT$T$GT$7is_some17h8a78d3e1c20bd110E', symObjAddr: 0x3DB0, symBinAddr: 0x38C14, symSize: 0x28 }
  - { offset: 0x133481, size: 0x8, addend: 0x0, symName: '__ZN4core6option15Option$LT$T$GT$7is_some17hb071b28a0404ad97E', symObjAddr: 0x3DD8, symBinAddr: 0x38C3C, symSize: 0x28 }
  - { offset: 0x1334AD, size: 0x8, addend: 0x0, symName: '__ZN4core6option15Option$LT$T$GT$7is_some17hb833b0239e694cedE', symObjAddr: 0x3E00, symBinAddr: 0x38C64, symSize: 0x28 }
  - { offset: 0x1334D9, size: 0x8, addend: 0x0, symName: '__ZN4core6option15Option$LT$T$GT$7is_some17he4213fa142113f44E', symObjAddr: 0x3E28, symBinAddr: 0x38C8C, symSize: 0x2C }
  - { offset: 0x133505, size: 0x8, addend: 0x0, symName: '__ZN4core6option15Option$LT$T$GT$8and_then17hbc3790e37c42bc75E', symObjAddr: 0x3F04, symBinAddr: 0x38CB8, symSize: 0x5C }
  - { offset: 0x13362A, size: 0x8, addend: 0x0, symName: '__ZN4core6option15Option$LT$T$GT$8as_deref17h0d268de5952c4909E', symObjAddr: 0x3F60, symBinAddr: 0x38D14, symSize: 0x74 }
  - { offset: 0x1336DA, size: 0x8, addend: 0x0, symName: '__ZN4core6option15Option$LT$T$GT$9unwrap_or17hac1123ae754658a0E', symObjAddr: 0x401C, symBinAddr: 0x38D88, symSize: 0x48 }
  - { offset: 0x133715, size: 0x8, addend: 0x0, symName: '__ZN4core6option15Option$LT$T$GT$9unwrap_or17hfdc91bd097788365E', symObjAddr: 0x40A8, symBinAddr: 0x38DD0, symSize: 0x68 }
  - { offset: 0x133750, size: 0x8, addend: 0x0, symName: '__ZN4core6option47Option$LT$core..result..Result$LT$T$C$E$GT$$GT$9transpose17h4a255e08e0a1bf7fE', symObjAddr: 0x4110, symBinAddr: 0x38E38, symSize: 0xD0 }
  - { offset: 0x133982, size: 0x8, addend: 0x0, symName: '__ZN96_$LT$core..option..Option$LT$T$GT$$u20$as$u20$parking_lot..util..UncheckedOptionExt$LT$T$GT$$GT$16unchecked_unwrap17h0a836a7974b3bf9cE', symObjAddr: 0x6858, symBinAddr: 0x39350, symSize: 0x2C }
  - { offset: 0x1339B3, size: 0x8, addend: 0x0, symName: '__ZN96_$LT$core..option..Option$LT$T$GT$$u20$as$u20$parking_lot..util..UncheckedOptionExt$LT$T$GT$$GT$16unchecked_unwrap17h60f46e2197bbdb14E', symObjAddr: 0x6884, symBinAddr: 0x3937C, symSize: 0x2C }
  - { offset: 0x133ABD, size: 0x8, addend: 0x0, symName: __ZN9hashbrown7control5group4neon5Group10match_full17he192de7e38b8f7b3E, symObjAddr: 0x6D70, symBinAddr: 0x393A8, symSize: 0x68 }
  - { offset: 0x133AF5, size: 0x8, addend: 0x0, symName: __ZN9hashbrown7control5group4neon5Group22match_empty_or_deleted17h30a74cc888e40ea3E, symObjAddr: 0x6DD8, symBinAddr: 0x39410, symSize: 0x68 }
  - { offset: 0x133B2D, size: 0x8, addend: 0x0, symName: __ZN9hashbrown7control5group4neon5Group44convert_special_to_empty_and_full_to_deleted17hfe59c9040725395fE, symObjAddr: 0x6E40, symBinAddr: 0x39478, symSize: 0x88 }
  - { offset: 0x133B65, size: 0x8, addend: 0x0, symName: __ZN9hashbrown7control5group4neon5Group9match_tag17h4caf4866b1e28209E, symObjAddr: 0x6EC8, symBinAddr: 0x39500, symSize: 0x7C }
  - { offset: 0x135DBC, size: 0x8, addend: 0x0, symName: __ZN4core3ptr9alignment9Alignment13new_unchecked18precondition_check17hdaacc8f3715efd1fE, symObjAddr: 0x6B4, symBinAddr: 0x39A54, symSize: 0x70 }
  - { offset: 0x136B95, size: 0x8, addend: 0x0, symName: __ZN4core9panicking13assert_failed17hd0959aaa4fc261b5E, symObjAddr: 0x888, symBinAddr: 0x9EA18, symSize: 0x54 }
  - { offset: 0x136BFE, size: 0x8, addend: 0x0, symName: __ZN4core9panicking13assert_failed17hda05b705ab6843d6E, symObjAddr: 0x8DC, symBinAddr: 0x9EA6C, symSize: 0x54 }
  - { offset: 0x136C67, size: 0x8, addend: 0x0, symName: __ZN4core9panicking13panic_display17h3a50138e58187c70E, symObjAddr: 0x930, symBinAddr: 0x39B6C, symSize: 0x5C }
  - { offset: 0x136D56, size: 0x8, addend: 0x0, symName: __ZN4core4char7convert18from_u32_unchecked18precondition_check17hdaec2ec90896ded5E, symObjAddr: 0x724, symBinAddr: 0x39AC4, symSize: 0x7C }
  - { offset: 0x136F1C, size: 0x8, addend: 0x0, symName: __ZN4core4iter6traits8iterator8Iterator4take17h9c51c53d06c1d888E, symObjAddr: 0x808, symBinAddr: 0x39B40, symSize: 0x2C }
  - { offset: 0x136FB1, size: 0x8, addend: 0x0, symName: '__ZN72_$LT$$RF$mut$u20$I$u20$as$u20$core..iter..traits..iterator..Iterator$GT$4next17hdeab092c47c6efceE', symObjAddr: 0x12EC, symBinAddr: 0x39BC8, symSize: 0x34 }
  - { offset: 0x136FF4, size: 0x8, addend: 0x0, symName: '__ZN83_$LT$$RF$mut$u20$I$u20$as$u20$core..iter..traits..exact_size..ExactSizeIterator$GT$3len17hd3e3c44459f6f7fcE', symObjAddr: 0x13C8, symBinAddr: 0x39C38, symSize: 0x34 }
  - { offset: 0x13777B, size: 0x8, addend: 0x0, symName: __ZN3std9panicking12catch_unwind7do_call17h8c56d74d919752cdE, symObjAddr: 0xCC, symBinAddr: 0x3957C, symSize: 0x8C }
  - { offset: 0x137876, size: 0x8, addend: 0x0, symName: __ZN3std9panicking12catch_unwind7do_call17h9646e860128e7b63E, symObjAddr: 0x158, symBinAddr: 0x39608, symSize: 0x90 }
  - { offset: 0x137971, size: 0x8, addend: 0x0, symName: __ZN3std9panicking12catch_unwind7do_call17ha3bb75022d089d0fE, symObjAddr: 0x1E8, symBinAddr: 0x39698, symSize: 0x90 }
  - { offset: 0x137A6C, size: 0x8, addend: 0x0, symName: __ZN3std9panicking12catch_unwind7do_call17had71ad54cc03e906E, symObjAddr: 0x278, symBinAddr: 0x39728, symSize: 0x8C }
  - { offset: 0x137B67, size: 0x8, addend: 0x0, symName: __ZN3std9panicking12catch_unwind7do_call17hc1e62d3e08e11f57E, symObjAddr: 0x304, symBinAddr: 0x397B4, symSize: 0x70 }
  - { offset: 0x137C30, size: 0x8, addend: 0x0, symName: __ZN3std9panicking12catch_unwind8do_catch17h43090e39a35bb7eeE, symObjAddr: 0x374, symBinAddr: 0x39824, symSize: 0x70 }
  - { offset: 0x137CC5, size: 0x8, addend: 0x0, symName: __ZN3std9panicking12catch_unwind8do_catch17h6f3d0c09c4e87d84E, symObjAddr: 0x3E4, symBinAddr: 0x39894, symSize: 0x70 }
  - { offset: 0x137D5A, size: 0x8, addend: 0x0, symName: __ZN3std9panicking12catch_unwind8do_catch17h7d63ce35c1a3ae0cE, symObjAddr: 0x454, symBinAddr: 0x39904, symSize: 0x70 }
  - { offset: 0x137DEF, size: 0x8, addend: 0x0, symName: __ZN3std9panicking12catch_unwind8do_catch17hbce8757834eeaa95E, symObjAddr: 0x4C4, symBinAddr: 0x39974, symSize: 0x70 }
  - { offset: 0x137E84, size: 0x8, addend: 0x0, symName: __ZN3std9panicking12catch_unwind8do_catch17hc4c8ad9230ba2ab9E, symObjAddr: 0x534, symBinAddr: 0x399E4, symSize: 0x70 }
  - { offset: 0x138C26, size: 0x8, addend: 0x0, symName: '__ZN9hashbrown3raw21RawTable$LT$T$C$A$GT$14reserve_rehash28_$u7b$$u7b$closure$u7d$$u7d$17h6a673105291113e2E', symObjAddr: 0x3710, symBinAddr: 0x3B70C, symSize: 0xC0 }
  - { offset: 0x138E0A, size: 0x8, addend: 0x0, symName: '__ZN9hashbrown3raw21RawTable$LT$T$C$A$GT$4find28_$u7b$$u7b$closure$u7d$$u7d$17h9e68c39e794773b5E', symObjAddr: 0x3AE4, symBinAddr: 0x3BAE0, symSize: 0xC4 }
  - { offset: 0x1395EC, size: 0x8, addend: 0x0, symName: '__ZN79_$LT$hashbrown..raw..RawTable$LT$T$C$A$GT$$u20$as$u20$core..ops..drop..Drop$GT$4drop17h78fd23292f2acd41E', symObjAddr: 0x138C, symBinAddr: 0x39BFC, symSize: 0x3C }
  - { offset: 0x139801, size: 0x8, addend: 0x0, symName: '__ZN9hashbrown3raw13RawTableInner14prepare_resize28_$u7b$$u7b$closure$u7d$$u7d$17hea3bbd014aee0a51E', symObjAddr: 0x177C, symBinAddr: 0x39F14, symSize: 0xB0 }
  - { offset: 0x1399D3, size: 0x8, addend: 0x0, symName: '__ZN9hashbrown3raw13RawTableInner15rehash_in_place28_$u7b$$u7b$closure$u7d$$u7d$17h8e15608944dacfc2E', symObjAddr: 0x1C48, symBinAddr: 0x3A3E0, symSize: 0x1F8 }
  - { offset: 0x139E74, size: 0x8, addend: 0x0, symName: __ZN9hashbrown3raw19capacity_to_buckets17h5e7c5c42a142edf4E, symObjAddr: 0x28DC, symBinAddr: 0x3B074, symSize: 0x2C8 }
  - { offset: 0x13A30C, size: 0x8, addend: 0x0, symName: '__ZN88_$LT$hashbrown..scopeguard..ScopeGuard$LT$T$C$F$GT$$u20$as$u20$core..ops..drop..Drop$GT$4drop17h09ca9a2d6309a2a2E', symObjAddr: 0x13FC, symBinAddr: 0x39C6C, symSize: 0x2C }
  - { offset: 0x13A346, size: 0x8, addend: 0x0, symName: '__ZN88_$LT$hashbrown..scopeguard..ScopeGuard$LT$T$C$F$GT$$u20$as$u20$core..ops..drop..Drop$GT$4drop17h3f9c257ba0c50641E', symObjAddr: 0x1428, symBinAddr: 0x39C98, symSize: 0x2C }
  - { offset: 0x13B203, size: 0x8, addend: 0x0, symName: __ZN9hashbrown3raw11TableLayout20calculate_layout_for17hc8f5d501b35319c5E, symObjAddr: 0x152C, symBinAddr: 0x39CC4, symSize: 0x220 }
  - { offset: 0x13B5A8, size: 0x8, addend: 0x0, symName: __ZN9hashbrown3raw13RawTableInner13drop_elements17h4fe639bcad668544E, symObjAddr: 0x174C, symBinAddr: 0x39EE4, symSize: 0x30 }
  - { offset: 0x13BA32, size: 0x8, addend: 0x0, symName: __ZN9hashbrown3raw13RawTableInner15rehash_in_place17h91ce930cc92b941aE, symObjAddr: 0x182C, symBinAddr: 0x39FC4, symSize: 0x41C }
  - { offset: 0x13C3AC, size: 0x8, addend: 0x0, symName: __ZN9hashbrown3raw13RawTableInner16drop_inner_table17ha2f5decd53601b73E, symObjAddr: 0x1E40, symBinAddr: 0x3A5D8, symSize: 0xB0 }
  - { offset: 0x13C66D, size: 0x8, addend: 0x0, symName: __ZN9hashbrown3raw13RawTableInner16fix_insert_index17h1bada5241d3c37e8E, symObjAddr: 0x1EF0, symBinAddr: 0x3A688, symSize: 0x100 }
  - { offset: 0x13C8DF, size: 0x8, addend: 0x0, symName: __ZN9hashbrown3raw13RawTableInner17find_insert_index17had3dc5025d853a56E, symObjAddr: 0x1FF0, symBinAddr: 0x3A788, symSize: 0xFC }
  - { offset: 0x13CABC, size: 0x8, addend: 0x0, symName: __ZN9hashbrown3raw13RawTableInner17new_uninitialized17h7ccee9bc5ef0555bE, symObjAddr: 0x20EC, symBinAddr: 0x3A884, symSize: 0x2AC }
  - { offset: 0x13CDE9, size: 0x8, addend: 0x0, symName: __ZN9hashbrown3raw13RawTableInner22fallible_with_capacity17hd59344c11ff37f91E, symObjAddr: 0x2398, symBinAddr: 0x3AB30, symSize: 0x220 }
  - { offset: 0x13D282, size: 0x8, addend: 0x0, symName: __ZN9hashbrown3raw13RawTableInner23prepare_rehash_in_place17h458bf00c329de6c6E, symObjAddr: 0x25B8, symBinAddr: 0x3AD50, symSize: 0x204 }
  - { offset: 0x13D878, size: 0x8, addend: 0x0, symName: __ZN9hashbrown3raw13RawTableInner26find_insert_index_in_group17hf67ab09c584fafcbE, symObjAddr: 0x27BC, symBinAddr: 0x3AF54, symSize: 0x120 }
  - { offset: 0x13D9BC, size: 0x8, addend: 0x0, symName: '__ZN9hashbrown3raw21RawIterRange$LT$T$GT$3new17heb65958e3761dab6E', symObjAddr: 0x2BA4, symBinAddr: 0x3B33C, symSize: 0x98 }
  - { offset: 0x13DC50, size: 0x8, addend: 0x0, symName: '__ZN9hashbrown3raw21RawIterRange$LT$T$GT$9next_impl17h662b89602ecf59f8E', symObjAddr: 0x2C3C, symBinAddr: 0x3B3D4, symSize: 0x1B4 }
  - { offset: 0x13E16D, size: 0x8, addend: 0x0, symName: '__ZN9hashbrown3raw21RawTable$LT$T$C$A$GT$14insert_no_grow17h2344630ddd02f416E', symObjAddr: 0x2DF0, symBinAddr: 0x3B588, symSize: 0x184 }
  - { offset: 0x13E97C, size: 0x8, addend: 0x0, symName: '__ZN9hashbrown3raw21RawTable$LT$T$C$A$GT$14reserve_rehash17hac496fbdf4d0d488E', symObjAddr: 0x2F74, symBinAddr: 0x9EAC0, symSize: 0x79C }
  - { offset: 0x13F679, size: 0x8, addend: 0x0, symName: '__ZN9hashbrown3raw21RawTable$LT$T$C$A$GT$4find17he68a35cbd911417aE', symObjAddr: 0x37D0, symBinAddr: 0x3B7CC, symSize: 0x314 }
  - { offset: 0x13FC9C, size: 0x8, addend: 0x0, symName: '__ZN9hashbrown3raw21RawTable$LT$T$C$A$GT$7reserve17hf12f62619f57e488E', symObjAddr: 0x3BA8, symBinAddr: 0x3BBA4, symSize: 0xB0 }
  - { offset: 0x13FF16, size: 0x8, addend: 0x0, symName: __ZN4pyo38instance12PyNativeType18unchecked_downcast17h6d66d924521b16edE, symObjAddr: 0x38D8, symBinAddr: 0x3D0A0, symSize: 0x70 }
  - { offset: 0x13FF4B, size: 0x8, addend: 0x0, symName: __ZN4pyo38instance12PyNativeType2py17h4283e6367ad391acE, symObjAddr: 0x3B28, symBinAddr: 0x3D110, symSize: 0x20 }
  - { offset: 0x140065, size: 0x8, addend: 0x0, symName: '__ZN81_$LT$pyo3..types..sequence..PySequence$u20$as$u20$pyo3..conversion..PyTryFrom$GT$18try_from_unchecked17h7a2d1af4cd0faef9E', symObjAddr: 0x61B8, symBinAddr: 0x3DC7C, symSize: 0x7C }
  - { offset: 0x1400F4, size: 0x8, addend: 0x0, symName: '__ZN4pyo35types10boolobject65_$LT$impl$u20$pyo3..conversion..FromPyObject$u20$for$u20$bool$GT$7extract17h2bf0422d35eca098E', symObjAddr: 0x2EB0, symBinAddr: 0x3CF78, symSize: 0xA8 }
  - { offset: 0x14016E, size: 0x8, addend: 0x0, symName: '__ZN75_$LT$pyo3..types..boolobject..PyBool$u20$as$u20$core..ops..deref..Deref$GT$5deref17h071c8ba1600fc520E', symObjAddr: 0x5E74, symBinAddr: 0x3DB4C, symSize: 0x14 }
  - { offset: 0x1401A0, size: 0x8, addend: 0x0, symName: '__ZN81_$LT$pyo3..types..boolobject..PyBool$u20$as$u20$pyo3..type_object..PyTypeInfo$GT$10is_type_of17h53ef5db96a1cd637E', symObjAddr: 0x6070, symBinAddr: 0x3DC4C, symSize: 0x30 }
  - { offset: 0x140202, size: 0x8, addend: 0x0, symName: '__ZN96_$LT$$RF$pyo3..types..iterator..PyIterator$u20$as$u20$core..iter..traits..iterator..Iterator$GT$4next17hdd589326d3717222E', symObjAddr: 0x6864, symBinAddr: 0x3DD24, symSize: 0xA0 }
  - { offset: 0x140621, size: 0x8, addend: 0x0, symName: '__ZN49_$LT$T$u20$as$u20$pyo3..conversion..PyTryFrom$GT$18try_from_unchecked17h7ee1f1e6e151939cE', symObjAddr: 0x1198, symBinAddr: 0x3C398, symSize: 0x30 }
  - { offset: 0x140661, size: 0x8, addend: 0x0, symName: '__ZN49_$LT$T$u20$as$u20$pyo3..conversion..PyTryFrom$GT$8try_from17hb4767891ef1c3526E', symObjAddr: 0x13F0, symBinAddr: 0x3C3C8, symSize: 0x98 }
  - { offset: 0x1406C5, size: 0x8, addend: 0x0, symName: __ZN4pyo310conversion13FromPyPointer21from_owned_ptr_or_err17hf425082a3044f988E, symObjAddr: 0x22E0, symBinAddr: 0x3CE08, symSize: 0x34 }
  - { offset: 0x14071D, size: 0x8, addend: 0x0, symName: '__ZN53_$LT$T$u20$as$u20$pyo3..conversion..FromPyPointer$GT$21from_owned_ptr_or_opt17h850ae4c9ef48d478E', symObjAddr: 0x3BFC, symBinAddr: 0x3D130, symSize: 0xB4 }
  - { offset: 0x1407A3, size: 0x8, addend: 0x0, symName: '__ZN4pyo311conversions3std6string119_$LT$impl$u20$pyo3..conversion..IntoPy$LT$pyo3..instance..Py$LT$pyo3..types..any..PyAny$GT$$GT$$u20$for$u20$$RF$str$GT$7into_py17h3639b029bd297d01E', symObjAddr: 0x2A94, symBinAddr: 0x3CE3C, symSize: 0x34 }
  - { offset: 0x1407EE, size: 0x8, addend: 0x0, symName: '__ZN4pyo311conversions3std6string125_$LT$impl$u20$pyo3..conversion..IntoPy$LT$pyo3..instance..Py$LT$pyo3..types..string..PyString$GT$$GT$$u20$for$u20$$RF$str$GT$7into_py17h546de94eb257abcfE', symObjAddr: 0x2AC8, symBinAddr: 0x3CE70, symSize: 0x34 }
  - { offset: 0x140839, size: 0x8, addend: 0x0, symName: '__ZN4pyo311conversions3std6string62_$LT$impl$u20$pyo3..conversion..ToPyObject$u20$for$u20$str$GT$9to_object17he417e8f2315abe4eE', symObjAddr: 0x2AFC, symBinAddr: 0x3CEA4, symSize: 0x34 }
  - { offset: 0x140884, size: 0x8, addend: 0x0, symName: '__ZN4pyo311conversions3std6string68_$LT$impl$u20$pyo3..conversion..FromPyObject$u20$for$u20$$RF$str$GT$7extract17ha84419382ff83315E', symObjAddr: 0x2D20, symBinAddr: 0x3CED8, symSize: 0xA0 }
  - { offset: 0x141F36, size: 0x8, addend: 0x0, symName: __ZN4core4sync6atomic23atomic_compare_exchange17h2b212c03c41f1cd0E, symObjAddr: 0x1C2C, symBinAddr: 0x3C7E8, symSize: 0x4B4 }
  - { offset: 0x141FD1, size: 0x8, addend: 0x0, symName: __ZN4core4sync6atomic5fence17h5d2b615c325e3cf8E, symObjAddr: 0x20E0, symBinAddr: 0x3CC9C, symSize: 0xB0 }
  - { offset: 0x1420EA, size: 0x8, addend: 0x0, symName: '__ZN102_$LT$core..iter..adapters..map..Map$LT$I$C$F$GT$$u20$as$u20$core..iter..traits..iterator..Iterator$GT$8try_fold17h0635bbaefa5088acE', symObjAddr: 0xE0, symBinAddr: 0x3BC54, symSize: 0x54 }
  - { offset: 0x14218D, size: 0x8, addend: 0x0, symName: '__ZN102_$LT$core..iter..adapters..map..Map$LT$I$C$F$GT$$u20$as$u20$core..iter..traits..iterator..Iterator$GT$9size_hint17ha9163a863bbe960aE', symObjAddr: 0x204, symBinAddr: 0x3BCA8, symSize: 0x24 }
  - { offset: 0x142255, size: 0x8, addend: 0x0, symName: '__ZN4core4iter8adapters3map12map_try_fold28_$u7b$$u7b$closure$u7d$$u7d$17h6c64abebfa090d06E', symObjAddr: 0x1A74, symBinAddr: 0x3C740, symSize: 0xA8 }
  - { offset: 0x142375, size: 0x8, addend: 0x0, symName: __ZN4core4iter6traits8iterator8Iterator7collect17he3e9ea1ae948377cE, symObjAddr: 0x183C, symBinAddr: 0x3C72C, symSize: 0x14 }
  - { offset: 0x1423C2, size: 0x8, addend: 0x0, symName: '__ZN63_$LT$I$u20$as$u20$core..iter..traits..collect..IntoIterator$GT$9into_iter17h0703961f23328b87E', symObjAddr: 0x3E68, symBinAddr: 0x3D1E4, symSize: 0x30 }
  - { offset: 0x143994, size: 0x8, addend: 0x0, symName: __ZN4core4hash3sip9u8to64_le17h6b2d0e0013c724a8E, symObjAddr: 0x1514, symBinAddr: 0x3C4EC, symSize: 0x240 }
  - { offset: 0x143B51, size: 0x8, addend: 0x0, symName: '__ZN69_$LT$core..hash..sip..Sip13Rounds$u20$as$u20$core..hash..sip..Sip$GT$8c_rounds17h8daea0cab157fdc2E', symObjAddr: 0x3FE4, symBinAddr: 0x3D214, symSize: 0x1A0 }
  - { offset: 0x143CC6, size: 0x8, addend: 0x0, symName: '__ZN69_$LT$core..hash..sip..Sip13Rounds$u20$as$u20$core..hash..sip..Sip$GT$8d_rounds17h892ecc7d7558b845E', symObjAddr: 0x4184, symBinAddr: 0x3D3B4, symSize: 0x46C }
  - { offset: 0x144103, size: 0x8, addend: 0x0, symName: '__ZN71_$LT$core..hash..sip..Hasher$LT$S$GT$$u20$as$u20$core..hash..Hasher$GT$5write17h2416c976c4d59e28E', symObjAddr: 0x4C58, symBinAddr: 0x3D820, symSize: 0x230 }
  - { offset: 0x14427C, size: 0x8, addend: 0x0, symName: '__ZN71_$LT$core..hash..sip..Hasher$LT$S$GT$$u20$as$u20$core..hash..Hasher$GT$6finish17h8aeede1576a24fe4E', symObjAddr: 0x4E88, symBinAddr: 0x3DA50, symSize: 0xA0 }
  - { offset: 0x1442EF, size: 0x8, addend: 0x0, symName: '__ZN71_$LT$core..hash..sip..Hasher$LT$S$GT$$u20$as$u20$core..hash..Hasher$GT$9write_str17h8031e212899c40b2E', symObjAddr: 0x4F28, symBinAddr: 0x3DAF0, symSize: 0x5C }
  - { offset: 0x144C09, size: 0x8, addend: 0x0, symName: __ZN8pyo3_ffi11floatobject13PyFloat_Check17h04462bd6f3d9eaacE, symObjAddr: 0x65AC, symBinAddr: 0x3DCF8, symSize: 0x2C }
  - { offset: 0x1455A3, size: 0x8, addend: 0x0, symName: __ZN16parking_lot_core11parking_lot8deadlock16acquire_resource17h1e503ae02d0dbd67E, symObjAddr: 0x600, symBinAddr: 0x3BCCC, symSize: 0x10 }
  - { offset: 0x1455CD, size: 0x8, addend: 0x0, symName: __ZN16parking_lot_core11parking_lot8deadlock16release_resource17he8210579680158e5E, symObjAddr: 0x610, symBinAddr: 0x3BCDC, symSize: 0x10 }
  - { offset: 0x145AD2, size: 0x8, addend: 0x0, symName: '__ZN3std6thread5local17LocalKey$LT$T$GT$4with17h11c2c17b1eb1efa1E', symObjAddr: 0x620, symBinAddr: 0x3BCEC, symSize: 0x50 }
  - { offset: 0x145BD5, size: 0x8, addend: 0x0, symName: '__ZN3std6thread5local17LocalKey$LT$T$GT$4with17h736ea4b07b89b15cE', symObjAddr: 0x6B8, symBinAddr: 0x3BD3C, symSize: 0x70 }
  - { offset: 0x145CA8, size: 0x8, addend: 0x0, symName: '__ZN3std6thread5local17LocalKey$LT$T$GT$8try_with17h425cf56887f81a4bE', symObjAddr: 0x8F4, symBinAddr: 0x3BDAC, symSize: 0xD8 }
  - { offset: 0x145E31, size: 0x8, addend: 0x0, symName: '__ZN3std6thread5local17LocalKey$LT$T$GT$8try_with17h67339bfaf7545a2bE', symObjAddr: 0x9CC, symBinAddr: 0x3BE84, symSize: 0xD0 }
  - { offset: 0x145FB3, size: 0x8, addend: 0x0, symName: '__ZN3std6thread5local17LocalKey$LT$T$GT$8try_with17h94a6a4dd32e695a6E', symObjAddr: 0xA9C, symBinAddr: 0x3BF54, symSize: 0xCC }
  - { offset: 0x146134, size: 0x8, addend: 0x0, symName: '__ZN3std6thread5local17LocalKey$LT$T$GT$8try_with17h95393da873435371E', symObjAddr: 0xB68, symBinAddr: 0x3C020, symSize: 0xD8 }
  - { offset: 0x1462B6, size: 0x8, addend: 0x0, symName: '__ZN3std6thread5local17LocalKey$LT$T$GT$8try_with17h99c3978cf6f1c2d9E', symObjAddr: 0xC40, symBinAddr: 0x3C0F8, symSize: 0xCC }
  - { offset: 0x146437, size: 0x8, addend: 0x0, symName: '__ZN3std6thread5local17LocalKey$LT$T$GT$8try_with17hc7ea81d9fbca01ccE', symObjAddr: 0xEBC, symBinAddr: 0x3C1C4, symSize: 0xEC }
  - { offset: 0x1465C6, size: 0x8, addend: 0x0, symName: '__ZN3std6thread5local17LocalKey$LT$T$GT$8try_with17hd6091b903e6f8de1E', symObjAddr: 0xFA8, symBinAddr: 0x3C2B0, symSize: 0xE8 }
  - { offset: 0x146714, size: 0x8, addend: 0x0, symName: '__ZN4core4hash3sip15Hasher$LT$S$GT$5reset17h76649430a1b496d7E', symObjAddr: 0x1488, symBinAddr: 0x3C460, symSize: 0x8C }
  - { offset: 0x146784, size: 0x8, addend: 0x0, symName: __ZN4core4sync6atomic8AtomicU816compare_exchange17ha59eb004ab842630E, symObjAddr: 0x2190, symBinAddr: 0x3CD4C, symSize: 0x34 }
  - { offset: 0x1467E3, size: 0x8, addend: 0x0, symName: __ZN4core4sync6atomic8AtomicU821compare_exchange_weak17h3e27479edcf3cff2E, symObjAddr: 0x21C4, symBinAddr: 0x3CD80, symSize: 0x34 }
  - { offset: 0x146842, size: 0x8, addend: 0x0, symName: __ZN4core4sync6atomic8AtomicU84load17h850f447e8e9feaf1E, symObjAddr: 0x21F8, symBinAddr: 0x3CDB4, symSize: 0x24 }
  - { offset: 0x146881, size: 0x8, addend: 0x0, symName: __ZN4core4sync6atomic9AtomicI6416compare_exchange17h7444b3933c26be68E, symObjAddr: 0x221C, symBinAddr: 0x3CDD8, symSize: 0x30 }
  - { offset: 0x1468ED, size: 0x8, addend: 0x0, symName: __ZN4pyo35types10boolobject6PyBool7is_true17h9ab0b2e6266fed32E, symObjAddr: 0x2F58, symBinAddr: 0x3D020, symSize: 0x40 }
  - { offset: 0x146929, size: 0x8, addend: 0x0, symName: __ZN4pyo35types8iterator10PyIterator11from_object17h824d01eadfd6449cE, symObjAddr: 0x2F98, symBinAddr: 0x3D060, symSize: 0x40 }
  - { offset: 0x146974, size: 0x8, addend: 0x0, symName: '__ZN78_$LT$parking_lot..raw_mutex..RawMutex$u20$as$u20$lock_api..mutex..RawMutex$GT$4lock17h21b5221872de27b7E', symObjAddr: 0x5ED8, symBinAddr: 0x3DB60, symSize: 0x78 }
  - { offset: 0x14699C, size: 0x8, addend: 0x0, symName: '__ZN78_$LT$parking_lot..raw_mutex..RawMutex$u20$as$u20$lock_api..mutex..RawMutex$GT$6unlock17ha295ff8a15a69b9cE', symObjAddr: 0x5F50, symBinAddr: 0x3DBD8, symSize: 0x74 }
  - { offset: 0x1469F0, size: 0x8, addend: 0x0, symName: '__ZN9hashbrown11rustc_entry62_$LT$impl$u20$hashbrown..map..HashMap$LT$K$C$V$C$S$C$A$GT$$GT$11rustc_entry28_$u7b$$u7b$closure$u7d$$u7d$17hfefc0fe3caffdfebE', symObjAddr: 0x695C, symBinAddr: 0x3DDC4, symSize: 0x38 }
  - { offset: 0x147572, size: 0x8, addend: 0x0, symName: '__ZN4core3ptr7mut_ptr31_$LT$impl$u20$$BP$mut$u20$T$GT$7is_null17h123f4d42cd6e0a91E', symObjAddr: 0x670, symBinAddr: 0x3E1C4, symSize: 0x18 }
  - { offset: 0x148A7E, size: 0x8, addend: 0x0, symName: __ZN4core3cmp9PartialEq2ne17hcb2dd5e245228dedE, symObjAddr: 0x46C, symBinAddr: 0x3E08C, symSize: 0x30 }
  - { offset: 0x148B55, size: 0x8, addend: 0x0, symName: '__ZN146_$LT$core..ops..range..Range$LT$usize$GT$$u20$as$u20$core..iter..adapters..step_by..SpecRangeSetup$LT$core..ops..range..Range$LT$usize$GT$$GT$$GT$5setup17h983b7c624bbf073dE', symObjAddr: 0x278, symBinAddr: 0x3DF60, symSize: 0x110 }
  - { offset: 0x148C4A, size: 0x8, addend: 0x0, symName: '__ZN63_$LT$I$u20$as$u20$core..iter..traits..collect..IntoIterator$GT$9into_iter17h8374f0e343bfc22dE', symObjAddr: 0x7F4C, symBinAddr: 0x41AEC, symSize: 0x18 }
  - { offset: 0x149C68, size: 0x8, addend: 0x0, symName: '__ZN4core5array4iter94_$LT$impl$u20$core..iter..traits..collect..IntoIterator$u20$for$u20$$u5b$T$u3b$$u20$N$u5d$$GT$9into_iter17h4e8f65033e2a2ed5E', symObjAddr: 0x6A8, symBinAddr: 0x3E1DC, symSize: 0x68 }
  - { offset: 0x149EC9, size: 0x8, addend: 0x0, symName: '__ZN4core5slice4iter87_$LT$impl$u20$core..iter..traits..collect..IntoIterator$u20$for$u20$$RF$$u5b$T$u5d$$GT$9into_iter17ha0d49992021c1d5aE', symObjAddr: 0x768, symBinAddr: 0x3E244, symSize: 0x50 }
  - { offset: 0x14A04A, size: 0x8, addend: 0x0, symName: __ZN4core9core_arch7aarch644neon9generated7vld1_u817h269aa482b0e466eaE, symObjAddr: 0x7B8, symBinAddr: 0x3E294, symSize: 0x34 }
  - { offset: 0x14A078, size: 0x8, addend: 0x0, symName: __ZN4core9core_arch7aarch644neon9generated7vst1_u817h8b063f962730ad97E, symObjAddr: 0x7EC, symBinAddr: 0x3E2C8, symSize: 0x40 }
  - { offset: 0x14A0B2, size: 0x8, addend: 0x0, symName: __ZN4core9core_arch7aarch644neon9generated8vcgez_s817h9d552e8ddcb0eed7E, symObjAddr: 0x82C, symBinAddr: 0x3E308, symSize: 0x68 }
  - { offset: 0x14A154, size: 0x8, addend: 0x0, symName: __ZN4core9core_arch7aarch644neon9generated8vcltz_s817h75ae818c19362d1cE, symObjAddr: 0x894, symBinAddr: 0x3E370, symSize: 0x68 }
  - { offset: 0x14A2FF, size: 0x8, addend: 0x0, symName: '__ZN50_$LT$T$u20$as$u20$core..convert..Into$LT$U$GT$$GT$4into17h76cc376431dae5e6E', symObjAddr: 0x7520, symBinAddr: 0x412D8, symSize: 0x24 }
  - { offset: 0x14A3CD, size: 0x8, addend: 0x0, symName: '__ZN4pyo33gil13OWNED_OBJECTS29_$u7b$$u7b$constant$u7d$$u7d$28_$u7b$$u7b$closure$u7d$$u7d$23__RUST_STD_INTERNAL_VAL17h5a85641ce3e2e6dbE', symObjAddr: 0xB8D8, symBinAddr: 0xFD000, symSize: 0x0 }
  - { offset: 0x14A3DC, size: 0x8, addend: 0x0, symName: '__ZN4pyo33gil13OWNED_OBJECTS29_$u7b$$u7b$constant$u7d$$u7d$28_$u7b$$u7b$closure$u7d$$u7d$17ha2d46aac80d76d12E', symObjAddr: 0xF0C, symBinAddr: 0x3E6BC, symSize: 0x34 }
  - { offset: 0x14A425, size: 0x8, addend: 0x0, symName: __ZN4pyo33gil4POOL17hd0c03592ef498362E, symObjAddr: 0xB938, symBinAddr: 0xFC5E0, symSize: 0x0 }
  - { offset: 0x14A499, size: 0x8, addend: 0x0, symName: __ZN4pyo33gil5START17h8733e2fc6d003f40E, symObjAddr: 0x44F10, symBinAddr: 0xFD300, symSize: 0x0 }
  - { offset: 0x14A4C2, size: 0x8, addend: 0x0, symName: '__ZN4pyo33gil9GIL_COUNT29_$u7b$$u7b$constant$u7d$$u7d$28_$u7b$$u7b$closure$u7d$$u7d$23__RUST_STD_INTERNAL_VAL17hd8167f605d449d62E', symObjAddr: 0xB908, symBinAddr: 0xFD018, symSize: 0x0 }
  - { offset: 0x14A4D1, size: 0x8, addend: 0x0, symName: '__ZN4pyo33gil9GIL_COUNT29_$u7b$$u7b$constant$u7d$$u7d$28_$u7b$$u7b$closure$u7d$$u7d$17hb39e6bb7733eafabE', symObjAddr: 0x1E40, symBinAddr: 0x3F514, symSize: 0x30 }
  - { offset: 0x14A59E, size: 0x8, addend: 0x0, symName: __ZN4pyo33gil14register_owned17h7ff213a37c237e2fE, symObjAddr: 0x15A8, symBinAddr: 0x3ED58, symSize: 0x68 }
  - { offset: 0x14A5FD, size: 0x8, addend: 0x0, symName: '__ZN4pyo33gil14register_owned28_$u7b$$u7b$closure$u7d$$u7d$17h5d29dfcad685feedE', symObjAddr: 0x1610, symBinAddr: 0x3EDC0, symSize: 0x9C }
  - { offset: 0x14A63E, size: 0x8, addend: 0x0, symName: '__ZN4pyo33gil15gil_is_acquired28_$u7b$$u7b$closure$u7d$$u7d$17hcf600f13e636c010E', symObjAddr: 0x16AC, symBinAddr: 0x3EE5C, symSize: 0x2C }
  - { offset: 0x14A67C, size: 0x8, addend: 0x0, symName: __ZN4pyo33gil15register_decref17h6d61e00150557e19E, symObjAddr: 0x16D8, symBinAddr: 0x3EE88, symSize: 0x180 }
  - { offset: 0x14A6D9, size: 0x8, addend: 0x0, symName: __ZN4pyo33gil15register_incref17h34d7604bf6789963E, symObjAddr: 0x1858, symBinAddr: 0x3F008, symSize: 0x124 }
  - { offset: 0x14A73B, size: 0x8, addend: 0x0, symName: '__ZN4pyo33gil19decrement_gil_count28_$u7b$$u7b$closure$u7d$$u7d$17hb5ff9133eb101589E', symObjAddr: 0x197C, symBinAddr: 0x3F12C, symSize: 0x8C }
  - { offset: 0x14A793, size: 0x8, addend: 0x0, symName: '__ZN4pyo33gil19increment_gil_count28_$u7b$$u7b$closure$u7d$$u7d$17h8e615d73adeaf595E', symObjAddr: 0x1A08, symBinAddr: 0x3F1B8, symSize: 0x74 }
  - { offset: 0x14A7E6, size: 0x8, addend: 0x0, symName: __ZN4pyo33gil27prepare_freethreaded_python17hb946b350334f7df0E, symObjAddr: 0x1A7C, symBinAddr: 0x3F22C, symSize: 0x1C }
  - { offset: 0x14A804, size: 0x8, addend: 0x0, symName: '__ZN4pyo33gil27prepare_freethreaded_python28_$u7b$$u7b$closure$u7d$$u7d$17hd6ecb448d67425d9E', symObjAddr: 0x1A98, symBinAddr: 0x3F248, symSize: 0x38 }
  - { offset: 0x14A851, size: 0x8, addend: 0x0, symName: '__ZN4pyo33gil7GILPool3new28_$u7b$$u7b$closure$u7d$$u7d$17ha5a282d0394cb4a9E', symObjAddr: 0x1B0C, symBinAddr: 0x3F2BC, symSize: 0x94 }
  - { offset: 0x14A8EA, size: 0x8, addend: 0x0, symName: '__ZN4pyo33gil8GILGuard7acquire28_$u7b$$u7b$closure$u7d$$u7d$17h204b1f9dd43ecf12E', symObjAddr: 0x1DB0, symBinAddr: 0x3F484, symSize: 0x90 }
  - { offset: 0x14A974, size: 0x8, addend: 0x0, symName: '__ZN60_$LT$pyo3..gil..GILPool$u20$as$u20$core..ops..drop..Drop$GT$4drop17hf908e6f60df60daaE', symObjAddr: 0x7B50, symBinAddr: 0x41758, symSize: 0x260 }
  - { offset: 0x14AA50, size: 0x8, addend: 0x0, symName: '__ZN60_$LT$pyo3..gil..GILPool$u20$as$u20$core..ops..drop..Drop$GT$4drop28_$u7b$$u7b$closure$u7d$$u7d$17he230cc4ab67a7289E', symObjAddr: 0x7DB0, symBinAddr: 0x419B8, symSize: 0x100 }
  - { offset: 0x14AAAC, size: 0x8, addend: 0x0, symName: '__ZN61_$LT$pyo3..gil..GILGuard$u20$as$u20$core..ops..drop..Drop$GT$4drop17h222eaa0f3fa3ec6bE', symObjAddr: 0x7F18, symBinAddr: 0x41AB8, symSize: 0x34 }
  - { offset: 0x14AAF2, size: 0x8, addend: 0x0, symName: __ZN4pyo35types6module7__all__8INTERNED17he9680aa4a9241b89E, symObjAddr: 0xB970, symBinAddr: 0xFC618, symSize: 0x0 }
  - { offset: 0x14AB00, size: 0x8, addend: 0x0, symName: __ZN4pyo35types6module7__all__17h0d8c2714bed88fabE, symObjAddr: 0x3108, symBinAddr: 0x3FB84, symSize: 0x24 }
  - { offset: 0x14ACF5, size: 0x8, addend: 0x0, symName: '__ZN73_$LT$pyo3..types..module..PyModule$u20$as$u20$core..ops..deref..Deref$GT$5deref17hc5ec9b192277eaedE', symObjAddr: 0x8994, symBinAddr: 0x41CE4, symSize: 0x14 }
  - { offset: 0x14AD42, size: 0x8, addend: 0x0, symName: '__ZN4pyo35types6string146_$LT$impl$u20$core..convert..From$LT$$RF$pyo3..types..string..PyString$GT$$u20$for$u20$pyo3..instance..Py$LT$pyo3..types..string..PyString$GT$$GT$4from17h516881223183c972E', symObjAddr: 0x471C, symBinAddr: 0x3FDFC, symSize: 0x38 }
  - { offset: 0x14ADC5, size: 0x8, addend: 0x0, symName: '__ZN4pyo35types10typeobject150_$LT$impl$u20$core..convert..From$LT$$RF$pyo3..types..typeobject..PyType$GT$$u20$for$u20$pyo3..instance..Py$LT$pyo3..types..typeobject..PyType$GT$$GT$4from17h56956feca7f50dc3E', symObjAddr: 0x2FC4, symBinAddr: 0x3FB4C, symSize: 0x38 }
  - { offset: 0x14B233, size: 0x8, addend: 0x0, symName: '__ZN102_$LT$pyo3..instance..Py$LT$pyo3..types..any..PyAny$GT$$u20$as$u20$core..convert..From$LT$$RF$T$GT$$GT$4from17h1512362f0faeffb9E', symObjAddr: 0x50, symBinAddr: 0x3DDFC, symSize: 0x38 }
  - { offset: 0x14B26A, size: 0x8, addend: 0x0, symName: '__ZN102_$LT$pyo3..instance..Py$LT$pyo3..types..any..PyAny$GT$$u20$as$u20$core..convert..From$LT$$RF$T$GT$$GT$4from17h894398cf3db9b1d0E', symObjAddr: 0x88, symBinAddr: 0x3DE34, symSize: 0x38 }
  - { offset: 0x14B2A1, size: 0x8, addend: 0x0, symName: '__ZN102_$LT$pyo3..instance..Py$LT$pyo3..types..any..PyAny$GT$$u20$as$u20$core..convert..From$LT$$RF$T$GT$$GT$4from17h96a1ea7b1f7e0e0fE', symObjAddr: 0xC0, symBinAddr: 0x3DE6C, symSize: 0x38 }
  - { offset: 0x14B2D8, size: 0x8, addend: 0x0, symName: '__ZN102_$LT$pyo3..instance..Py$LT$pyo3..types..any..PyAny$GT$$u20$as$u20$core..convert..From$LT$$RF$T$GT$$GT$4from17hd27de38243634d58E', symObjAddr: 0x168, symBinAddr: 0x3DEA4, symSize: 0x38 }
  - { offset: 0x14B315, size: 0x8, addend: 0x0, symName: '__ZN124_$LT$pyo3..instance..Py$LT$pyo3..types..any..PyAny$GT$$u20$as$u20$core..convert..From$LT$$RF$pyo3..types..any..PyAny$GT$$GT$4from17he68c9e36b2ae023cE', symObjAddr: 0x1CC, symBinAddr: 0x3DEDC, symSize: 0x34 }
  - { offset: 0x14B349, size: 0x8, addend: 0x0, symName: '__ZN124_$LT$pyo3..instance..Py$LT$pyo3..types..any..PyAny$GT$$u20$as$u20$core..convert..From$LT$pyo3..instance..Py$LT$T$GT$$GT$$GT$4from17hf7ab3c3ec4f1e15eE', symObjAddr: 0x228, symBinAddr: 0x3DF10, symSize: 0x28 }
  - { offset: 0x14B386, size: 0x8, addend: 0x0, symName: '__ZN129_$LT$pyo3..instance..Py$LT$T$GT$$u20$as$u20$pyo3..conversion..IntoPy$LT$pyo3..instance..Py$LT$pyo3..types..any..PyAny$GT$$GT$$GT$7into_py17h2ef03850485fb190E', symObjAddr: 0x250, symBinAddr: 0x3DF38, symSize: 0x28 }
  - { offset: 0x14BA07, size: 0x8, addend: 0x0, symName: '__ZN4pyo38instance11Py$LT$T$GT$21from_owned_ptr_or_opt28_$u7b$$u7b$closure$u7d$$u7d$17h958e68d0a4fa6707E', symObjAddr: 0x61B8, symBinAddr: 0x40638, symSize: 0x14 }
  - { offset: 0x14BA49, size: 0x8, addend: 0x0, symName: '__ZN4pyo38instance11Py$LT$T$GT$21from_owned_ptr_or_opt28_$u7b$$u7b$closure$u7d$$u7d$17haa6a3f5bdfd0086eE', symObjAddr: 0x61CC, symBinAddr: 0x4064C, symSize: 0x14 }
  - { offset: 0x14BA8B, size: 0x8, addend: 0x0, symName: '__ZN4pyo38instance11Py$LT$T$GT$21from_owned_ptr_or_opt28_$u7b$$u7b$closure$u7d$$u7d$17hdf8974699930009bE', symObjAddr: 0x61E0, symBinAddr: 0x40660, symSize: 0x14 }
  - { offset: 0x14BACD, size: 0x8, addend: 0x0, symName: '__ZN4pyo38instance11Py$LT$T$GT$21from_owned_ptr_or_opt28_$u7b$$u7b$closure$u7d$$u7d$17hf86c22bd861c4cb4E', symObjAddr: 0x61F4, symBinAddr: 0x40674, symSize: 0x14 }
  - { offset: 0x14BB31, size: 0x8, addend: 0x0, symName: '__ZN4pyo38instance11Py$LT$T$GT$24from_borrowed_ptr_or_opt28_$u7b$$u7b$closure$u7d$$u7d$17h6348b9f8d02c0e9aE', symObjAddr: 0x6340, symBinAddr: 0x4078C, symSize: 0xF4 }
  - { offset: 0x14BB97, size: 0x8, addend: 0x0, symName: '__ZN4pyo38instance11Py$LT$T$GT$24from_borrowed_ptr_or_opt28_$u7b$$u7b$closure$u7d$$u7d$17h65af251b892faef7E', symObjAddr: 0x6434, symBinAddr: 0x40880, symSize: 0xF4 }
  - { offset: 0x14BBFD, size: 0x8, addend: 0x0, symName: '__ZN4pyo38instance11Py$LT$T$GT$24from_borrowed_ptr_or_opt28_$u7b$$u7b$closure$u7d$$u7d$17h9a9a3669061dd95aE', symObjAddr: 0x661C, symBinAddr: 0x40974, symSize: 0xF4 }
  - { offset: 0x14BC63, size: 0x8, addend: 0x0, symName: '__ZN4pyo38instance11Py$LT$T$GT$24from_borrowed_ptr_or_opt28_$u7b$$u7b$closure$u7d$$u7d$17hcf0a3ae991542a07E', symObjAddr: 0x6710, symBinAddr: 0x40A68, symSize: 0xF4 }
  - { offset: 0x14BCC9, size: 0x8, addend: 0x0, symName: '__ZN4pyo38instance11Py$LT$T$GT$24from_borrowed_ptr_or_opt28_$u7b$$u7b$closure$u7d$$u7d$17hea6939ff9971f9e6E', symObjAddr: 0x6804, symBinAddr: 0x40B5C, symSize: 0xF4 }
  - { offset: 0x14BD36, size: 0x8, addend: 0x0, symName: __ZN4pyo38instance12PyNativeType18unchecked_downcast17h913d1b993966f561E, symObjAddr: 0x7420, symBinAddr: 0x41268, symSize: 0x70 }
  - { offset: 0x14BD71, size: 0x8, addend: 0x0, symName: '__ZN66_$LT$pyo3..instance..Py$LT$T$GT$$u20$as$u20$core..clone..Clone$GT$5clone17h2dc8e751092c4b7aE', symObjAddr: 0x7FEC, symBinAddr: 0x41B04, symSize: 0x34 }
  - { offset: 0x14BDA8, size: 0x8, addend: 0x0, symName: '__ZN66_$LT$pyo3..instance..Py$LT$T$GT$$u20$as$u20$core..clone..Clone$GT$5clone17h3ae0f456d3621c4fE', symObjAddr: 0x8020, symBinAddr: 0x41B38, symSize: 0x34 }
  - { offset: 0x14BDDF, size: 0x8, addend: 0x0, symName: '__ZN66_$LT$pyo3..instance..Py$LT$T$GT$$u20$as$u20$core..clone..Clone$GT$5clone17h4524fe5248677534E', symObjAddr: 0x8054, symBinAddr: 0x41B6C, symSize: 0x34 }
  - { offset: 0x14BE1C, size: 0x8, addend: 0x0, symName: '__ZN69_$LT$pyo3..instance..Py$LT$T$GT$$u20$as$u20$core..ops..drop..Drop$GT$4drop17h429169126e4c8f73E', symObjAddr: 0x84F8, symBinAddr: 0x41BA0, symSize: 0x28 }
  - { offset: 0x14BE4F, size: 0x8, addend: 0x0, symName: '__ZN69_$LT$pyo3..instance..Py$LT$T$GT$$u20$as$u20$core..ops..drop..Drop$GT$4drop17h4a37f99c886b3c59E', symObjAddr: 0x8520, symBinAddr: 0x41BC8, symSize: 0x28 }
  - { offset: 0x14BE82, size: 0x8, addend: 0x0, symName: '__ZN69_$LT$pyo3..instance..Py$LT$T$GT$$u20$as$u20$core..ops..drop..Drop$GT$4drop17h789870cc25a84ea8E', symObjAddr: 0x8598, symBinAddr: 0x41BF0, symSize: 0x28 }
  - { offset: 0x14BEB5, size: 0x8, addend: 0x0, symName: '__ZN69_$LT$pyo3..instance..Py$LT$T$GT$$u20$as$u20$core..ops..drop..Drop$GT$4drop17h905b8dc7b9bd6d4eE', symObjAddr: 0x85E8, symBinAddr: 0x41C18, symSize: 0x28 }
  - { offset: 0x14BEE8, size: 0x8, addend: 0x0, symName: '__ZN69_$LT$pyo3..instance..Py$LT$T$GT$$u20$as$u20$core..ops..drop..Drop$GT$4drop17hef544f6d3a6d73c8E', symObjAddr: 0x8688, symBinAddr: 0x41C40, symSize: 0x28 }
  - { offset: 0x14BF1B, size: 0x8, addend: 0x0, symName: '__ZN69_$LT$pyo3..instance..Py$LT$T$GT$$u20$as$u20$core..ops..drop..Drop$GT$4drop17hf36bf3ee64cf5df0E', symObjAddr: 0x86B0, symBinAddr: 0x41C68, symSize: 0x28 }
  - { offset: 0x14BF4E, size: 0x8, addend: 0x0, symName: '__ZN69_$LT$pyo3..instance..Py$LT$T$GT$$u20$as$u20$core..ops..drop..Drop$GT$4drop17hfadec4b93e05be09E', symObjAddr: 0x86D8, symBinAddr: 0x41C90, symSize: 0x28 }
  - { offset: 0x14BF87, size: 0x8, addend: 0x0, symName: '__ZN76_$LT$pyo3..instance..Py$LT$T$GT$$u20$as$u20$pyo3..conversion..ToPyObject$GT$9to_object17h5ff2018908462bfcE', symObjAddr: 0x89BC, symBinAddr: 0x41CF8, symSize: 0x28 }
  - { offset: 0x14C71A, size: 0x8, addend: 0x0, symName: '__ZN4pyo310exceptions154_$LT$impl$u20$core..convert..From$LT$$RF$pyo3..exceptions..PyBaseException$GT$$u20$for$u20$pyo3..instance..Py$LT$pyo3..exceptions..PyBaseException$GT$$GT$4from17h99bddad2c4ffbb84E', symObjAddr: 0x988, symBinAddr: 0x3E3D8, symSize: 0x38 }
  - { offset: 0x14C85A, size: 0x8, addend: 0x0, symName: '__ZN58_$LT$T$u20$as$u20$pyo3..err..err_state..PyErrArguments$GT$9arguments17h724d322055f16cf2E', symObjAddr: 0x76D0, symBinAddr: 0x412FC, symSize: 0x24 }
  - { offset: 0x14C929, size: 0x8, addend: 0x0, symName: __ZN4pyo315internal_tricks16extract_c_string17h1dae18257c673a47E, symObjAddr: 0xA70, symBinAddr: 0x3E410, symSize: 0x20C }
  - { offset: 0x14CA16, size: 0x8, addend: 0x0, symName: '__ZN4pyo315internal_tricks16extract_c_string28_$u7b$$u7b$closure$u7d$$u7d$17h97ba5012c999246fE', symObjAddr: 0xC7C, symBinAddr: 0x3E61C, symSize: 0x68 }
  - { offset: 0x14CA4F, size: 0x8, addend: 0x0, symName: '__ZN4pyo315internal_tricks16extract_c_string28_$u7b$$u7b$closure$u7d$$u7d$17hc0aa4e5b6517d66aE', symObjAddr: 0xCE4, symBinAddr: 0x3E684, symSize: 0x38 }
  - { offset: 0x14CB16, size: 0x8, addend: 0x0, symName: __ZN4pyo35impl_7pyclass17build_pyclass_doc17hcc980951c44dfe96E, symObjAddr: 0x29E4, symBinAddr: 0x3F56C, symSize: 0x1D8 }
  - { offset: 0x14CC10, size: 0x8, addend: 0x0, symName: '__ZN4pyo35impl_7pyclass17build_pyclass_doc28_$u7b$$u7b$closure$u7d$$u7d$17h9f5218bcd8054c3cE', symObjAddr: 0x2BBC, symBinAddr: 0x3F744, symSize: 0x64 }
  - { offset: 0x14CC4B, size: 0x8, addend: 0x0, symName: __ZN4pyo35impl_7pyclass30get_sequence_item_from_mapping17h2101a6976d6ea416E, symObjAddr: 0x2C20, symBinAddr: 0x3F7A8, symSize: 0x1B4 }
  - { offset: 0x14CCE7, size: 0x8, addend: 0x0, symName: __ZN4pyo35impl_7pyclass33assign_sequence_item_from_mapping17h2b61da11b859d0ebE, symObjAddr: 0x2DD4, symBinAddr: 0x3F95C, symSize: 0x1F0 }
  - { offset: 0x14CD8A, size: 0x8, addend: 0x0, symName: '__ZN97_$LT$pyo3..impl_..pyclass..PyClassItemsIter$u20$as$u20$core..iter..traits..iterator..Iterator$GT$4next17hd2dc1310492786baE', symObjAddr: 0x9C50, symBinAddr: 0x42588, symSize: 0xD0 }
  - { offset: 0x14D0E7, size: 0x8, addend: 0x0, symName: '__ZN72_$LT$pyo3..pycell..impl_..BorrowFlag$u20$as$u20$core..cmp..PartialEq$GT$2eq17h8c6f40602bb22a8cE', symObjAddr: 0x8968, symBinAddr: 0x41CB8, symSize: 0x2C }
  - { offset: 0x14D127, size: 0x8, addend: 0x0, symName: '__ZN96_$LT$pyo3..pycell..impl_..BorrowChecker$u20$as$u20$pyo3..pycell..impl_..PyClassBorrowChecker$GT$10try_borrow17hfc3d42d93c77f6bcE', symObjAddr: 0x9AA4, symBinAddr: 0x423DC, symSize: 0x78 }
  - { offset: 0x14D170, size: 0x8, addend: 0x0, symName: '__ZN96_$LT$pyo3..pycell..impl_..BorrowChecker$u20$as$u20$pyo3..pycell..impl_..PyClassBorrowChecker$GT$14release_borrow17hbe1ea0a6750d260dE', symObjAddr: 0x9B1C, symBinAddr: 0x42454, symSize: 0x3C }
  - { offset: 0x14D1B5, size: 0x8, addend: 0x0, symName: '__ZN96_$LT$pyo3..pycell..impl_..BorrowChecker$u20$as$u20$pyo3..pycell..impl_..PyClassBorrowChecker$GT$14try_borrow_mut17h6cfdc1b9031eda3aE', symObjAddr: 0x9B58, symBinAddr: 0x42490, symSize: 0x70 }
  - { offset: 0x14D1FE, size: 0x8, addend: 0x0, symName: '__ZN96_$LT$pyo3..pycell..impl_..BorrowChecker$u20$as$u20$pyo3..pycell..impl_..PyClassBorrowChecker$GT$18release_borrow_mut17hffb8c174b8e7758fE', symObjAddr: 0x9BC8, symBinAddr: 0x42500, symSize: 0x28 }
  - { offset: 0x14D226, size: 0x8, addend: 0x0, symName: '__ZN96_$LT$pyo3..pycell..impl_..BorrowChecker$u20$as$u20$pyo3..pycell..impl_..PyClassBorrowChecker$GT$20try_borrow_unguarded17h64ba64d18fe82846E', symObjAddr: 0x9BF0, symBinAddr: 0x42528, symSize: 0x60 }
  - { offset: 0x14DA0A, size: 0x8, addend: 0x0, symName: '__ZN77_$LT$alloc..raw_vec..RawVec$LT$T$C$A$GT$$u20$as$u20$core..ops..drop..Drop$GT$4drop17h20ae36bc6b36e51aE', symObjAddr: 0x89E4, symBinAddr: 0x41D20, symSize: 0x34 }
  - { offset: 0x14DA46, size: 0x8, addend: 0x0, symName: '__ZN77_$LT$alloc..raw_vec..RawVec$LT$T$C$A$GT$$u20$as$u20$core..ops..drop..Drop$GT$4drop17h4314ea16e11b8d4dE', symObjAddr: 0x8A18, symBinAddr: 0x41D54, symSize: 0x34 }
  - { offset: 0x14DA82, size: 0x8, addend: 0x0, symName: '__ZN77_$LT$alloc..raw_vec..RawVec$LT$T$C$A$GT$$u20$as$u20$core..ops..drop..Drop$GT$4drop17h4eac8c680687d2e5E', symObjAddr: 0x8A4C, symBinAddr: 0x41D88, symSize: 0x34 }
  - { offset: 0x14DABE, size: 0x8, addend: 0x0, symName: '__ZN77_$LT$alloc..raw_vec..RawVec$LT$T$C$A$GT$$u20$as$u20$core..ops..drop..Drop$GT$4drop17h56ff3508f4e049b3E', symObjAddr: 0x8A80, symBinAddr: 0x41DBC, symSize: 0x34 }
  - { offset: 0x14DAFA, size: 0x8, addend: 0x0, symName: '__ZN77_$LT$alloc..raw_vec..RawVec$LT$T$C$A$GT$$u20$as$u20$core..ops..drop..Drop$GT$4drop17h59582930812141fbE', symObjAddr: 0x8AB4, symBinAddr: 0x41DF0, symSize: 0x30 }
  - { offset: 0x14DB36, size: 0x8, addend: 0x0, symName: '__ZN77_$LT$alloc..raw_vec..RawVec$LT$T$C$A$GT$$u20$as$u20$core..ops..drop..Drop$GT$4drop17h8c4daea88aa97f56E', symObjAddr: 0x8AE4, symBinAddr: 0x41E20, symSize: 0x34 }
  - { offset: 0x14DB72, size: 0x8, addend: 0x0, symName: '__ZN77_$LT$alloc..raw_vec..RawVec$LT$T$C$A$GT$$u20$as$u20$core..ops..drop..Drop$GT$4drop17h97339713952ed518E', symObjAddr: 0x8B18, symBinAddr: 0x41E54, symSize: 0x34 }
  - { offset: 0x14DBAE, size: 0x8, addend: 0x0, symName: '__ZN77_$LT$alloc..raw_vec..RawVec$LT$T$C$A$GT$$u20$as$u20$core..ops..drop..Drop$GT$4drop17hb840d85551361f53E', symObjAddr: 0x8B4C, symBinAddr: 0x41E88, symSize: 0x30 }
  - { offset: 0x14DBEA, size: 0x8, addend: 0x0, symName: '__ZN77_$LT$alloc..raw_vec..RawVec$LT$T$C$A$GT$$u20$as$u20$core..ops..drop..Drop$GT$4drop17hc2bcff28fd09c201E', symObjAddr: 0x8B7C, symBinAddr: 0x41EB8, symSize: 0x34 }
  - { offset: 0x14DC26, size: 0x8, addend: 0x0, symName: '__ZN77_$LT$alloc..raw_vec..RawVec$LT$T$C$A$GT$$u20$as$u20$core..ops..drop..Drop$GT$4drop17hccfa0814c4db94daE', symObjAddr: 0x8BB0, symBinAddr: 0x41EEC, symSize: 0x34 }
  - { offset: 0x14E011, size: 0x8, addend: 0x0, symName: __ZN8pyo3_ffi6object10_Py_NewRef17h6ab8bd0b55c26e29E, symObjAddr: 0x9354, symBinAddr: 0x41F50, symSize: 0xE4 }
  - { offset: 0x14E05D, size: 0x8, addend: 0x0, symName: __ZN8pyo3_ffi6object12PyType_Check17h2992185783959b76E, symObjAddr: 0x9438, symBinAddr: 0x42034, symSize: 0x30 }
  - { offset: 0x14E08B, size: 0x8, addend: 0x0, symName: __ZN8pyo3_ffi6object17PyType_HasFeature17hd560e36e0876a90dE, symObjAddr: 0x9468, symBinAddr: 0x42064, symSize: 0x88 }
  - { offset: 0x14E0C8, size: 0x8, addend: 0x0, symName: __ZN8pyo3_ffi6object18PyObject_TypeCheck17h0f799b8bf8727781E, symObjAddr: 0x94FC, symBinAddr: 0x420EC, symSize: 0x74 }
  - { offset: 0x14E105, size: 0x8, addend: 0x0, symName: __ZN8pyo3_ffi6object19PyType_FastSubclass17hba4a6489a8b2636eE, symObjAddr: 0x9570, symBinAddr: 0x42160, symSize: 0x28 }
  - { offset: 0x14E142, size: 0x8, addend: 0x0, symName: __ZN8pyo3_ffi6object7Py_None17ha12998196aee8700E, symObjAddr: 0x9598, symBinAddr: 0x42188, symSize: 0xC }
  - { offset: 0x14E160, size: 0x8, addend: 0x0, symName: __ZN8pyo3_ffi6object7Py_SIZE17h02828a796be8550bE, symObjAddr: 0x95A4, symBinAddr: 0x42194, symSize: 0x1D4 }
  - { offset: 0x14E20E, size: 0x8, addend: 0x0, symName: __ZN8pyo3_ffi6object7Py_TYPE17h4b9d6f882c0bd328E, symObjAddr: 0x9778, symBinAddr: 0x42368, symSize: 0x74 }
  - { offset: 0x14E945, size: 0x8, addend: 0x0, symName: __ZN8pyo3_ffi11tupleobject13PyTuple_Check17h7777805e13f7957eE, symObjAddr: 0x922C, symBinAddr: 0x41F20, symSize: 0x30 }
  - { offset: 0x14EFC7, size: 0x8, addend: 0x0, symName: __ZN3std6thread6thread6Thread2id17heebea025ff8811a0E, symObjAddr: 0x388, symBinAddr: 0x3E070, symSize: 0x1C }
  - { offset: 0x14F0EF, size: 0x8, addend: 0x0, symName: __ZN4core3fmt2rt8Argument11new_display17h28c3df8696e00badE, symObjAddr: 0x49C, symBinAddr: 0x3E0BC, symSize: 0x2C }
  - { offset: 0x14F11A, size: 0x8, addend: 0x0, symName: __ZN4core3fmt2rt8Argument11new_display17h3e872e96b4af3ddcE, symObjAddr: 0x4C8, symBinAddr: 0x3E0E8, symSize: 0x2C }
  - { offset: 0x14F16C, size: 0x8, addend: 0x0, symName: __ZN4core3fmt2rt8Argument11new_display17ha139e7f8c32e0336E, symObjAddr: 0x520, symBinAddr: 0x3E114, symSize: 0x2C }
  - { offset: 0x14F1B1, size: 0x8, addend: 0x0, symName: __ZN4core3fmt2rt8Argument11new_display17ha14646d00645e958E, symObjAddr: 0x54C, symBinAddr: 0x3E140, symSize: 0x2C }
  - { offset: 0x14F203, size: 0x8, addend: 0x0, symName: __ZN4core3fmt2rt8Argument11new_display17he480808172fd329dE, symObjAddr: 0x5A4, symBinAddr: 0x3E16C, symSize: 0x2C }
  - { offset: 0x14F22E, size: 0x8, addend: 0x0, symName: __ZN4core3fmt2rt8Argument11new_display17hf2cd125536dd52feE, symObjAddr: 0x5D0, symBinAddr: 0x3E198, symSize: 0x2C }
  - { offset: 0x14F4C7, size: 0x8, addend: 0x0, symName: __ZN4pyo33gil13ReferencePool13update_counts17h6f85665f8a50f58cE, symObjAddr: 0xF40, symBinAddr: 0x3E6F0, symSize: 0x54C }
  - { offset: 0x14F619, size: 0x8, addend: 0x0, symName: __ZN4pyo33gil13ReferencePool15register_decref17hb9b9e10ac9a83f13E, symObjAddr: 0x148C, symBinAddr: 0x3EC3C, symSize: 0x90 }
  - { offset: 0x14F64B, size: 0x8, addend: 0x0, symName: __ZN4pyo33gil13ReferencePool15register_incref17hec84b1a9056dc2dbE, symObjAddr: 0x151C, symBinAddr: 0x3ECCC, symSize: 0x8C }
  - { offset: 0x14F67D, size: 0x8, addend: 0x0, symName: __ZN4pyo33gil7GILPool3new17he616e035988a18f5E, symObjAddr: 0x1AD0, symBinAddr: 0x3F280, symSize: 0x3C }
  - { offset: 0x14F6B3, size: 0x8, addend: 0x0, symName: __ZN4pyo33gil7GILPool6python17hf9eaf68d6fe45946E, symObjAddr: 0x1BA0, symBinAddr: 0x3F350, symSize: 0x20 }
  - { offset: 0x14F6D6, size: 0x8, addend: 0x0, symName: __ZN4pyo33gil7LockGIL4bail17h9915dd62b4bd9ffcE, symObjAddr: 0x1C40, symBinAddr: 0x9F25C, symSize: 0x5C }
  - { offset: 0x14F6F9, size: 0x8, addend: 0x0, symName: __ZN4pyo33gil8GILGuard17acquire_unchecked17h8a1e94b066ca1ff7E, symObjAddr: 0x1C9C, symBinAddr: 0x3F370, symSize: 0x94 }
  - { offset: 0x14F75B, size: 0x8, addend: 0x0, symName: __ZN4pyo33gil8GILGuard7acquire17h089c123673b8b7edE, symObjAddr: 0x1D30, symBinAddr: 0x3F404, symSize: 0x80 }
  - { offset: 0x14F839, size: 0x8, addend: 0x0, symName: __ZN4pyo35impl_7pyclass16PyClassItemsIter3new17hd5d8c14d619cd8edE, symObjAddr: 0x2780, symBinAddr: 0x3F544, symSize: 0x28 }
  - { offset: 0x14F8BB, size: 0x8, addend: 0x0, symName: __ZN4pyo35types6module8PyModule5index17ha6a9e57655a68d11E, symObjAddr: 0x3CC4, symBinAddr: 0x3FBA8, symSize: 0x254 }
  - { offset: 0x14F9A4, size: 0x8, addend: 0x0, symName: __ZN4pyo36marker6Python14from_owned_ptr17h1d21ef67cb312c24E, symObjAddr: 0x4C04, symBinAddr: 0x3FE34, symSize: 0x24 }
  - { offset: 0x14F9F8, size: 0x8, addend: 0x0, symName: __ZN4pyo36marker6Python14from_owned_ptr17h544d0b412a3e4c8aE, symObjAddr: 0x4C94, symBinAddr: 0x3FE58, symSize: 0x24 }
  - { offset: 0x14FA3F, size: 0x8, addend: 0x0, symName: __ZN4pyo36marker6Python14from_owned_ptr17h82f9fa6a83915af4E, symObjAddr: 0x4CB8, symBinAddr: 0x3FE7C, symSize: 0x24 }
  - { offset: 0x14FA86, size: 0x8, addend: 0x0, symName: __ZN4pyo36marker6Python14from_owned_ptr17ha36f5c052a97eec1E, symObjAddr: 0x4CDC, symBinAddr: 0x3FEA0, symSize: 0x24 }
  - { offset: 0x14FAE7, size: 0x8, addend: 0x0, symName: __ZN4pyo36marker6Python14from_owned_ptr17hd29afe10d99c0cd6E, symObjAddr: 0x4D24, symBinAddr: 0x3FEC4, symSize: 0x24 }
  - { offset: 0x14FB3B, size: 0x8, addend: 0x0, symName: __ZN4pyo36marker6Python14from_owned_ptr17hd883843e35eee8ddE, symObjAddr: 0x4D6C, symBinAddr: 0x3FEE8, symSize: 0x24 }
  - { offset: 0x14FBA9, size: 0x8, addend: 0x0, symName: __ZN4pyo36marker6Python17from_borrowed_ptr17h573b9b6dee1aa308E, symObjAddr: 0x4DD8, symBinAddr: 0x3FF0C, symSize: 0x24 }
  - { offset: 0x14FBFD, size: 0x8, addend: 0x0, symName: __ZN4pyo36marker6Python17from_borrowed_ptr17h6b6afe10e41ffcebE, symObjAddr: 0x4DFC, symBinAddr: 0x3FF30, symSize: 0x24 }
  - { offset: 0x14FC44, size: 0x8, addend: 0x0, symName: __ZN4pyo36marker6Python17from_borrowed_ptr17ha1bbbb2b56d644a9E, symObjAddr: 0x4E20, symBinAddr: 0x3FF54, symSize: 0x24 }
  - { offset: 0x14FC8B, size: 0x8, addend: 0x0, symName: __ZN4pyo36marker6Python19assume_gil_acquired17h2154bc55aa9c13bfE, symObjAddr: 0x4E44, symBinAddr: 0x3FF78, symSize: 0x4 }
  - { offset: 0x14FCDF, size: 0x8, addend: 0x0, symName: __ZN4pyo36marker6Python21from_owned_ptr_or_err17h60cf34b49997a49fE, symObjAddr: 0x4F44, symBinAddr: 0x3FF7C, symSize: 0x24 }
  - { offset: 0x14FD40, size: 0x8, addend: 0x0, symName: __ZN4pyo36marker6Python21from_owned_ptr_or_err17hf7c712f653520e53E, symObjAddr: 0x5040, symBinAddr: 0x3FFA0, symSize: 0x24 }
  - { offset: 0x14FD87, size: 0x8, addend: 0x0, symName: __ZN4pyo36marker6Python21from_owned_ptr_or_opt17h19356c86f524726aE, symObjAddr: 0x50AC, symBinAddr: 0x3FFC4, symSize: 0x24 }
  - { offset: 0x14FDCE, size: 0x8, addend: 0x0, symName: __ZN4pyo36marker6Python4None17h77bca9f705465c9fE, symObjAddr: 0x51B4, symBinAddr: 0x3FFE8, symSize: 0x28 }
  - { offset: 0x14FDFD, size: 0x8, addend: 0x0, symName: __ZN4pyo36marker6Python8get_type17hb0ea17b5263a6035E, symObjAddr: 0x52D8, symBinAddr: 0x40010, symSize: 0x1C }
  - { offset: 0x14FE35, size: 0x8, addend: 0x0, symName: __ZN4pyo36marker6Python8get_type17hc8274a64a8de0b6bE, symObjAddr: 0x52F4, symBinAddr: 0x4002C, symSize: 0x1C }
  - { offset: 0x14FE6D, size: 0x8, addend: 0x0, symName: __ZN4pyo36marker6Python8with_gil17hf2a680eddd4dc11dE, symObjAddr: 0x5A04, symBinAddr: 0x40048, symSize: 0xDC }
  - { offset: 0x14FEB8, size: 0x8, addend: 0x0, symName: __ZN4pyo36pycell5impl_10BorrowFlag9decrement17h94a2a6614665ced3E, symObjAddr: 0x5AE0, symBinAddr: 0x40124, symSize: 0x40 }
  - { offset: 0x14FEDA, size: 0x8, addend: 0x0, symName: __ZN4pyo36pycell5impl_10BorrowFlag9increment17h7fec7a8360818896E, symObjAddr: 0x5B20, symBinAddr: 0x40164, symSize: 0x40 }
  - { offset: 0x14FEFC, size: 0x8, addend: 0x0, symName: '__ZN4pyo38instance11Py$LT$T$GT$13from_non_null17h0e8d829cfb954568E', symObjAddr: 0x5B60, symBinAddr: 0x401A4, symSize: 0x14 }
  - { offset: 0x14FF28, size: 0x8, addend: 0x0, symName: '__ZN4pyo38instance11Py$LT$T$GT$13into_non_null17h844129810e73f248E', symObjAddr: 0x5B74, symBinAddr: 0x401B8, symSize: 0x34 }
  - { offset: 0x14FF72, size: 0x8, addend: 0x0, symName: '__ZN4pyo38instance11Py$LT$T$GT$13into_non_null17he42c805ec3f8668eE', symObjAddr: 0x5BDC, symBinAddr: 0x401EC, symSize: 0x34 }
  - { offset: 0x14FFBC, size: 0x8, addend: 0x0, symName: '__ZN4pyo38instance11Py$LT$T$GT$14from_owned_ptr17h63e74110a62fa8b0E', symObjAddr: 0x5C58, symBinAddr: 0x40220, symSize: 0x48 }
  - { offset: 0x150003, size: 0x8, addend: 0x0, symName: '__ZN4pyo38instance11Py$LT$T$GT$14from_owned_ptr17h8308785077889d1dE', symObjAddr: 0x5CA0, symBinAddr: 0x40268, symSize: 0x48 }
  - { offset: 0x15004A, size: 0x8, addend: 0x0, symName: '__ZN4pyo38instance11Py$LT$T$GT$17from_borrowed_ptr17h1d174bbdcbe6d148E', symObjAddr: 0x5CE8, symBinAddr: 0x402B0, symSize: 0x48 }
  - { offset: 0x150091, size: 0x8, addend: 0x0, symName: '__ZN4pyo38instance11Py$LT$T$GT$17from_borrowed_ptr17h3d602f50f1df3757E', symObjAddr: 0x5D30, symBinAddr: 0x402F8, symSize: 0x48 }
  - { offset: 0x1500D8, size: 0x8, addend: 0x0, symName: '__ZN4pyo38instance11Py$LT$T$GT$17from_borrowed_ptr17h789df6a879b95ab3E', symObjAddr: 0x5DC0, symBinAddr: 0x40340, symSize: 0x48 }
  - { offset: 0x15011F, size: 0x8, addend: 0x0, symName: '__ZN4pyo38instance11Py$LT$T$GT$17from_borrowed_ptr17h921d34fb521d4356E', symObjAddr: 0x5E08, symBinAddr: 0x40388, symSize: 0x48 }
  - { offset: 0x150166, size: 0x8, addend: 0x0, symName: '__ZN4pyo38instance11Py$LT$T$GT$17from_borrowed_ptr17h93309ec65913d693E', symObjAddr: 0x5E50, symBinAddr: 0x403D0, symSize: 0x48 }
  - { offset: 0x1501AD, size: 0x8, addend: 0x0, symName: '__ZN4pyo38instance11Py$LT$T$GT$21from_owned_ptr_or_err17h042e8e4c508a19caE', symObjAddr: 0x5E98, symBinAddr: 0x40418, symSize: 0x80 }
  - { offset: 0x150212, size: 0x8, addend: 0x0, symName: '__ZN4pyo38instance11Py$LT$T$GT$21from_owned_ptr_or_err17h6e3e708664c39a4aE', symObjAddr: 0x5F98, symBinAddr: 0x40498, symSize: 0x80 }
  - { offset: 0x150277, size: 0x8, addend: 0x0, symName: '__ZN4pyo38instance11Py$LT$T$GT$21from_owned_ptr_or_err17ha550bd271f80fd27E', symObjAddr: 0x6098, symBinAddr: 0x40518, symSize: 0x80 }
  - { offset: 0x1502DC, size: 0x8, addend: 0x0, symName: '__ZN4pyo38instance11Py$LT$T$GT$21from_owned_ptr_or_opt17h2c777edcbd73466bE', symObjAddr: 0x6118, symBinAddr: 0x40598, symSize: 0x28 }
  - { offset: 0x150323, size: 0x8, addend: 0x0, symName: '__ZN4pyo38instance11Py$LT$T$GT$21from_owned_ptr_or_opt17h7afd40908cbe5a55E', symObjAddr: 0x6140, symBinAddr: 0x405C0, symSize: 0x28 }
  - { offset: 0x15036A, size: 0x8, addend: 0x0, symName: '__ZN4pyo38instance11Py$LT$T$GT$21from_owned_ptr_or_opt17ha393fa82252fc0e7E', symObjAddr: 0x6168, symBinAddr: 0x405E8, symSize: 0x28 }
  - { offset: 0x1503B1, size: 0x8, addend: 0x0, symName: '__ZN4pyo38instance11Py$LT$T$GT$21from_owned_ptr_or_opt17hcdaac7515e9aa236E', symObjAddr: 0x6190, symBinAddr: 0x40610, symSize: 0x28 }
  - { offset: 0x1503F8, size: 0x8, addend: 0x0, symName: '__ZN4pyo38instance11Py$LT$T$GT$24from_borrowed_ptr_or_opt17h2748d709bad6e3a7E', symObjAddr: 0x6208, symBinAddr: 0x40688, symSize: 0x34 }
  - { offset: 0x15043F, size: 0x8, addend: 0x0, symName: '__ZN4pyo38instance11Py$LT$T$GT$24from_borrowed_ptr_or_opt17h505fc74fc9c73b7aE', symObjAddr: 0x623C, symBinAddr: 0x406BC, symSize: 0x34 }
  - { offset: 0x150486, size: 0x8, addend: 0x0, symName: '__ZN4pyo38instance11Py$LT$T$GT$24from_borrowed_ptr_or_opt17h72c01a3c311d2f4cE', symObjAddr: 0x62A4, symBinAddr: 0x406F0, symSize: 0x34 }
  - { offset: 0x1504CD, size: 0x8, addend: 0x0, symName: '__ZN4pyo38instance11Py$LT$T$GT$24from_borrowed_ptr_or_opt17h8c54e83593787edbE', symObjAddr: 0x62D8, symBinAddr: 0x40724, symSize: 0x34 }
  - { offset: 0x150514, size: 0x8, addend: 0x0, symName: '__ZN4pyo38instance11Py$LT$T$GT$24from_borrowed_ptr_or_opt17he64e92faad5015b3E', symObjAddr: 0x630C, symBinAddr: 0x40758, symSize: 0x34 }
  - { offset: 0x150575, size: 0x8, addend: 0x0, symName: '__ZN4pyo38instance11Py$LT$T$GT$6as_ptr17h548166c52a358838E', symObjAddr: 0x6968, symBinAddr: 0x40C50, symSize: 0x1C }
  - { offset: 0x1505AE, size: 0x8, addend: 0x0, symName: '__ZN4pyo38instance11Py$LT$T$GT$6as_ptr17h6df3521e1bda6d67E', symObjAddr: 0x6984, symBinAddr: 0x40C6C, symSize: 0x1C }
  - { offset: 0x1505E7, size: 0x8, addend: 0x0, symName: '__ZN4pyo38instance11Py$LT$T$GT$6as_ptr17h75813f5776b217a4E', symObjAddr: 0x69A0, symBinAddr: 0x40C88, symSize: 0x1C }
  - { offset: 0x150620, size: 0x8, addend: 0x0, symName: '__ZN4pyo38instance11Py$LT$T$GT$6as_ptr17hc4794b08699a89ddE', symObjAddr: 0x69F4, symBinAddr: 0x40CA4, symSize: 0x1C }
  - { offset: 0x150659, size: 0x8, addend: 0x0, symName: '__ZN4pyo38instance11Py$LT$T$GT$6as_ptr17hc8c098b2ac6197bbE', symObjAddr: 0x6A10, symBinAddr: 0x40CC0, symSize: 0x1C }
  - { offset: 0x150692, size: 0x8, addend: 0x0, symName: '__ZN4pyo38instance11Py$LT$T$GT$6as_ptr17he44a51c029173b8fE', symObjAddr: 0x6A48, symBinAddr: 0x40CDC, symSize: 0x1C }
  - { offset: 0x1506BE, size: 0x8, addend: 0x0, symName: '__ZN4pyo38instance11Py$LT$T$GT$6as_ref17h0ab61257d0f2cf6aE', symObjAddr: 0x6ADC, symBinAddr: 0x40CF8, symSize: 0x78 }
  - { offset: 0x15071B, size: 0x8, addend: 0x0, symName: '__ZN4pyo38instance11Py$LT$T$GT$6as_ref17h0c5f19e162441102E', symObjAddr: 0x6B54, symBinAddr: 0x40D70, symSize: 0x78 }
  - { offset: 0x150778, size: 0x8, addend: 0x0, symName: '__ZN4pyo38instance11Py$LT$T$GT$6as_ref17h162dba9da25715e5E', symObjAddr: 0x6BCC, symBinAddr: 0x40DE8, symSize: 0x78 }
  - { offset: 0x1507D5, size: 0x8, addend: 0x0, symName: '__ZN4pyo38instance11Py$LT$T$GT$6as_ref17ha64ddc61fd5d7f15E', symObjAddr: 0x6C44, symBinAddr: 0x40E60, symSize: 0x78 }
  - { offset: 0x150832, size: 0x8, addend: 0x0, symName: '__ZN4pyo38instance11Py$LT$T$GT$6as_ref17hbb9ea3457597235fE', symObjAddr: 0x6CBC, symBinAddr: 0x40ED8, symSize: 0x78 }
  - { offset: 0x15089C, size: 0x8, addend: 0x0, symName: '__ZN4pyo38instance11Py$LT$T$GT$6as_ref17heaeed52733d7bc89E', symObjAddr: 0x6D34, symBinAddr: 0x40F50, symSize: 0x78 }
  - { offset: 0x1508F9, size: 0x8, addend: 0x0, symName: '__ZN4pyo38instance11Py$LT$T$GT$8into_ptr17h00a753e895908aabE', symObjAddr: 0x6F38, symBinAddr: 0x40FC8, symSize: 0x88 }
  - { offset: 0x150961, size: 0x8, addend: 0x0, symName: '__ZN4pyo38instance11Py$LT$T$GT$8into_ptr17h4ce4fd8912adf23fE', symObjAddr: 0x7048, symBinAddr: 0x41050, symSize: 0x88 }
  - { offset: 0x1509C9, size: 0x8, addend: 0x0, symName: '__ZN4pyo38instance11Py$LT$T$GT$8into_ptr17ha3d55053cf5048c6E', symObjAddr: 0x7158, symBinAddr: 0x410D8, symSize: 0x88 }
  - { offset: 0x150A31, size: 0x8, addend: 0x0, symName: '__ZN4pyo38instance11Py$LT$T$GT$8into_ptr17hcfdb8d3513bccba4E', symObjAddr: 0x72F0, symBinAddr: 0x41160, symSize: 0x88 }
  - { offset: 0x150A99, size: 0x8, addend: 0x0, symName: '__ZN4pyo38instance11Py$LT$T$GT$8into_ref17hedfa4f53ec6574b6E', symObjAddr: 0x73A0, symBinAddr: 0x411E8, symSize: 0x28 }
  - { offset: 0x150AE0, size: 0x8, addend: 0x0, symName: '__ZN4pyo38instance11Py$LT$T$GT$9clone_ref17h32fdab700cdf67f0E', symObjAddr: 0x73C8, symBinAddr: 0x41210, symSize: 0x2C }
  - { offset: 0x150B27, size: 0x8, addend: 0x0, symName: '__ZN4pyo38instance11Py$LT$T$GT$9clone_ref17h8308883518e48e6fE', symObjAddr: 0x73F4, symBinAddr: 0x4123C, symSize: 0x2C }
  - { offset: 0x150BC0, size: 0x8, addend: 0x0, symName: '__ZN5alloc7raw_vec19RawVec$LT$T$C$A$GT$8grow_one17h08329cde290d9519E', symObjAddr: 0x7718, symBinAddr: 0x41320, symSize: 0x88 }
  - { offset: 0x150C70, size: 0x8, addend: 0x0, symName: '__ZN5alloc7raw_vec19RawVec$LT$T$C$A$GT$8grow_one17h14efca690b15f1cbE', symObjAddr: 0x77A0, symBinAddr: 0x413A8, symSize: 0x88 }
  - { offset: 0x150D20, size: 0x8, addend: 0x0, symName: '__ZN5alloc7raw_vec19RawVec$LT$T$C$A$GT$8grow_one17h30bac6d118bf7eebE', symObjAddr: 0x7828, symBinAddr: 0x41430, symSize: 0x84 }
  - { offset: 0x150E15, size: 0x8, addend: 0x0, symName: '__ZN5alloc7raw_vec19RawVec$LT$T$C$A$GT$8grow_one17h45a7fde4ca858d66E', symObjAddr: 0x78AC, symBinAddr: 0x414B4, symSize: 0x88 }
  - { offset: 0x150EC5, size: 0x8, addend: 0x0, symName: '__ZN5alloc7raw_vec19RawVec$LT$T$C$A$GT$8grow_one17h4d8e590cfafe0c31E', symObjAddr: 0x7934, symBinAddr: 0x4153C, symSize: 0x88 }
  - { offset: 0x150F75, size: 0x8, addend: 0x0, symName: '__ZN5alloc7raw_vec19RawVec$LT$T$C$A$GT$8grow_one17hacb275b615d46da0E', symObjAddr: 0x79BC, symBinAddr: 0x415C4, symSize: 0x88 }
  - { offset: 0x151032, size: 0x8, addend: 0x0, symName: '__ZN5alloc7raw_vec19RawVec$LT$T$C$A$GT$8grow_one17he63aabad3daad272E', symObjAddr: 0x7A44, symBinAddr: 0x4164C, symSize: 0x88 }
  - { offset: 0x1510E2, size: 0x8, addend: 0x0, symName: '__ZN5alloc7raw_vec19RawVec$LT$T$C$A$GT$8grow_one17hee86b4c919f709abE', symObjAddr: 0x7ACC, symBinAddr: 0x416D4, symSize: 0x84 }
  - { offset: 0x15140A, size: 0x8, addend: 0x0, symName: '__ZN45_$LT$T$u20$as$u20$alloc..string..ToString$GT$9to_string17hbeb6722aeace094bE', symObjAddr: 0x378, symBinAddr: 0x4274C, symSize: 0x24 }
  - { offset: 0x151447, size: 0x8, addend: 0x0, symName: '__ZN49_$LT$T$u20$as$u20$alloc..string..SpecToString$GT$14spec_to_string17hcbe1cf830d6a870cE', symObjAddr: 0x490, symBinAddr: 0x42770, symSize: 0xF4 }
  - { offset: 0x151AA4, size: 0x8, addend: 0x0, symName: '__ZN70_$LT$core..num..error..TryFromIntError$u20$as$u20$core..fmt..Debug$GT$3fmt17h0ad9e14c0f537f87E', symObjAddr: 0x7450, symBinAddr: 0x43A34, symSize: 0x54 }
  - { offset: 0x152A18, size: 0x8, addend: 0x0, symName: __ZN4core3cmp9PartialEq2ne17h7c81c44cb45526a3E, symObjAddr: 0x714, symBinAddr: 0x4292C, symSize: 0x30 }
  - { offset: 0x152B86, size: 0x8, addend: 0x0, symName: '__ZN100_$LT$core..array..iter..iter_inner..PolymorphicIter$LT$DATA$GT$$u20$as$u20$core..ops..drop..Drop$GT$4drop17h9ee10532284ff757E', symObjAddr: 0x30, symBinAddr: 0x42658, symSize: 0x30 }
  - { offset: 0x152FE9, size: 0x8, addend: 0x0, symName: '__ZN44_$LT$$RF$T$u20$as$u20$core..fmt..Display$GT$3fmt17hf2d5b8796472437fE', symObjAddr: 0x324, symBinAddr: 0x4271C, symSize: 0x30 }
  - { offset: 0x1531FF, size: 0x8, addend: 0x0, symName: '__ZN4core5slice29_$LT$impl$u20$$u5b$T$u5d$$GT$8contains17h2fe535cf7a388920E', symObjAddr: 0xAE8, symBinAddr: 0x42AEC, symSize: 0x48 }
  - { offset: 0x1532A7, size: 0x8, addend: 0x0, symName: __ZN4core5slice6memchr6memchr17hd498baf61124c131E, symObjAddr: 0xB30, symBinAddr: 0x42B34, symSize: 0x114 }
  - { offset: 0x153375, size: 0x8, addend: 0x0, symName: '__ZN53_$LT$T$u20$as$u20$core..slice..cmp..SliceContains$GT$14slice_contains17h396758f490a7cf38E', symObjAddr: 0x6AC8, symBinAddr: 0x43664, symSize: 0x78 }
  - { offset: 0x157E00, size: 0x8, addend: 0x0, symName: '__ZN50_$LT$T$u20$as$u20$core..convert..Into$LT$U$GT$$GT$4into17h043c90aae6f75748E', symObjAddr: 0x6A88, symBinAddr: 0x43624, symSize: 0x24 }
  - { offset: 0x157E40, size: 0x8, addend: 0x0, symName: '__ZN50_$LT$T$u20$as$u20$core..convert..Into$LT$U$GT$$GT$4into17h30ee25d3d8ba9b1eE', symObjAddr: 0x6AAC, symBinAddr: 0x43648, symSize: 0x1C }
  - { offset: 0x157EB3, size: 0x8, addend: 0x0, symName: __ZN4pyo35types3any5PyAny7getattr5inner17heff515ae92f70a04E, symObjAddr: 0x3D84, symBinAddr: 0x42FC4, symSize: 0x4C }
  - { offset: 0x157EF2, size: 0x8, addend: 0x0, symName: '__ZN4pyo35types3any5PyAny7getattr5inner28_$u7b$$u7b$closure$u7d$$u7d$17h7db80442e23e5153E', symObjAddr: 0x3DD0, symBinAddr: 0x43010, symSize: 0x90 }
  - { offset: 0x157F35, size: 0x8, addend: 0x0, symName: __ZN4pyo35types3any5PyAny7setattr5inner17he341c5d7288099f8E, symObjAddr: 0x4300, symBinAddr: 0x432C4, symSize: 0xDC }
  - { offset: 0x15940E, size: 0x8, addend: 0x0, symName: __ZN4pyo35types3any14PyObject_Check17h8c88536a5abf935aE, symObjAddr: 0x2E44, symBinAddr: 0x42CF8, symSize: 0x14 }
  - { offset: 0x15943B, size: 0x8, addend: 0x0, symName: '__ZN62_$LT$pyo3..types..any..PyAny$u20$as$u20$core..fmt..Display$GT$3fmt17h4fa50c8ef14d2b15E', symObjAddr: 0x6D14, symBinAddr: 0x437B8, symSize: 0x250 }
  - { offset: 0x159515, size: 0x8, addend: 0x0, symName: '__ZN73_$LT$pyo3..types..any..PyAny$u20$as$u20$pyo3..type_object..PyTypeInfo$GT$10is_type_of17hf76b4dedc4bf5c5fE', symObjAddr: 0x74CC, symBinAddr: 0x43A88, symSize: 0x30 }
  - { offset: 0x159547, size: 0x8, addend: 0x0, symName: '__ZN78_$LT$$RF$pyo3..types..any..PyAny$u20$as$u20$pyo3..conversion..FromPyObject$GT$7extract17h7f1b43753ce99bd2E', symObjAddr: 0x752C, symBinAddr: 0x43AB8, symSize: 0x3C }
  - { offset: 0x1599EE, size: 0x8, addend: 0x0, symName: __ZN4pyo38instance12PyNativeType18unchecked_downcast17h5a5d6ddca5a7499bE, symObjAddr: 0x6988, symBinAddr: 0x43594, symSize: 0x70 }
  - { offset: 0x159A23, size: 0x8, addend: 0x0, symName: __ZN4pyo38instance12PyNativeType2py17h747674330561f9efE, symObjAddr: 0x6A68, symBinAddr: 0x43604, symSize: 0x20 }
  - { offset: 0x159A60, size: 0x8, addend: 0x0, symName: '__ZN49_$LT$T$u20$as$u20$pyo3..conversion..PyTryFrom$GT$18try_from_unchecked17h4495d563df811b60E', symObjAddr: 0x5B4, symBinAddr: 0x42864, symSize: 0x30 }
  - { offset: 0x159AA0, size: 0x8, addend: 0x0, symName: '__ZN49_$LT$T$u20$as$u20$pyo3..conversion..PyTryFrom$GT$8try_from17h49ab81ed73015228E', symObjAddr: 0x5E4, symBinAddr: 0x42894, symSize: 0x98 }
  - { offset: 0x159B04, size: 0x8, addend: 0x0, symName: __ZN4pyo310conversion13FromPyPointer14from_owned_ptr17h576ae9fb69aede6eE, symObjAddr: 0xC44, symBinAddr: 0x42C48, symSize: 0x24 }
  - { offset: 0x159B56, size: 0x8, addend: 0x0, symName: __ZN4pyo310conversion13FromPyPointer17from_borrowed_ptr17h606ca436bdfb8065E, symObjAddr: 0xC68, symBinAddr: 0x42C6C, symSize: 0x24 }
  - { offset: 0x159BA8, size: 0x8, addend: 0x0, symName: __ZN4pyo310conversion13FromPyPointer23from_owned_ptr_or_panic17hc62fc0e6c2ee550aE, symObjAddr: 0xCC0, symBinAddr: 0x42C90, symSize: 0x34 }
  - { offset: 0x159BFA, size: 0x8, addend: 0x0, symName: __ZN4pyo310conversion13FromPyPointer26from_borrowed_ptr_or_panic17h319671aef9b6b9deE, symObjAddr: 0xD28, symBinAddr: 0x42CC4, symSize: 0x34 }
  - { offset: 0x159C52, size: 0x8, addend: 0x0, symName: '__ZN53_$LT$T$u20$as$u20$pyo3..conversion..FromPyPointer$GT$21from_owned_ptr_or_opt17h3eed550f50ffb79cE', symObjAddr: 0x6B40, symBinAddr: 0x436DC, symSize: 0xB4 }
  - { offset: 0x159CC2, size: 0x8, addend: 0x0, symName: '__ZN53_$LT$T$u20$as$u20$pyo3..conversion..FromPyPointer$GT$24from_borrowed_ptr_or_opt17ha7917409d703f70dE', symObjAddr: 0x6BF4, symBinAddr: 0x43790, symSize: 0x28 }
  - { offset: 0x15ACA6, size: 0x8, addend: 0x0, symName: __ZN8pyo3_ffi11bytesobject13PyBytes_Check17h7f9c4183a0df8a8dE, symObjAddr: 0x75B4, symBinAddr: 0x43B04, symSize: 0x30 }
  - { offset: 0x15B286, size: 0x8, addend: 0x0, symName: '__ZN78_$LT$$u21$$u20$as$u20$std..sys..thread_local..native..lazy..DestroyedState$GT$13register_dtor17h90f9fe74f17d5086E', symObjAddr: 0x7568, symBinAddr: 0x43AF4, symSize: 0x10 }
  - { offset: 0x15B2DC, size: 0x8, addend: 0x0, symName: '__ZN66_$LT$std..thread..id..ThreadId$u20$as$u20$core..cmp..PartialEq$GT$2eq17h178278c97bae7963E', symObjAddr: 0x73AC, symBinAddr: 0x43A08, symSize: 0x2C }
  - { offset: 0x15B400, size: 0x8, addend: 0x0, symName: '__ZN3std3sys12thread_local6native4lazy20Storage$LT$T$C$D$GT$11get_or_init17h4443d9bf5af08ffbE', symObjAddr: 0x88, symBinAddr: 0x42688, symSize: 0x94 }
  - { offset: 0x15B62C, size: 0x8, addend: 0x0, symName: '__ZN3std3sys12thread_local6native4lazy20Storage$LT$T$C$D$GT$16get_or_init_slow17hc0f137289204f00cE', symObjAddr: 0x11C, symBinAddr: 0x9F2B8, symSize: 0x1D8 }
  - { offset: 0x15B9D5, size: 0x8, addend: 0x0, symName: '__ZN4core3mem13manually_drop21ManuallyDrop$LT$T$GT$4drop17h35afc41840f2c148E', symObjAddr: 0x744, symBinAddr: 0x4295C, symSize: 0x20 }
  - { offset: 0x15BB44, size: 0x8, addend: 0x0, symName: '__ZN4core5array4iter10iter_inner78PolymorphicIter$LT$$u5b$core..mem..maybe_uninit..MaybeUninit$LT$T$GT$$u5d$$GT$4next17h0ef7a8c2d4dc70e6E', symObjAddr: 0x764, symBinAddr: 0x4297C, symSize: 0x170 }
  - { offset: 0x15BE48, size: 0x8, addend: 0x0, symName: __ZN4pyo35types3any5PyAny14downcast_exact17h0e3d0e970184695fE, symObjAddr: 0x308C, symBinAddr: 0x42D0C, symSize: 0x24 }
  - { offset: 0x15BEA8, size: 0x8, addend: 0x0, symName: __ZN4pyo35types3any5PyAny18downcast_unchecked17h9d572626cc928f64E, symObjAddr: 0x311C, symBinAddr: 0x42D30, symSize: 0x24 }
  - { offset: 0x15BEFB, size: 0x8, addend: 0x0, symName: __ZN4pyo35types3any5PyAny2is17h7e4ba68d4b6b0379E, symObjAddr: 0x3188, symBinAddr: 0x42D54, symSize: 0x4C }
  - { offset: 0x15BF34, size: 0x8, addend: 0x0, symName: __ZN4pyo35types3any5PyAny2py17hcdaf96a489c82fe5E, symObjAddr: 0x31D4, symBinAddr: 0x42DA0, symSize: 0x24 }
  - { offset: 0x15BF71, size: 0x8, addend: 0x0, symName: __ZN4pyo35types3any5PyAny3str17h6ee0c140952b1de2E, symObjAddr: 0x32EC, symBinAddr: 0x42DC4, symSize: 0x40 }
  - { offset: 0x15BFEC, size: 0x8, addend: 0x0, symName: __ZN4pyo35types3any5PyAny4iter17h1b8e513eedadc9b3E, symObjAddr: 0x37D0, symBinAddr: 0x42E04, symSize: 0x24 }
  - { offset: 0x15C00F, size: 0x8, addend: 0x0, symName: __ZN4pyo35types3any5PyAny4repr17hb0c327ab101683c0E, symObjAddr: 0x37F4, symBinAddr: 0x42E28, symSize: 0x40 }
  - { offset: 0x15C032, size: 0x8, addend: 0x0, symName: __ZN4pyo35types3any5PyAny6as_ptr17h6df47e108e6ba216E, symObjAddr: 0x390C, symBinAddr: 0x42E68, symSize: 0x14 }
  - { offset: 0x15C055, size: 0x8, addend: 0x0, symName: __ZN4pyo35types3any5PyAny7extract17h196e4308db30b3f9E, symObjAddr: 0x3A34, symBinAddr: 0x42E7C, symSize: 0x24 }
  - { offset: 0x15C088, size: 0x8, addend: 0x0, symName: __ZN4pyo35types3any5PyAny7extract17h2336558b1511e2b1E, symObjAddr: 0x3A58, symBinAddr: 0x42EA0, symSize: 0x24 }
  - { offset: 0x15C0B4, size: 0x8, addend: 0x0, symName: __ZN4pyo35types3any5PyAny7extract17h6bd86be05dcbb750E, symObjAddr: 0x3A7C, symBinAddr: 0x42EC4, symSize: 0x24 }
  - { offset: 0x15C0E7, size: 0x8, addend: 0x0, symName: __ZN4pyo35types3any5PyAny7extract17h9c7f584a526ad059E, symObjAddr: 0x3B0C, symBinAddr: 0x42EE8, symSize: 0x24 }
  - { offset: 0x15C11A, size: 0x8, addend: 0x0, symName: __ZN4pyo35types3any5PyAny7extract17hab1c9c10c276ae6eE, symObjAddr: 0x3B54, symBinAddr: 0x42F0C, symSize: 0x24 }
  - { offset: 0x15C160, size: 0x8, addend: 0x0, symName: __ZN4pyo35types3any5PyAny7getattr17h7364e478eefca3d9E, symObjAddr: 0x3CF0, symBinAddr: 0x42F30, symSize: 0x94 }
  - { offset: 0x15C199, size: 0x8, addend: 0x0, symName: __ZN4pyo35types3any5PyAny7setattr17h663fad3145b34566E, symObjAddr: 0x40DC, symBinAddr: 0x430A0, symSize: 0x128 }
  - { offset: 0x15C1FE, size: 0x8, addend: 0x0, symName: __ZN4pyo35types3any5PyAny7setattr17h99ba480dc94e7b7dE, symObjAddr: 0x4204, symBinAddr: 0x431C8, symSize: 0xFC }
  - { offset: 0x15C263, size: 0x8, addend: 0x0, symName: __ZN4pyo35types3any5PyAny8_getattr17hfa2ea3b5dff50d7bE, symObjAddr: 0x4764, symBinAddr: 0x433A0, symSize: 0x9C }
  - { offset: 0x15C349, size: 0x8, addend: 0x0, symName: __ZN4pyo35types3any5PyAny8downcast17h238d491a63ae6cc7E, symObjAddr: 0x4A94, symBinAddr: 0x4343C, symSize: 0x24 }
  - { offset: 0x15C411, size: 0x8, addend: 0x0, symName: __ZN4pyo35types3any5PyAny8downcast17h3fba47f3826c161eE, symObjAddr: 0x4C8C, symBinAddr: 0x43460, symSize: 0x24 }
  - { offset: 0x15C471, size: 0x8, addend: 0x0, symName: __ZN4pyo35types3any5PyAny8downcast17h466fdcc0489ff274E, symObjAddr: 0x4D1C, symBinAddr: 0x43484, symSize: 0x24 }
  - { offset: 0x15C4AA, size: 0x8, addend: 0x0, symName: __ZN4pyo35types3any5PyAny8downcast17h4aa07e64eac16f54E, symObjAddr: 0x4D64, symBinAddr: 0x434A8, symSize: 0x24 }
  - { offset: 0x15C53E, size: 0x8, addend: 0x0, symName: __ZN4pyo35types3any5PyAny8downcast17h6d61059db497ac3bE, symObjAddr: 0x4EF0, symBinAddr: 0x434CC, symSize: 0x24 }
  - { offset: 0x15C5EC, size: 0x8, addend: 0x0, symName: __ZN4pyo35types3any5PyAny8downcast17h90e585619e6a4a3fE, symObjAddr: 0x50A0, symBinAddr: 0x434F0, symSize: 0x24 }
  - { offset: 0x15C806, size: 0x8, addend: 0x0, symName: __ZN4pyo35types3any5PyAny8downcast17hde691d8e17a4c5caE, symObjAddr: 0x5664, symBinAddr: 0x43514, symSize: 0x24 }
  - { offset: 0x15C880, size: 0x8, addend: 0x0, symName: __ZN4pyo35types3any5PyAny8downcast17hec92c9d9d57c03b1E, symObjAddr: 0x573C, symBinAddr: 0x43538, symSize: 0x24 }
  - { offset: 0x15C921, size: 0x8, addend: 0x0, symName: __ZN4pyo35types3any5PyAny8get_type17h73029b52db18c291E, symObjAddr: 0x5940, symBinAddr: 0x4355C, symSize: 0x38 }
  - { offset: 0x15CBB0, size: 0x8, addend: 0x0, symName: '__ZN103_$LT$alloc..vec..into_iter..IntoIter$LT$T$C$A$GT$$u20$as$u20$core..iter..traits..iterator..Iterator$GT$4next17h07a64ac6ab800525E', symObjAddr: 0x100, symBinAddr: 0x43BC4, symSize: 0x88 }
  - { offset: 0x15CD0A, size: 0x8, addend: 0x0, symName: '__ZN103_$LT$alloc..vec..into_iter..IntoIter$LT$T$C$A$GT$$u20$as$u20$core..iter..traits..iterator..Iterator$GT$4next17h19d5e96dfd65ae60E', symObjAddr: 0x188, symBinAddr: 0x43C4C, symSize: 0x94 }
  - { offset: 0x15CE64, size: 0x8, addend: 0x0, symName: '__ZN103_$LT$alloc..vec..into_iter..IntoIter$LT$T$C$A$GT$$u20$as$u20$core..iter..traits..iterator..Iterator$GT$4next17h3cc92e300e4d4bf9E', symObjAddr: 0x21C, symBinAddr: 0x43CE0, symSize: 0xAC }
  - { offset: 0x15CFC2, size: 0x8, addend: 0x0, symName: '__ZN103_$LT$alloc..vec..into_iter..IntoIter$LT$T$C$A$GT$$u20$as$u20$core..iter..traits..iterator..Iterator$GT$9size_hint17h034dd5b48a6eef65E', symObjAddr: 0x2C8, symBinAddr: 0x43D8C, symSize: 0xB4 }
  - { offset: 0x15D0DB, size: 0x8, addend: 0x0, symName: '__ZN103_$LT$alloc..vec..into_iter..IntoIter$LT$T$C$A$GT$$u20$as$u20$core..iter..traits..iterator..Iterator$GT$9size_hint17h5927a2041807e242E', symObjAddr: 0x37C, symBinAddr: 0x43E40, symSize: 0xB4 }
  - { offset: 0x15D1F4, size: 0x8, addend: 0x0, symName: '__ZN103_$LT$alloc..vec..into_iter..IntoIter$LT$T$C$A$GT$$u20$as$u20$core..iter..traits..iterator..Iterator$GT$9size_hint17h644fe826555133f7E', symObjAddr: 0x430, symBinAddr: 0x43EF4, symSize: 0xB4 }
  - { offset: 0x15D31D, size: 0x8, addend: 0x0, symName: '__ZN157_$LT$$LT$alloc..vec..into_iter..IntoIter$LT$T$C$A$GT$$u20$as$u20$core..ops..drop..Drop$GT$..drop..DropGuard$LT$T$C$A$GT$$u20$as$u20$core..ops..drop..Drop$GT$4drop17h4a0432a408857db1E', symObjAddr: 0xC40, symBinAddr: 0x44390, symSize: 0x6C }
  - { offset: 0x15D460, size: 0x8, addend: 0x0, symName: '__ZN157_$LT$$LT$alloc..vec..into_iter..IntoIter$LT$T$C$A$GT$$u20$as$u20$core..ops..drop..Drop$GT$..drop..DropGuard$LT$T$C$A$GT$$u20$as$u20$core..ops..drop..Drop$GT$4drop17hbc9f7eb50dbb0886E', symObjAddr: 0xCAC, symBinAddr: 0x443FC, symSize: 0x6C }
  - { offset: 0x15D5A3, size: 0x8, addend: 0x0, symName: '__ZN157_$LT$$LT$alloc..vec..into_iter..IntoIter$LT$T$C$A$GT$$u20$as$u20$core..ops..drop..Drop$GT$..drop..DropGuard$LT$T$C$A$GT$$u20$as$u20$core..ops..drop..Drop$GT$4drop17hd70601949ab5c61bE', symObjAddr: 0xD18, symBinAddr: 0x44468, symSize: 0x6C }
  - { offset: 0x15D75D, size: 0x8, addend: 0x0, symName: '__ZN86_$LT$alloc..vec..into_iter..IntoIter$LT$T$C$A$GT$$u20$as$u20$core..ops..drop..Drop$GT$4drop17h62e93cca365837ddE', symObjAddr: 0x6B84, symBinAddr: 0x483D4, symSize: 0x78 }
  - { offset: 0x15D7AF, size: 0x8, addend: 0x0, symName: '__ZN86_$LT$alloc..vec..into_iter..IntoIter$LT$T$C$A$GT$$u20$as$u20$core..ops..drop..Drop$GT$4drop17ha55d785a0d695324E', symObjAddr: 0x6BFC, symBinAddr: 0x4844C, symSize: 0x78 }
  - { offset: 0x15D801, size: 0x8, addend: 0x0, symName: '__ZN86_$LT$alloc..vec..into_iter..IntoIter$LT$T$C$A$GT$$u20$as$u20$core..ops..drop..Drop$GT$4drop17hce7e6f24c12ec1abE', symObjAddr: 0x6C74, symBinAddr: 0x484C4, symSize: 0x64 }
  - { offset: 0x15EA11, size: 0x8, addend: 0x0, symName: '__ZN4core3ptr101drop_in_place$LT$core..option..Option$LT$pyo3..pyclass..create_type_object..PyClassTypeObject$GT$$GT$17hcc7c517da4d0af11E', symObjAddr: 0x222C, symBinAddr: 0x45164, symSize: 0x48 }
  - { offset: 0x15EA40, size: 0x8, addend: 0x0, symName: '__ZN4core3ptr101drop_in_place$LT$core..result..Result$LT$$RF$pyo3..types..string..PyString$C$pyo3..err..PyErr$GT$$GT$17h9f06f86d09b74c24E', symObjAddr: 0x2274, symBinAddr: 0x451AC, symSize: 0x40 }
  - { offset: 0x15EA6F, size: 0x8, addend: 0x0, symName: '__ZN4core3ptr104drop_in_place$LT$core..option..Option$LT$pyo3..instance..Py$LT$pyo3..types..module..PyModule$GT$$GT$$GT$17hc65b3b5ba9ffecfdE', symObjAddr: 0x22FC, symBinAddr: 0x451EC, symSize: 0x44 }
  - { offset: 0x15EA9E, size: 0x8, addend: 0x0, symName: '__ZN4core3ptr104drop_in_place$LT$core..option..Option$LT$pyo3..instance..Py$LT$pyo3..types..string..PyString$GT$$GT$$GT$17h864747ad7f0a42a4E', symObjAddr: 0x2340, symBinAddr: 0x45230, symSize: 0x44 }
  - { offset: 0x15EACD, size: 0x8, addend: 0x0, symName: '__ZN4core3ptr105drop_in_place$LT$alloc..raw_vec..RawVec$LT$pyo3..pyclass..create_type_object..GetSetDefDestructor$GT$$GT$17h17574d5ca4352bccE', symObjAddr: 0x2384, symBinAddr: 0x45274, symSize: 0x24 }
  - { offset: 0x15EAFC, size: 0x8, addend: 0x0, symName: '__ZN4core3ptr106drop_in_place$LT$alloc..vec..Vec$LT$core..ptr..non_null..NonNull$LT$pyo3_ffi..object..PyObject$GT$$GT$$GT$17h13272cd05601839fE', symObjAddr: 0x23A8, symBinAddr: 0x45298, symSize: 0x5C }
  - { offset: 0x15EB2B, size: 0x8, addend: 0x0, symName: '__ZN4core3ptr106drop_in_place$LT$core..option..Option$LT$pyo3..instance..Py$LT$pyo3..types..typeobject..PyType$GT$$GT$$GT$17h8cd61356aebf9899E', symObjAddr: 0x2404, symBinAddr: 0x452F4, symSize: 0x44 }
  - { offset: 0x15EB5A, size: 0x8, addend: 0x0, symName: '__ZN4core3ptr108drop_in_place$LT$core..option..Option$LT$pyo3..instance..Py$LT$pyo3..exceptions..PyBaseException$GT$$GT$$GT$17h8532d47d93644aa0E', symObjAddr: 0x246C, symBinAddr: 0x45338, symSize: 0x44 }
  - { offset: 0x15EB89, size: 0x8, addend: 0x0, symName: '__ZN4core3ptr110drop_in_place$LT$core..option..Option$LT$pyo3..instance..Py$LT$pyo3..types..traceback..PyTraceback$GT$$GT$$GT$17h8744211cf4ed0c45E', symObjAddr: 0x251C, symBinAddr: 0x4537C, symSize: 0x44 }
  - { offset: 0x15EBB8, size: 0x8, addend: 0x0, symName: '__ZN4core3ptr111drop_in_place$LT$core..cell..UnsafeCell$LT$core..option..Option$LT$pyo3..err..err_state..PyErrState$GT$$GT$$GT$17hf4be3fd8a95b0d8dE', symObjAddr: 0x2560, symBinAddr: 0x453C0, symSize: 0x24 }
  - { offset: 0x15EBE7, size: 0x8, addend: 0x0, symName: '__ZN4core3ptr111drop_in_place$LT$core..result..Result$LT$$RF$pyo3..types..floatob..PyFloat$C$pyo3..err..PyDowncastError$GT$$GT$17h8db74773e7be3111E', symObjAddr: 0x2584, symBinAddr: 0x453E4, symSize: 0x48 }
  - { offset: 0x15EC16, size: 0x8, addend: 0x0, symName: '__ZN4core3ptr112drop_in_place$LT$core..result..Result$LT$$LP$$RP$$C$pyo3..pyclass..create_type_object..PyClassTypeObject$GT$$GT$17h69e56f2685e08d60E', symObjAddr: 0x25CC, symBinAddr: 0x4542C, symSize: 0x48 }
  - { offset: 0x15EC45, size: 0x8, addend: 0x0, symName: '__ZN4core3ptr113drop_in_place$LT$alloc..raw_vec..RawVec$LT$core..ptr..non_null..NonNull$LT$pyo3_ffi..object..PyObject$GT$$GT$$GT$17h0ff0b2b870293ea2E', symObjAddr: 0x2614, symBinAddr: 0x45474, symSize: 0x24 }
  - { offset: 0x15EC74, size: 0x8, addend: 0x0, symName: '__ZN4core3ptr114drop_in_place$LT$core..pin..Pin$LT$alloc..sync..Arc$LT$std..thread..thread..Inner$C$std..alloc..System$GT$$GT$$GT$17h3b456292aa31a991E', symObjAddr: 0x2638, symBinAddr: 0x45498, symSize: 0x24 }
  - { offset: 0x15ECA3, size: 0x8, addend: 0x0, symName: '__ZN4core3ptr114drop_in_place$LT$pyo3..impl_..pyclass..lazy_type_object..LazyTypeObjectInner..ensure_init..InitializationGuard$GT$17h1173a41d0ca292d0E', symObjAddr: 0x265C, symBinAddr: 0x454BC, symSize: 0x24 }
  - { offset: 0x15ECD2, size: 0x8, addend: 0x0, symName: '__ZN4core3ptr115drop_in_place$LT$core..array..iter..IntoIter$LT$pyo3..instance..Py$LT$pyo3..types..any..PyAny$GT$$C$1_usize$GT$$GT$17h194efca984e55647E', symObjAddr: 0x2680, symBinAddr: 0x454E0, symSize: 0x24 }
  - { offset: 0x15ED01, size: 0x8, addend: 0x0, symName: '__ZN4core3ptr115drop_in_place$LT$core..result..Result$LT$$LP$$RP$$C$pyo3..instance..Py$LT$pyo3..types..module..PyModule$GT$$GT$$GT$17h4d1be57461c5c314E', symObjAddr: 0x26C8, symBinAddr: 0x45504, symSize: 0x44 }
  - { offset: 0x15ED30, size: 0x8, addend: 0x0, symName: '__ZN4core3ptr115drop_in_place$LT$core..result..Result$LT$$LP$$RP$$C$pyo3..instance..Py$LT$pyo3..types..string..PyString$GT$$GT$$GT$17h33fad2cf58d96237E', symObjAddr: 0x270C, symBinAddr: 0x45548, symSize: 0x44 }
  - { offset: 0x15ED5F, size: 0x8, addend: 0x0, symName: '__ZN4core3ptr115drop_in_place$LT$core..result..Result$LT$$RF$pyo3..exceptions..PyBaseException$C$pyo3..err..PyDowncastError$GT$$GT$17hb5bb5a1dfd00ff01E', symObjAddr: 0x2750, symBinAddr: 0x4558C, symSize: 0x48 }
  - { offset: 0x15ED8E, size: 0x8, addend: 0x0, symName: '__ZN4core3ptr117drop_in_place$LT$core..result..Result$LT$$LP$$RP$$C$pyo3..instance..Py$LT$pyo3..types..typeobject..PyType$GT$$GT$$GT$17h015a9c6e6cd32c83E', symObjAddr: 0x2798, symBinAddr: 0x455D4, symSize: 0x44 }
  - { offset: 0x15EDBD, size: 0x8, addend: 0x0, symName: '__ZN4core3ptr121drop_in_place$LT$core..option..Option$LT$core..result..Result$LT$core..convert..Infallible$C$pyo3..err..PyErr$GT$$GT$$GT$17h5d59a07ad9d7ca9cE', symObjAddr: 0x282C, symBinAddr: 0x45618, symSize: 0x40 }
  - { offset: 0x15EDEC, size: 0x8, addend: 0x0, symName: '__ZN4core3ptr122drop_in_place$LT$alloc..vec..into_iter..IntoIter$LT$core..ptr..non_null..NonNull$LT$pyo3_ffi..object..PyObject$GT$$GT$$GT$17h9800fc34f9382ab1E', symObjAddr: 0x286C, symBinAddr: 0x45658, symSize: 0x24 }
  - { offset: 0x15EE1B, size: 0x8, addend: 0x0, symName: '__ZN4core3ptr122drop_in_place$LT$hashbrown..raw..RawTable$LT$$LP$$RF$str$C$pyo3..pyclass..create_type_object..GetSetDefBuilder$RP$$GT$$GT$17h0cc193e99f81d2a1E', symObjAddr: 0x2890, symBinAddr: 0x4567C, symSize: 0x24 }
  - { offset: 0x15EE4A, size: 0x8, addend: 0x0, symName: '__ZN4core3ptr122drop_in_place$LT$pyo3..impl_..pyclass..lazy_type_object..LazyTypeObjectInner..ensure_init..$u7b$$u7b$closure$u7d$$u7d$$GT$17h54cd8d95e583a66fE', symObjAddr: 0x28B4, symBinAddr: 0x456A0, symSize: 0x60 }
